	.syntax unified
	.arch armv7-a
	.eabi_attribute 27, 3
	.eabi_attribute 28, 1
	.fpu vfpv3-d16
	.eabi_attribute 20, 1
	.eabi_attribute 21, 1
	.eabi_attribute 23, 3
	.eabi_attribute 24, 1
	.eabi_attribute 25, 1
	.eabi_attribute 26, 2
	.eabi_attribute 30, 2
	.eabi_attribute 34, 1
	.eabi_attribute 18, 4
	.thumb
	.file	"aes-core.c"
	.text
.Ltext0:
	.cfi_sections	.debug_frame
	.align	2
	.global	aesc_keyexp
	.thumb
	.thumb_func
	.type	aesc_keyexp, %function
aesc_keyexp:
.LFB22:
	.file 1 "aes-core.c"
	.loc 1 194 0
	.cfi_startproc
	@ args = 0, pretend = 0, frame = 0
	@ frame_needed = 0, uses_anonymous_args = 0
	@ link register save eliminated.
.LVL0:
	push	{r4, r5, r6, r7, r8, r9, sl, fp}
.LCFI0:
	.cfi_def_cfa_offset 32
	.cfi_offset 4, -32
	.cfi_offset 5, -28
	.cfi_offset 6, -24
	.cfi_offset 7, -20
	.cfi_offset 8, -16
	.cfi_offset 9, -12
	.cfi_offset 10, -8
	.cfi_offset 11, -4
.LBB20:
.LBB21:
	.loc 1 193 0
	add	r3, r1, #16
	.file 2 "/usr/include/arm-linux-gnueabihf/bits/string3.h"
	.loc 2 51 0
	ldr	r4, [r0, #12]	@ unaligned
.LBE21:
.LBE20:
	.loc 1 201 0
	movs	r2, #16
.LBB24:
.LBB22:
	.loc 2 51 0
	ldr	r9, [r0, #0]	@ unaligned
	ldr	r8, [r0, #4]	@ unaligned
	ldr	ip, [r0, #8]	@ unaligned
.LBE22:
.LBE24:
	.loc 1 209 0
	ldr	r7, .L6
.LBB25:
.LBB23:
	.loc 2 51 0
	str	r4, [r1, #12]	@ unaligned
.LVL1:
	.loc 1 218 0
	ldrb	r6, [r1, #15]	@ zero_extendqisi2
	.loc 1 217 0
	ldrb	r5, [r1, #14]	@ zero_extendqisi2
	.loc 1 216 0
	ldrb	r4, [r1, #13]	@ zero_extendqisi2
	.loc 1 215 0
	ldrb	r0, [r1, #12]	@ zero_extendqisi2
.LVL2:
	.loc 2 51 0
	str	r9, [r1, #0]	@ unaligned
	str	r8, [r1, #4]	@ unaligned
	str	ip, [r1, #8]	@ unaligned
.LVL3:
.L3:
.LBE23:
.LBE25:
	.loc 1 207 0
	tst	r2, #15
	.loc 1 209 0
	lsr	fp, r2, #4
	add	sl, r7, r4
	.loc 1 210 0
	add	r9, r7, r5
	.loc 1 211 0
	add	r8, r7, r6
	.loc 1 212 0
	add	ip, r7, r0
	.loc 1 207 0
	bne	.L2
	.loc 1 209 0
	ldrb	r6, [r7, fp]	@ zero_extendqisi2
.LVL4:
	ldrb	r0, [sl, #12]	@ zero_extendqisi2
.LVL5:
	.loc 1 210 0
	ldrb	r4, [r9, #12]	@ zero_extendqisi2
.LVL6:
	.loc 1 209 0
	eors	r0, r0, r6
.LVL7:
	.loc 1 211 0
	ldrb	r5, [r8, #12]	@ zero_extendqisi2
.LVL8:
	.loc 1 212 0
	ldrb	r6, [ip, #12]	@ zero_extendqisi2
.LVL9:
.L2:
	.loc 1 215 0
	ldrb	ip, [r3, #-16]	@ zero_extendqisi2
	eor	r0, r0, ip
.LVL10:
	strb	r0, [r1, r2]
	.loc 1 201 0
	adds	r2, r2, #4
.LVL11:
	.loc 1 216 0
	ldrb	r9, [r3, #-15]	@ zero_extendqisi2
	.loc 1 217 0
	ldrb	r8, [r3, #-14]	@ zero_extendqisi2
	.loc 1 201 0
	cmp	r2, #176
	.loc 1 218 0
	ldrb	ip, [r3, #-13]	@ zero_extendqisi2
	.loc 1 216 0
	eor	r4, r4, r9
.LVL12:
	.loc 1 217 0
	eor	r5, r5, r8
.LVL13:
	.loc 1 216 0
	strb	r4, [r3, #1]
	.loc 1 217 0
	strb	r5, [r3, #2]
	.loc 1 218 0
	eor	r6, r6, ip
.LVL14:
	strb	r6, [r3, #3]
	add	r3, r3, #4
	.loc 1 201 0
	bne	.L3
	.loc 1 220 0
	pop	{r4, r5, r6, r7, r8, r9, sl, fp}
	bx	lr
.L7:
	.align	2
.L6:
	.word	.LANCHOR0
	.cfi_endproc
.LFE22:
	.size	aesc_keyexp, .-aesc_keyexp
	.align	2
	.global	aes_first_addroundkey
	.thumb
	.thumb_func
	.type	aes_first_addroundkey, %function
aes_first_addroundkey:
.LFB23:
	.loc 1 223 0
	.cfi_startproc
	@ args = 0, pretend = 0, frame = 0
	@ frame_needed = 0, uses_anonymous_args = 0
	@ link register save eliminated.
.LVL15:
	.loc 1 229 0
	ldr	r3, [r2, #0]
.LVL16:
	.loc 1 223 0
	push	{r4}
.LCFI1:
	.cfi_def_cfa_offset 4
	.cfi_offset 4, -4
	.loc 1 229 0
	ldr	r4, [r1, #0]
	eors	r3, r3, r4
	str	r3, [r0, #0]
.LVL17:
	ldr	r4, [r2, #4]
	ldr	r3, [r1, #4]
	eors	r3, r3, r4
	str	r3, [r0, #4]
.LVL18:
	ldr	r4, [r2, #8]
	ldr	r3, [r1, #8]
	eors	r3, r3, r4
	str	r3, [r0, #8]
.LVL19:
	ldr	r2, [r2, #12]
.LVL20:
	ldr	r3, [r1, #12]
	eors	r3, r3, r2
	str	r3, [r0, #12]
.LVL21:
	.loc 1 230 0
	pop	{r4}
	bx	lr
	.cfi_endproc
.LFE23:
	.size	aes_first_addroundkey, .-aes_first_addroundkey
	.align	2
	.global	aes_addroundkey
	.thumb
	.thumb_func
	.type	aes_addroundkey, %function
aes_addroundkey:
.LFB24:
	.loc 1 233 0
	.cfi_startproc
	@ args = 0, pretend = 0, frame = 0
	@ frame_needed = 0, uses_anonymous_args = 0
	@ link register save eliminated.
.LVL22:
	.loc 1 238 0
	ldr	r3, [r1, #0]
	.loc 1 233 0
	push	{r4}
.LCFI2:
	.cfi_def_cfa_offset 4
	.cfi_offset 4, -4
	.loc 1 238 0
	ldr	r4, [r0, #0]
	ldr	r2, [r0, #4]
	eors	r3, r3, r4
	str	r3, [r0, #0]
.LVL23:
	ldr	r3, [r1, #4]
	ldr	r4, [r0, #8]
	eors	r3, r3, r2
	str	r3, [r0, #4]
.LVL24:
	ldr	r2, [r1, #8]
	ldr	r3, [r0, #12]
	eors	r2, r2, r4
	str	r2, [r0, #8]
.LVL25:
	ldr	r2, [r1, #12]
	eors	r3, r3, r2
	str	r3, [r0, #12]
.LVL26:
	.loc 1 239 0
	pop	{r4}
	bx	lr
	.cfi_endproc
.LFE24:
	.size	aes_addroundkey, .-aes_addroundkey
	.align	2
	.global	aes_last_addroundkey
	.thumb
	.thumb_func
	.type	aes_last_addroundkey, %function
aes_last_addroundkey:
.LFB25:
	.loc 1 242 0
	.cfi_startproc
	@ args = 0, pretend = 0, frame = 0
	@ frame_needed = 0, uses_anonymous_args = 0
	@ link register save eliminated.
.LVL27:
	.loc 1 248 0
	ldr	r3, [r2, #0]
.LVL28:
	.loc 1 242 0
	push	{r4}
.LCFI3:
	.cfi_def_cfa_offset 4
	.cfi_offset 4, -4
	.loc 1 248 0
	ldr	r4, [r1, #0]
	eors	r3, r3, r4
	str	r3, [r0, #0]
.LVL29:
	ldr	r4, [r2, #4]
	ldr	r3, [r1, #4]
	eors	r3, r3, r4
	str	r3, [r0, #4]
.LVL30:
	ldr	r4, [r2, #8]
	ldr	r3, [r1, #8]
	eors	r3, r3, r4
	str	r3, [r0, #8]
.LVL31:
	ldr	r2, [r2, #12]
.LVL32:
	ldr	r3, [r1, #12]
	eors	r3, r3, r2
	str	r3, [r0, #12]
.LVL33:
	.loc 1 249 0
	pop	{r4}
	bx	lr
	.cfi_endproc
.LFE25:
	.size	aes_last_addroundkey, .-aes_last_addroundkey
	.align	2
	.global	aes_subbytes_shiftrows
	.thumb
	.thumb_func
	.type	aes_subbytes_shiftrows, %function
aes_subbytes_shiftrows:
.LFB26:
	.loc 1 252 0
	.cfi_startproc
	@ args = 0, pretend = 0, frame = 0
	@ frame_needed = 0, uses_anonymous_args = 0
	@ link register save eliminated.
.LVL34:
	push	{r4, r5, r6, r7, r8, r9, sl, fp}
.LCFI4:
	.cfi_def_cfa_offset 32
	.cfi_offset 4, -32
	.cfi_offset 5, -28
	.cfi_offset 6, -24
	.cfi_offset 7, -20
	.cfi_offset 8, -16
	.cfi_offset 9, -12
	.cfi_offset 10, -8
	.cfi_offset 11, -4
	.loc 1 255 0
	movw	r3, #:lower16:.LANCHOR0
	ldrb	fp, [r0, #0]	@ zero_extendqisi2
	movt	r3, #:upper16:.LANCHOR0
	.loc 1 256 0
	ldrb	sl, [r0, #4]	@ zero_extendqisi2
	.loc 1 257 0
	ldrb	r9, [r0, #8]	@ zero_extendqisi2
	.loc 1 255 0
	add	fp, r3, fp
	.loc 1 258 0
	ldrb	r8, [r0, #12]	@ zero_extendqisi2
	.loc 1 256 0
	add	sl, r3, sl
	.loc 1 261 0
	ldrb	ip, [r0, #5]	@ zero_extendqisi2
	.loc 1 257 0
	add	r9, r3, r9
	.loc 1 260 0
	ldrb	r7, [r0, #1]	@ zero_extendqisi2
.LVL35:
	.loc 1 258 0
	add	r8, r3, r8
	.loc 1 263 0
	ldrb	r6, [r0, #13]	@ zero_extendqisi2
	.loc 1 261 0
	add	ip, r3, ip
	.loc 1 262 0
	ldrb	r5, [r0, #9]	@ zero_extendqisi2
	.loc 1 264 0
	adds	r7, r3, r7
	.loc 1 267 0
	ldrb	r4, [r0, #10]	@ zero_extendqisi2
	.loc 1 263 0
	adds	r6, r3, r6
	.loc 1 266 0
	ldrb	r1, [r0, #2]	@ zero_extendqisi2
.LVL36:
	.loc 1 262 0
	adds	r5, r3, r5
	.loc 1 270 0
	ldrb	r2, [r0, #14]	@ zero_extendqisi2
	.loc 1 267 0
	adds	r4, r3, r4
	.loc 1 268 0
	adds	r1, r3, r1
	.loc 1 263 0
	ldrb	r6, [r6, #12]	@ zero_extendqisi2
	.loc 1 270 0
	adds	r2, r3, r2
	.loc 1 262 0
	ldrb	r5, [r5, #12]	@ zero_extendqisi2
	.loc 1 267 0
	ldrb	r4, [r4, #12]	@ zero_extendqisi2
	.loc 1 268 0
	ldrb	r1, [r1, #12]	@ zero_extendqisi2
	.loc 1 255 0
	ldrb	fp, [fp, #12]	@ zero_extendqisi2
	.loc 1 256 0
	ldrb	sl, [sl, #12]	@ zero_extendqisi2
	.loc 1 257 0
	ldrb	r9, [r9, #12]	@ zero_extendqisi2
	.loc 1 258 0
	ldrb	r8, [r8, #12]	@ zero_extendqisi2
	.loc 1 261 0
	ldrb	ip, [ip, #12]	@ zero_extendqisi2
	.loc 1 264 0
	ldrb	r7, [r7, #12]	@ zero_extendqisi2
	.loc 1 270 0
	ldrb	r2, [r2, #12]	@ zero_extendqisi2
	.loc 1 263 0
	strb	r6, [r0, #9]
	.loc 1 262 0
	strb	r5, [r0, #5]
	.loc 1 267 0
	strb	r4, [r0, #2]
	.loc 1 268 0
	strb	r1, [r0, #10]
	.loc 1 269 0
	ldrb	r5, [r0, #6]	@ zero_extendqisi2
.LVL37:
	.loc 1 255 0
	strb	fp, [r0, #0]
	.loc 1 256 0
	strb	sl, [r0, #4]
	.loc 1 271 0
	adds	r5, r3, r5
	.loc 1 257 0
	strb	r9, [r0, #8]
	.loc 1 258 0
	strb	r8, [r0, #12]
	.loc 1 261 0
	strb	ip, [r0, #1]
	.loc 1 264 0
	strb	r7, [r0, #13]
	.loc 1 270 0
	strb	r2, [r0, #6]
	.loc 1 274 0
	ldrb	r4, [r0, #15]	@ zero_extendqisi2
	.loc 1 273 0
	ldrb	r1, [r0, #3]	@ zero_extendqisi2
.LVL38:
	.loc 1 276 0
	ldrb	r2, [r0, #7]	@ zero_extendqisi2
	.loc 1 274 0
	adds	r4, r3, r4
	.loc 1 275 0
	ldrb	r6, [r0, #11]	@ zero_extendqisi2
	.loc 1 277 0
	adds	r1, r3, r1
	.loc 1 276 0
	adds	r2, r3, r2
	.loc 1 271 0
	ldrb	r5, [r5, #12]	@ zero_extendqisi2
	.loc 1 275 0
	adds	r3, r3, r6
	.loc 1 274 0
	ldrb	r4, [r4, #12]	@ zero_extendqisi2
	.loc 1 277 0
	ldrb	r1, [r1, #12]	@ zero_extendqisi2
	.loc 1 276 0
	ldrb	r2, [r2, #12]	@ zero_extendqisi2
	.loc 1 275 0
	ldrb	r3, [r3, #12]	@ zero_extendqisi2
	.loc 1 271 0
	strb	r5, [r0, #14]
	.loc 1 274 0
	strb	r4, [r0, #3]
	.loc 1 277 0
	strb	r1, [r0, #7]
	.loc 1 276 0
	strb	r2, [r0, #11]
	.loc 1 275 0
	strb	r3, [r0, #15]
	.loc 1 278 0
	pop	{r4, r5, r6, r7, r8, r9, sl, fp}
	bx	lr
	.cfi_endproc
.LFE26:
	.size	aes_subbytes_shiftrows, .-aes_subbytes_shiftrows
	.align	2
	.global	aes_subbyte_shiftrows_mixcols
	.thumb
	.thumb_func
	.type	aes_subbyte_shiftrows_mixcols, %function
aes_subbyte_shiftrows_mixcols:
.LFB27:
	.loc 1 281 0
	.cfi_startproc
	@ args = 0, pretend = 0, frame = 40
	@ frame_needed = 0, uses_anonymous_args = 0
	@ link register save eliminated.
.LVL39:
	push	{r4, r5, r6, r7, r8, r9, sl, fp}
.LCFI5:
	.cfi_def_cfa_offset 32
	.cfi_offset 4, -32
	.cfi_offset 5, -28
	.cfi_offset 6, -24
	.cfi_offset 7, -20
	.cfi_offset 8, -16
	.cfi_offset 9, -12
	.cfi_offset 10, -8
	.cfi_offset 11, -4
	.loc 1 286 0
	movw	r3, #:lower16:.LANCHOR0
	ldrb	r5, [r0, #0]	@ zero_extendqisi2
	.loc 1 281 0
	sub	sp, sp, #40
.LCFI6:
	.cfi_def_cfa_offset 72
	.loc 1 286 0
	ldrb	r4, [r0, #5]	@ zero_extendqisi2
	movt	r3, #:upper16:.LANCHOR0
	ldrb	r1, [r0, #10]	@ zero_extendqisi2
	adds	r5, r3, r5
	.loc 2 51 0
	ldrb	r6, [r0, #9]	@ zero_extendqisi2
	.loc 1 286 0
	adds	r4, r3, r4
	.loc 2 51 0
	ldrb	r7, [r0, #14]	@ zero_extendqisi2
	.loc 1 286 0
	adds	r1, r3, r1
	ldrb	r2, [r0, #15]	@ zero_extendqisi2
	.loc 1 291 0
	adds	r6, r3, r6
	str	r6, [sp, #4]
	add	fp, r3, r7
	.loc 2 51 0
	ldrb	r6, [r0, #3]	@ zero_extendqisi2
	.loc 1 286 0
	adds	r2, r3, r2
	ldrb	r7, [r5, #524]	@ zero_extendqisi2
	ldrb	r8, [r4, #268]	@ zero_extendqisi2
	.loc 1 291 0
	adds	r6, r3, r6
	str	r6, [sp, #16]
	.loc 1 286 0
	ldrb	r6, [r1, #12]	@ zero_extendqisi2
	eor	r8, r8, r7
	ldrb	r9, [r2, #12]	@ zero_extendqisi2
	eor	r8, r6, r8
	.loc 2 51 0
	ldrb	ip, [r0, #4]	@ zero_extendqisi2
	.loc 1 286 0
	eor	r8, r9, r8
	str	r8, [sp, #0]
	.loc 2 51 0
	ldrb	r8, [r0, #1]	@ zero_extendqisi2
	.loc 1 291 0
	add	ip, r3, ip
	.loc 1 288 0
	ldrb	r7, [r4, #12]	@ zero_extendqisi2
	.loc 1 291 0
	str	ip, [sp, #8]
	.loc 2 51 0
	str	r8, [sp, #12]
.LVL40:
	.loc 1 289 0
	eors	r6, r6, r7
	.loc 1 291 0
	ldr	r8, [sp, #4]
	.loc 1 287 0
	ldrb	ip, [r5, #12]	@ zero_extendqisi2
	ldrb	r4, [r4, #524]	@ zero_extendqisi2
	eor	r9, ip, r9
	.loc 1 288 0
	eor	ip, r7, ip
	str	ip, [sp, #36]
	.loc 1 287 0
	eor	r9, r9, r4
	.loc 1 291 0
	ldrb	ip, [r8, #268]	@ zero_extendqisi2
	ldr	r8, [sp, #8]
	.loc 1 289 0
	ldrb	r5, [r5, #268]	@ zero_extendqisi2
	.loc 2 51 0
	ldrb	sl, [r0, #2]	@ zero_extendqisi2
.LVL41:
	.loc 1 291 0
	ldrb	r7, [r8, #524]	@ zero_extendqisi2
	.loc 1 289 0
	eors	r6, r6, r5
	.loc 1 301 0
	ldr	r8, [sp, #12]
	.loc 1 296 0
	add	sl, r3, sl
	.loc 1 291 0
	eor	r7, ip, r7
	.loc 2 51 0
	ldrb	r4, [r0, #11]	@ zero_extendqisi2
	ldrb	ip, [r0, #7]	@ zero_extendqisi2
	.loc 1 301 0
	add	r8, r3, r8
	adds	r4, r3, r4
	str	r8, [sp, #28]
	.loc 1 296 0
	add	ip, r3, ip
	str	sl, [sp, #12]
	.loc 2 51 0
	ldrb	r5, [r0, #8]	@ zero_extendqisi2
	.loc 1 296 0
	str	ip, [sp, #20]
	.loc 2 51 0
	ldrb	ip, [r0, #12]	@ zero_extendqisi2
	.loc 1 296 0
	adds	r5, r3, r5
	.loc 1 301 0
	str	r4, [sp, #24]
	.loc 1 286 0
	ldr	r4, [sp, #0]
	.loc 1 301 0
	add	ip, r3, ip
	.loc 1 288 0
	ldr	r8, [sp, #36]
	.loc 1 301 0
	str	ip, [sp, #32]
	.loc 1 288 0
	ldrb	ip, [r1, #524]	@ zero_extendqisi2
	.loc 1 286 0
	strb	r4, [r0, #0]
	.loc 1 287 0
	ldrb	r4, [r1, #268]	@ zero_extendqisi2
	.loc 1 288 0
	eor	ip, r8, ip
	ldrb	r1, [r2, #268]	@ zero_extendqisi2
	.loc 2 51 0
	ldrb	r8, [r0, #6]	@ zero_extendqisi2
	.loc 1 287 0
	eor	r9, r9, r4
	.loc 2 51 0
	ldrb	sl, [r0, #13]	@ zero_extendqisi2
.LVL42:
	.loc 1 288 0
	eor	r1, ip, r1
	.loc 1 289 0
	ldrb	r4, [r2, #524]	@ zero_extendqisi2
	.loc 1 291 0
	ldr	ip, [sp, #16]
	.loc 1 296 0
	add	sl, r3, sl
.LVL43:
	.loc 1 301 0
	add	r3, r3, r8
	.loc 1 293 0
	ldr	r8, [sp, #4]
	.loc 1 291 0
	ldrb	r2, [fp, #12]	@ zero_extendqisi2
	.loc 1 289 0
	eors	r6, r6, r4
	.loc 1 292 0
	ldr	r4, [sp, #8]
	.loc 1 288 0
	strb	r1, [r0, #2]
	.loc 1 291 0
	eors	r7, r7, r2
	ldrb	r1, [ip, #12]	@ zero_extendqisi2
	.loc 1 289 0
	strb	r6, [r0, #3]
	.loc 1 296 0
	ldr	ip, [sp, #12]
	.loc 1 291 0
	eors	r7, r7, r1
	.loc 1 293 0
	ldrb	r6, [r8, #12]	@ zero_extendqisi2
	.loc 1 294 0
	ldr	r8, [sp, #8]
	.loc 1 291 0
	strb	r7, [r0, #4]
	.loc 1 294 0
	eors	r2, r2, r6
	.loc 1 292 0
	ldrb	r7, [r4, #12]	@ zero_extendqisi2
	.loc 1 296 0
	ldrb	r4, [ip, #12]	@ zero_extendqisi2
	.loc 1 292 0
	eors	r1, r1, r7
	.loc 1 294 0
	ldrb	ip, [r8, #268]	@ zero_extendqisi2
	.loc 1 293 0
	eors	r7, r7, r6
	.loc 1 292 0
	ldr	r8, [sp, #4]
	.loc 1 296 0
	ldr	r6, [sp, #20]
	.loc 1 294 0
	eor	ip, r2, ip
	.loc 1 287 0
	strb	r9, [r0, #1]
	.loc 1 296 0
	ldrb	r2, [sl, #268]	@ zero_extendqisi2
	.loc 1 292 0
	ldrb	r9, [r8, #524]	@ zero_extendqisi2
	.loc 1 296 0
	ldrb	r8, [r6, #12]	@ zero_extendqisi2
	ldrb	r6, [r5, #524]	@ zero_extendqisi2
	.loc 1 292 0
	eor	r1, r1, r9
	.loc 1 294 0
	str	ip, [sp, #4]
	.loc 1 296 0
	eors	r6, r6, r2
	.loc 1 293 0
	ldrb	r9, [fp, #524]	@ zero_extendqisi2
	.loc 1 296 0
	eors	r6, r6, r4
	.loc 1 297 0
	ldrb	r2, [r5, #12]	@ zero_extendqisi2
	.loc 1 292 0
	ldrb	ip, [fp, #268]	@ zero_extendqisi2
	.loc 1 296 0
	eor	r6, r8, r6
	.loc 1 298 0
	ldrb	fp, [sl, #12]	@ zero_extendqisi2
	.loc 1 297 0
	eor	r8, r2, r8
	ldrb	sl, [sl, #524]	@ zero_extendqisi2
	.loc 1 292 0
	eor	ip, r1, ip
	.loc 1 299 0
	ldrb	r5, [r5, #268]	@ zero_extendqisi2
	.loc 1 298 0
	eor	r2, fp, r2
	.loc 1 296 0
	str	r6, [sp, #8]
	.loc 1 299 0
	eor	fp, fp, r4
	.loc 1 301 0
	ldr	r6, [sp, #28]
	.loc 1 299 0
	eor	r5, fp, r5
	.loc 1 298 0
	ldr	fp, [sp, #12]
	.loc 1 297 0
	eor	r8, r8, sl
	.loc 1 292 0
	strb	ip, [r0, #5]
	.loc 1 293 0
	eor	r7, r7, r9
	.loc 1 301 0
	ldrb	r1, [r6, #268]	@ zero_extendqisi2
	ldr	r6, [sp, #32]
	.loc 1 293 0
	ldr	ip, [sp, #16]
	.loc 1 299 0
	str	r5, [sp, #36]
	.loc 1 301 0
	ldrb	r4, [r6, #524]	@ zero_extendqisi2
	.loc 1 302 0
	ldr	r5, [sp, #28]
	.loc 1 301 0
	eors	r4, r4, r1
	.loc 1 302 0
	ldrb	r1, [r6, #12]	@ zero_extendqisi2
	.loc 1 297 0
	ldrb	r6, [fp, #268]	@ zero_extendqisi2
	.loc 1 301 0
	ldr	sl, [sp, #24]
	.loc 1 297 0
	eor	r8, r8, r6
	.loc 1 293 0
	ldrb	r6, [ip, #268]	@ zero_extendqisi2
	.loc 1 294 0
	ldrb	ip, [ip, #524]	@ zero_extendqisi2
	.loc 1 293 0
	eors	r7, r7, r6
	.loc 1 302 0
	ldrb	r6, [r5, #524]	@ zero_extendqisi2
	.loc 1 298 0
	ldr	r5, [sp, #20]
	.loc 1 293 0
	strb	r7, [r0, #6]
	.loc 1 294 0
	ldr	r7, [sp, #4]
	.loc 1 301 0
	ldrb	r9, [sl, #12]	@ zero_extendqisi2
	.loc 1 298 0
	ldrb	sl, [fp, #524]	@ zero_extendqisi2
	.loc 1 294 0
	eor	ip, r7, ip
	.loc 1 298 0
	ldrb	r7, [r5, #268]	@ zero_extendqisi2
	.loc 1 302 0
	eor	fp, r1, r9
	.loc 1 298 0
	eor	sl, r2, sl
	.loc 1 301 0
	ldrb	r2, [r3, #12]	@ zero_extendqisi2
	.loc 1 298 0
	eor	sl, sl, r7
	.loc 1 302 0
	eor	r6, fp, r6
	.loc 1 299 0
	ldr	r7, [sp, #36]
	.loc 1 301 0
	eors	r4, r4, r2
	.loc 1 299 0
	ldrb	fp, [r5, #524]	@ zero_extendqisi2
	.loc 1 301 0
	eor	r9, r9, r4
	.loc 1 297 0
	strb	r8, [r0, #9]
	.loc 1 303 0
	ldr	r8, [sp, #28]
	.loc 1 299 0
	eor	r5, r7, fp
	.loc 1 302 0
	ldrb	r4, [r3, #268]	@ zero_extendqisi2
	.loc 1 296 0
	ldr	r7, [sp, #8]
	.loc 1 298 0
	strb	sl, [r0, #10]
	.loc 1 302 0
	eors	r6, r6, r4
	.loc 1 304 0
	ldr	sl, [sp, #32]
	.loc 1 303 0
	ldr	fp, [sp, #24]
	ldrb	r4, [r8, #12]	@ zero_extendqisi2
	.loc 1 296 0
	strb	r7, [r0, #8]
	.loc 1 302 0
	strb	r6, [r0, #13]
	.loc 1 303 0
	eors	r1, r1, r4
	ldrb	r7, [r3, #524]	@ zero_extendqisi2
	.loc 1 304 0
	eors	r2, r2, r4
	ldrb	r6, [sl, #268]	@ zero_extendqisi2
	.loc 1 299 0
	strb	r5, [r0, #11]
	.loc 1 303 0
	eors	r1, r1, r7
	ldrb	r5, [fp, #268]	@ zero_extendqisi2
	.loc 1 304 0
	eors	r2, r2, r6
	ldrb	r3, [fp, #524]	@ zero_extendqisi2
	.loc 1 294 0
	strb	ip, [r0, #7]
	.loc 1 303 0
	eors	r1, r1, r5
	.loc 1 301 0
	strb	r9, [r0, #12]
	.loc 1 304 0
	eors	r2, r2, r3
	.loc 1 303 0
	strb	r1, [r0, #14]
	.loc 1 304 0
	strb	r2, [r0, #15]
	.loc 1 305 0
	add	sp, sp, #40
	pop	{r4, r5, r6, r7, r8, r9, sl, fp}
	bx	lr
	.cfi_endproc
.LFE27:
	.size	aes_subbyte_shiftrows_mixcols, .-aes_subbyte_shiftrows_mixcols
	.align	2
	.global	aesc_encrypt
	.thumb
	.thumb_func
	.type	aesc_encrypt, %function
aesc_encrypt:
.LFB28:
	.loc 1 308 0
	.cfi_startproc
	@ args = 0, pretend = 0, frame = 80
	@ frame_needed = 0, uses_anonymous_args = 0
.LVL44:
	push	{r4, r5, r6, r7, r8, r9, sl, fp, lr}
.LCFI7:
	.cfi_def_cfa_offset 36
	.cfi_offset 4, -36
	.cfi_offset 5, -32
	.cfi_offset 6, -28
	.cfi_offset 7, -24
	.cfi_offset 8, -20
	.cfi_offset 9, -16
	.cfi_offset 10, -12
	.cfi_offset 11, -8
	.cfi_offset 14, -4
	sub	sp, sp, #84
.LCFI8:
	.cfi_def_cfa_offset 120
	.loc 1 308 0
	movw	r4, #:lower16:__stack_chk_guard
	movt	r4, #:upper16:__stack_chk_guard
	str	r2, [sp, #44]
.LBB36:
.LBB37:
	.loc 1 229 0
	ldr	r9, [sp, #44]
	.loc 1 307 0
	ldr	r3, [sp, #44]
	.loc 1 229 0
	ldr	r2, [r2, #0]
.LVL45:
	.loc 1 307 0
	adds	r3, r3, #16
.LVL46:
.LBE37:
.LBE36:
	.loc 1 308 0
	ldr	r7, [r4, #0]
.LBB52:
.LBB38:
	.loc 1 307 0
	str	r3, [sp, #0]
	.loc 1 229 0
	ldr	r4, [r0, #4]
	ldr	r3, [r0, #0]
	.loc 1 307 0
	ldr	r6, [sp, #44]
.LBE38:
.LBE52:
	.loc 1 308 0
	str	r1, [sp, #52]
.LBB53:
.LBB39:
	.loc 1 229 0
	eors	r3, r3, r2
	ldr	r1, [r9, #4]
.LVL47:
	.loc 1 307 0
	adds	r6, r6, #160
	ldr	r5, .L18
	.loc 1 229 0
	ldr	r2, [r0, #8]
	eors	r1, r1, r4
	.loc 1 307 0
	str	r6, [sp, #48]
	.loc 1 229 0
	ldr	r4, [r0, #12]
	ldr	r6, [r9, #8]
	ldr	r0, [r9, #12]
.LVL48:
	eors	r2, r2, r6
	str	r3, [sp, #60]
	eors	r0, r0, r4
	str	r1, [sp, #64]
	str	r2, [sp, #68]
	str	r0, [sp, #72]
.LBE39:
.LBE53:
	.loc 1 308 0
	str	r7, [sp, #76]
.LVL49:
.L14:
.LBB54:
.LBB55:
	.loc 1 286 0
	ldrb	r0, [sp, #60]	@ zero_extendqisi2
	ldrb	r1, [sp, #65]	@ zero_extendqisi2
	ldrb	r2, [sp, #70]	@ zero_extendqisi2
	adds	r0, r5, r0
.LBE55:
.LBE54:
.LBB70:
.LBB40:
	.loc 2 51 0
	ldrb	r4, [sp, #64]	@ zero_extendqisi2
.LBE40:
.LBE70:
.LBB71:
.LBB56:
	.loc 1 286 0
	adds	r1, r5, r1
	ldrb	r3, [sp, #75]	@ zero_extendqisi2
	adds	r2, r5, r2
.LBE56:
.LBE71:
.LBB72:
.LBB41:
	.loc 2 51 0
	ldrb	r6, [sp, #74]	@ zero_extendqisi2
.LBE41:
.LBE72:
.LBB73:
.LBB57:
	.loc 1 291 0
	adds	r4, r5, r4
	str	r4, [sp, #16]
	.loc 1 286 0
	adds	r3, r5, r3
.LBE57:
.LBE73:
.LBB74:
.LBB42:
	.loc 2 51 0
	ldrb	r4, [sp, #63]	@ zero_extendqisi2
.LBE42:
.LBE74:
.LBB75:
.LBB58:
	.loc 1 291 0
	adds	r6, r5, r6
	.loc 1 286 0
	ldrb	ip, [r1, #268]	@ zero_extendqisi2
.LBE58:
.LBE75:
.LBB76:
.LBB43:
	.loc 2 51 0
	ldrb	r7, [sp, #69]	@ zero_extendqisi2
.LBE43:
.LBE76:
.LBB77:
.LBB59:
	.loc 1 291 0
	adds	r4, r5, r4
	str	r6, [sp, #8]
	.loc 1 286 0
	ldrb	r6, [r0, #524]	@ zero_extendqisi2
	.loc 1 291 0
	adds	r7, r5, r7
	str	r4, [sp, #12]
	.loc 1 286 0
	ldrb	r4, [r2, #12]	@ zero_extendqisi2
	eor	ip, ip, r6
	ldrb	r8, [r3, #12]	@ zero_extendqisi2
	.loc 1 288 0
	ldrb	r6, [r1, #12]	@ zero_extendqisi2
	.loc 1 286 0
	eor	ip, r4, ip
	.loc 1 291 0
	str	r7, [sp, #4]
	.loc 1 286 0
	eor	ip, r8, ip
	.loc 1 287 0
	ldrb	r7, [r0, #12]	@ zero_extendqisi2
	.loc 1 289 0
	eors	r4, r4, r6
.LBE59:
.LBE77:
.LBB78:
.LBB44:
	.loc 2 51 0
	ldrb	fp, [sp, #61]	@ zero_extendqisi2
.LVL50:
.LBE44:
.LBE78:
.LBB79:
.LBB60:
	.loc 1 287 0
	eor	r8, r7, r8
	.loc 1 288 0
	eors	r7, r7, r6
	str	r7, [sp, #28]
	.loc 1 301 0
	add	fp, r5, fp
	.loc 1 291 0
	ldr	r7, [sp, #16]
	.loc 1 289 0
	ldrb	r0, [r0, #268]	@ zero_extendqisi2
.LBE60:
.LBE79:
.LBB80:
.LBB45:
	.loc 2 51 0
	ldrb	sl, [sp, #62]	@ zero_extendqisi2
.LVL51:
.LBE45:
.LBE80:
.LBB81:
.LBB61:
	.loc 1 291 0
	ldrb	r9, [r7, #524]	@ zero_extendqisi2
	.loc 1 289 0
	eors	r4, r4, r0
	.loc 1 291 0
	ldr	r7, [sp, #4]
	.loc 1 296 0
	add	sl, r5, sl
	.loc 1 301 0
	str	fp, [sp, #36]
.LBE61:
.LBE81:
.LBB82:
.LBB46:
	.loc 2 51 0
	ldrb	fp, [sp, #67]	@ zero_extendqisi2
.LBE46:
.LBE82:
.LBB83:
.LBB62:
	.loc 1 291 0
	ldrb	r6, [r7, #268]	@ zero_extendqisi2
	.loc 1 296 0
	str	sl, [sp, #20]
	add	fp, r5, fp
.LBE62:
.LBE83:
.LBB84:
.LBB47:
	.loc 2 51 0
	ldrb	sl, [sp, #68]	@ zero_extendqisi2
.LBE47:
.LBE84:
.LBB85:
.LBB63:
	.loc 1 291 0
	eor	r9, r6, r9
	.loc 1 296 0
	str	fp, [sp, #24]
.LBE63:
.LBE85:
.LBB86:
.LBB48:
	.loc 2 51 0
	ldrb	r0, [sp, #71]	@ zero_extendqisi2
.LBE48:
.LBE86:
.LBB87:
.LBB64:
	.loc 1 287 0
	ldrb	fp, [r1, #524]	@ zero_extendqisi2
	.loc 1 296 0
	add	r1, r5, sl
.LBE64:
.LBE87:
.LBB88:
.LBB49:
	.loc 2 51 0
	ldrb	r6, [sp, #72]	@ zero_extendqisi2
.LBE49:
.LBE88:
.LBB89:
.LBB65:
	.loc 1 301 0
	adds	r0, r5, r0
	.loc 1 287 0
	eor	r8, r8, fp
.LBE65:
.LBE89:
.LBB90:
.LBB50:
	.loc 2 51 0
	ldrb	sl, [sp, #73]	@ zero_extendqisi2
.LBE50:
.LBE90:
.LBB91:
.LBB66:
	.loc 1 301 0
	str	r0, [sp, #32]
	adds	r6, r5, r6
	.loc 1 287 0
	ldrb	fp, [r2, #268]	@ zero_extendqisi2
	.loc 1 296 0
	add	sl, r5, sl
	.loc 1 288 0
	ldr	r0, [sp, #28]
	ldrb	r2, [r2, #524]	@ zero_extendqisi2
	.loc 1 287 0
	eor	r8, r8, fp
	.loc 1 291 0
	ldr	fp, [sp, #8]
	.loc 1 288 0
	eor	r7, r0, r2
	ldrb	r2, [r3, #268]	@ zero_extendqisi2
	.loc 1 289 0
	ldrb	r3, [r3, #524]	@ zero_extendqisi2
	.loc 1 288 0
	eors	r7, r7, r2
	.loc 1 291 0
	ldr	r2, [sp, #12]
.LBE66:
.LBE91:
.LBB92:
.LBB51:
	.loc 2 51 0
	ldrb	r0, [sp, #66]	@ zero_extendqisi2
.LVL52:
.LBE51:
.LBE92:
.LBB93:
.LBB67:
	.loc 1 289 0
	eors	r4, r4, r3
	.loc 1 286 0
	strb	ip, [sp, #60]
	.loc 1 292 0
	ldr	r3, [sp, #16]
	.loc 1 301 0
	adds	r0, r5, r0
	.loc 1 291 0
	ldrb	ip, [fp, #12]	@ zero_extendqisi2
	.loc 1 289 0
	strb	r4, [sp, #63]
	.loc 1 293 0
	ldr	r4, [sp, #4]
	.loc 1 291 0
	eor	r9, ip, r9
	.loc 1 301 0
	str	r0, [sp, #28]
	.loc 1 288 0
	strb	r7, [sp, #62]
	.loc 1 291 0
	ldrb	r0, [r2, #12]	@ zero_extendqisi2
	.loc 1 294 0
	ldr	r7, [sp, #16]
	.loc 1 291 0
	eor	r9, r0, r9
	strb	r9, [sp, #64]
	.loc 1 292 0
	ldrb	r9, [r3, #12]	@ zero_extendqisi2
	.loc 1 293 0
	ldrb	r3, [r4, #12]	@ zero_extendqisi2
	.loc 1 294 0
	ldrb	r4, [r7, #268]	@ zero_extendqisi2
	.loc 1 292 0
	eor	r0, r9, r0
	.loc 1 293 0
	eor	r9, r3, r9
	.loc 1 294 0
	eor	r3, r3, ip
	.loc 1 292 0
	ldr	fp, [sp, #4]
	.loc 1 294 0
	eors	r4, r4, r3
	.loc 1 301 0
	str	r6, [sp, #40]
	.loc 1 294 0
	str	r4, [sp, #4]
	.loc 1 296 0
	ldr	r6, [sp, #20]
	.loc 1 292 0
	ldr	r4, [sp, #8]
	.loc 1 298 0
	ldrb	ip, [sl, #12]	@ zero_extendqisi2
	.loc 1 296 0
	ldrb	r2, [r6, #12]	@ zero_extendqisi2
	.loc 1 293 0
	ldrb	r7, [r4, #524]	@ zero_extendqisi2
	.loc 1 292 0
	ldrb	r6, [fp, #524]	@ zero_extendqisi2
	.loc 1 296 0
	ldrb	r3, [sl, #268]	@ zero_extendqisi2
	.loc 1 293 0
	eor	r9, r9, r7
	.loc 1 299 0
	ldrb	fp, [r1, #268]	@ zero_extendqisi2
	.loc 1 292 0
	eors	r6, r6, r0
	.loc 1 297 0
	ldrb	r7, [r1, #12]	@ zero_extendqisi2
	ldrb	r0, [sl, #524]	@ zero_extendqisi2
	.loc 1 292 0
	ldrb	sl, [r4, #268]	@ zero_extendqisi2
	.loc 1 296 0
	ldrb	r4, [r1, #524]	@ zero_extendqisi2
	ldr	r1, [sp, #24]
	.loc 1 292 0
	eor	r6, r6, sl
	.loc 1 287 0
	strb	r8, [sp, #61]
	.loc 1 299 0
	eor	r8, ip, r2
	eor	fp, r8, fp
	.loc 1 296 0
	eors	r4, r4, r3
	ldrb	r3, [r1, #12]	@ zero_extendqisi2
	.loc 1 298 0
	eor	ip, ip, r7
	.loc 1 299 0
	str	fp, [sp, #8]
	.loc 1 296 0
	eors	r4, r4, r2
	.loc 1 301 0
	ldr	fp, [sp, #36]
	.loc 1 297 0
	eors	r7, r7, r3
	.loc 1 301 0
	ldr	r1, [sp, #40]
	.loc 1 297 0
	eors	r0, r0, r7
	.loc 1 301 0
	ldr	r2, [sp, #32]
	.loc 1 296 0
	eors	r4, r4, r3
	.loc 1 301 0
	ldrb	r8, [fp, #268]	@ zero_extendqisi2
	.loc 1 298 0
	ldr	fp, [sp, #20]
	.loc 1 301 0
	ldrb	sl, [r1, #524]	@ zero_extendqisi2
	.loc 1 302 0
	ldr	r3, [sp, #40]
	.loc 1 298 0
	ldrb	r7, [fp, #524]	@ zero_extendqisi2
	.loc 1 301 0
	eor	sl, r8, sl
	.loc 1 297 0
	ldrb	r8, [fp, #268]	@ zero_extendqisi2
	.loc 1 293 0
	ldr	fp, [sp, #12]
	.loc 1 298 0
	eor	ip, ip, r7
	.loc 1 297 0
	eor	r0, r0, r8
	.loc 1 292 0
	strb	r6, [sp, #65]
	.loc 1 301 0
	ldr	r7, [sp, #28]
	.loc 1 293 0
	ldrb	r6, [fp, #268]	@ zero_extendqisi2
	.loc 1 294 0
	ldrb	r8, [fp, #524]	@ zero_extendqisi2
	.loc 1 302 0
	ldr	fp, [sp, #36]
	.loc 1 293 0
	eor	r9, r9, r6
	.loc 1 301 0
	ldrb	r1, [r2, #12]	@ zero_extendqisi2
	.loc 1 302 0
	ldrb	r2, [r3, #12]	@ zero_extendqisi2
	ldrb	r6, [fp, #524]	@ zero_extendqisi2
	.loc 1 299 0
	ldr	fp, [sp, #24]
	.loc 1 293 0
	strb	r9, [sp, #66]
	.loc 1 294 0
	ldr	r9, [sp, #4]
	.loc 1 301 0
	ldrb	r3, [r7, #12]	@ zero_extendqisi2
	.loc 1 302 0
	eor	r7, r2, r1
	.loc 1 294 0
	eor	r8, r9, r8
	.loc 1 302 0
	eors	r6, r6, r7
	.loc 1 299 0
	ldrb	r9, [fp, #524]	@ zero_extendqisi2
	.loc 1 301 0
	eor	sl, r3, sl
	.loc 1 298 0
	ldrb	r7, [fp, #268]	@ zero_extendqisi2
	.loc 1 301 0
	eor	r1, r1, sl
	.loc 1 302 0
	ldr	fp, [sp, #28]
	.loc 1 298 0
	eor	r7, ip, r7
	.loc 1 296 0
	strb	r4, [sp, #68]
	.loc 1 298 0
	strb	r7, [sp, #70]
	.loc 1 302 0
	ldrb	sl, [fp, #268]	@ zero_extendqisi2
	.loc 1 299 0
	ldr	fp, [sp, #8]
	.loc 1 302 0
	eor	r6, r6, sl
	.loc 1 297 0
	strb	r0, [sp, #69]
	.loc 1 299 0
	eor	r9, fp, r9
	.loc 1 301 0
	strb	r1, [sp, #72]
	.loc 1 299 0
	strb	r9, [sp, #71]
	.loc 1 294 0
	strb	r8, [sp, #67]
	.loc 1 302 0
	strb	r6, [sp, #73]
	.loc 1 303 0
	ldr	ip, [sp, #36]
	ldr	r0, [sp, #28]
	.loc 1 304 0
	ldr	r4, [sp, #40]
	.loc 1 303 0
	ldr	r9, [sp, #32]
	ldrb	r1, [ip, #12]	@ zero_extendqisi2
	.loc 1 304 0
	ldrb	r6, [r4, #268]	@ zero_extendqisi2
	.loc 1 303 0
	ldrb	r7, [r0, #524]	@ zero_extendqisi2
	eors	r2, r2, r1
.LBE67:
.LBE93:
.LBB94:
.LBB95:
	.loc 1 238 0
	ldr	fp, [sp, #0]
.LBE95:
.LBE94:
.LBB99:
.LBB68:
	.loc 1 304 0
	eors	r3, r3, r1
	.loc 1 303 0
	ldrb	r4, [r9, #268]	@ zero_extendqisi2
	.loc 1 304 0
	eors	r3, r3, r6
	ldrb	r0, [r9, #524]	@ zero_extendqisi2
	.loc 1 303 0
	eors	r2, r2, r7
	eors	r2, r2, r4
	strb	r2, [sp, #74]
	.loc 1 304 0
	eors	r3, r3, r0
	strb	r3, [sp, #75]
.LVL53:
.LBE68:
.LBE99:
.LBB100:
.LBB96:
	.loc 1 238 0
	ldr	r2, [fp, #12]
	ldr	r3, [fp, #0]
	ldr	r0, [sp, #72]
	ldr	r1, [sp, #60]
.LBE96:
.LBE100:
	.loc 1 315 0
	ldr	ip, [sp, #48]
.LBB101:
.LBB97:
	.loc 1 238 0
	eors	r0, r0, r2
	ldr	r6, [fp, #4]
	eors	r1, r1, r3
	ldr	r4, [fp, #8]
	add	fp, fp, #16
	ldr	r2, [sp, #64]
.LBE97:
.LBE101:
	.loc 1 315 0
	cmp	fp, ip
.LBB102:
.LBB98:
	.loc 1 238 0
	ldr	r3, [sp, #68]
	eor	r2, r2, r6
	str	fp, [sp, #0]
	eor	r3, r3, r4
	str	r0, [sp, #72]
	str	r3, [sp, #68]
	str	r1, [sp, #60]
.LVL54:
	str	r2, [sp, #64]
.LVL55:
.LBE98:
.LBE102:
.LBB103:
.LBB69:
	.loc 1 286 0
	ldr	r3, .L18
.LBE69:
.LBE103:
	.loc 1 315 0
	bne	.L14
	b	.L19
.L20:
	.align	2
.L18:
	.word	.LANCHOR0
.L19:
.LVL56:
.LBB104:
.LBB105:
	.loc 1 255 0
	ldrb	sl, [sp, #60]	@ zero_extendqisi2
	.loc 1 256 0
	ldrb	r9, [sp, #64]	@ zero_extendqisi2
	.loc 1 257 0
	ldrb	r8, [sp, #68]	@ zero_extendqisi2
	.loc 1 255 0
	add	sl, r3, sl
	.loc 1 258 0
	ldrb	ip, [sp, #72]	@ zero_extendqisi2
	.loc 1 256 0
	add	r9, r3, r9
	.loc 1 260 0
	ldrb	r7, [sp, #61]	@ zero_extendqisi2
.LVL57:
	.loc 1 257 0
	add	r8, r3, r8
	.loc 1 263 0
	ldrb	r6, [sp, #73]	@ zero_extendqisi2
	.loc 1 258 0
	add	ip, r3, ip
	.loc 1 262 0
	ldrb	r5, [sp, #69]	@ zero_extendqisi2
	.loc 1 264 0
	adds	r7, r3, r7
	.loc 1 261 0
	ldrb	r4, [sp, #65]	@ zero_extendqisi2
	.loc 1 263 0
	adds	r6, r3, r6
	.loc 1 266 0
	ldrb	r0, [sp, #62]	@ zero_extendqisi2
.LVL58:
	.loc 1 262 0
	adds	r5, r3, r5
	.loc 1 267 0
	ldrb	r1, [sp, #70]	@ zero_extendqisi2
	.loc 1 261 0
	adds	r4, r3, r4
	.loc 1 270 0
	ldrb	r2, [sp, #74]	@ zero_extendqisi2
	.loc 1 268 0
	adds	r0, r3, r0
	.loc 1 267 0
	adds	r1, r3, r1
	.loc 1 256 0
	ldrb	r9, [r9, #12]	@ zero_extendqisi2
	.loc 1 270 0
	adds	r2, r3, r2
	.loc 1 264 0
	ldrb	r7, [r7, #12]	@ zero_extendqisi2
	.loc 1 263 0
	ldrb	r6, [r6, #12]	@ zero_extendqisi2
	.loc 1 262 0
	ldrb	r5, [r5, #12]	@ zero_extendqisi2
	.loc 1 261 0
	ldrb	r4, [r4, #12]	@ zero_extendqisi2
	.loc 1 268 0
	ldrb	r0, [r0, #12]	@ zero_extendqisi2
	.loc 1 267 0
	ldrb	r1, [r1, #12]	@ zero_extendqisi2
	.loc 1 255 0
	ldrb	sl, [sl, #12]	@ zero_extendqisi2
	.loc 1 257 0
	ldrb	r8, [r8, #12]	@ zero_extendqisi2
	.loc 1 258 0
	ldrb	ip, [ip, #12]	@ zero_extendqisi2
	.loc 1 270 0
	ldrb	r2, [r2, #12]	@ zero_extendqisi2
	.loc 1 256 0
	strb	r9, [sp, #64]
.LBE105:
.LBE104:
	.loc 1 322 0
	movw	r9, #:lower16:__stack_chk_guard
.LBB115:
.LBB106:
	.loc 1 264 0
	strb	r7, [sp, #73]
.LBE106:
.LBE115:
	.loc 1 322 0
	movt	r9, #:upper16:__stack_chk_guard
.LBB116:
.LBB107:
	.loc 1 263 0
	strb	r6, [sp, #69]
	.loc 1 262 0
	strb	r5, [sp, #65]
	.loc 1 261 0
	strb	r4, [sp, #61]
	.loc 1 268 0
	strb	r0, [sp, #70]
	.loc 1 267 0
	strb	r1, [sp, #62]
	.loc 1 269 0
	ldrb	r0, [sp, #66]	@ zero_extendqisi2
.LVL59:
	.loc 1 255 0
	strb	sl, [sp, #60]
	.loc 1 257 0
	strb	r8, [sp, #68]
	.loc 1 271 0
	adds	r0, r3, r0
	.loc 1 258 0
	strb	ip, [sp, #72]
	.loc 1 270 0
	strb	r2, [sp, #66]
	.loc 1 274 0
	ldrb	r2, [sp, #75]	@ zero_extendqisi2
	.loc 1 273 0
	ldrb	r4, [sp, #63]	@ zero_extendqisi2
.LVL60:
	.loc 1 274 0
	adds	r2, r3, r2
	.loc 1 276 0
	ldrb	r1, [sp, #67]	@ zero_extendqisi2
	.loc 1 277 0
	adds	r4, r3, r4
.LBE107:
.LBE116:
.LBB117:
.LBB118:
	.loc 1 248 0
	ldr	r6, [sp, #44]
.LBE118:
.LBE117:
.LBB127:
.LBB108:
	.loc 1 274 0
	ldrb	r2, [r2, #12]	@ zero_extendqisi2
	.loc 1 276 0
	adds	r1, r3, r1
	.loc 1 275 0
	ldrb	r5, [sp, #71]	@ zero_extendqisi2
	.loc 1 277 0
	ldrb	r4, [r4, #12]	@ zero_extendqisi2
.LBE108:
.LBE127:
.LBB128:
.LBB119:
	.loc 1 248 0
	ldr	r7, [sp, #52]
.LBE119:
.LBE128:
.LBB129:
.LBB109:
	.loc 1 275 0
	adds	r3, r3, r5
	.loc 1 274 0
	strb	r2, [sp, #63]
	.loc 1 276 0
	ldrb	r5, [r1, #12]	@ zero_extendqisi2
.LBE109:
.LBE129:
.LBB130:
.LBB120:
	.loc 1 248 0
	ldr	r2, [sp, #60]
	ldr	r1, [r6, #160]
.LBE120:
.LBE130:
.LBB131:
.LBB110:
	.loc 1 277 0
	strb	r4, [sp, #67]
.LVL61:
.LBE110:
.LBE131:
.LBB132:
.LBB121:
	.loc 1 248 0
	eors	r2, r2, r1
.LBE121:
.LBE132:
.LBB133:
.LBB111:
	.loc 1 271 0
	ldrb	r4, [r0, #12]	@ zero_extendqisi2
.LBE111:
.LBE133:
.LBB134:
.LBB122:
	.loc 1 248 0
	str	r2, [r7, #0]
.LVL62:
.LBE122:
.LBE134:
.LBB135:
.LBB112:
	.loc 1 275 0
	ldrb	r0, [r3, #12]	@ zero_extendqisi2
.LBE112:
.LBE135:
.LBB136:
.LBB123:
	.loc 1 248 0
	ldr	r2, [r6, #164]
	ldr	r3, [sp, #64]
.LBE123:
.LBE136:
.LBB137:
.LBB113:
	.loc 1 276 0
	strb	r5, [sp, #71]
.LBE113:
.LBE137:
.LBB138:
.LBB124:
	.loc 1 248 0
	eors	r2, r2, r3
	ldr	r3, [sp, #68]
	str	r2, [r7, #4]
.LVL63:
	ldr	r2, [r6, #168]
.LBE124:
.LBE138:
	.loc 1 322 0
	ldr	r1, [sp, #76]
.LBB139:
.LBB125:
	.loc 1 248 0
	eors	r2, r2, r3
	str	r2, [r7, #8]
.LVL64:
.LBE125:
.LBE139:
	.loc 1 322 0
	ldr	r2, [r9, #0]
.LBB140:
.LBB114:
	.loc 1 275 0
	strb	r0, [sp, #75]
	.loc 1 271 0
	strb	r4, [sp, #74]
.LBE114:
.LBE140:
	.loc 1 322 0
	cmp	r1, r2
.LBB141:
.LBB126:
	.loc 1 248 0
	ldr	r0, [r6, #172]
	ldr	r3, [sp, #72]
	eor	r3, r0, r3
	str	r3, [r7, #12]
.LVL65:
.LBE126:
.LBE141:
	.loc 1 322 0
	bne	.L17
	add	sp, sp, #84
	pop	{r4, r5, r6, r7, r8, r9, sl, fp, pc}
.L17:
	bl	__stack_chk_fail
.LVL66:
	.cfi_endproc
.LFE28:
	.size	aesc_encrypt, .-aesc_encrypt
	.align	2
	.global	aes_isubbytes_ishiftrows
	.thumb
	.thumb_func
	.type	aes_isubbytes_ishiftrows, %function
aes_isubbytes_ishiftrows:
.LFB29:
	.loc 1 325 0
	.cfi_startproc
	@ args = 0, pretend = 0, frame = 0
	@ frame_needed = 0, uses_anonymous_args = 0
	@ link register save eliminated.
.LVL67:
	push	{r4, r5, r6, r7, r8, r9, sl, fp}
.LCFI9:
	.cfi_def_cfa_offset 32
	.cfi_offset 4, -32
	.cfi_offset 5, -28
	.cfi_offset 6, -24
	.cfi_offset 7, -20
	.cfi_offset 8, -16
	.cfi_offset 9, -12
	.cfi_offset 10, -8
	.cfi_offset 11, -4
	.loc 1 328 0
	movw	r3, #:lower16:.LANCHOR0
	ldrb	fp, [r0, #0]	@ zero_extendqisi2
	movt	r3, #:upper16:.LANCHOR0
	.loc 1 329 0
	ldrb	sl, [r0, #4]	@ zero_extendqisi2
	.loc 1 330 0
	ldrb	r9, [r0, #8]	@ zero_extendqisi2
	.loc 1 328 0
	add	fp, r3, fp
	.loc 1 331 0
	ldrb	r8, [r0, #12]	@ zero_extendqisi2
	.loc 1 329 0
	add	sl, r3, sl
	.loc 1 334 0
	ldrb	ip, [r0, #9]	@ zero_extendqisi2
	.loc 1 330 0
	add	r9, r3, r9
	.loc 1 333 0
	ldrb	r7, [r0, #13]	@ zero_extendqisi2
.LVL68:
	.loc 1 331 0
	add	r8, r3, r8
	.loc 1 336 0
	ldrb	r6, [r0, #1]	@ zero_extendqisi2
	.loc 1 334 0
	add	ip, r3, ip
	.loc 1 335 0
	ldrb	r5, [r0, #5]	@ zero_extendqisi2
	.loc 1 337 0
	adds	r7, r3, r7
	.loc 1 340 0
	ldrb	r4, [r0, #10]	@ zero_extendqisi2
	.loc 1 336 0
	adds	r6, r3, r6
	.loc 1 339 0
	ldrb	r1, [r0, #2]	@ zero_extendqisi2
.LVL69:
	.loc 1 335 0
	adds	r5, r3, r5
	.loc 1 343 0
	ldrb	r2, [r0, #14]	@ zero_extendqisi2
	.loc 1 340 0
	adds	r4, r3, r4
	.loc 1 341 0
	adds	r1, r3, r1
	.loc 1 336 0
	ldrb	r6, [r6, #780]	@ zero_extendqisi2
	.loc 1 343 0
	adds	r2, r3, r2
	.loc 1 335 0
	ldrb	r5, [r5, #780]	@ zero_extendqisi2
	.loc 1 340 0
	ldrb	r4, [r4, #780]	@ zero_extendqisi2
	.loc 1 341 0
	ldrb	r1, [r1, #780]	@ zero_extendqisi2
	.loc 1 328 0
	ldrb	fp, [fp, #780]	@ zero_extendqisi2
	.loc 1 329 0
	ldrb	sl, [sl, #780]	@ zero_extendqisi2
	.loc 1 330 0
	ldrb	r9, [r9, #780]	@ zero_extendqisi2
	.loc 1 331 0
	ldrb	r8, [r8, #780]	@ zero_extendqisi2
	.loc 1 334 0
	ldrb	ip, [ip, #780]	@ zero_extendqisi2
	.loc 1 337 0
	ldrb	r7, [r7, #780]	@ zero_extendqisi2
	.loc 1 343 0
	ldrb	r2, [r2, #780]	@ zero_extendqisi2
	.loc 1 336 0
	strb	r6, [r0, #5]
	.loc 1 335 0
	strb	r5, [r0, #9]
	.loc 1 340 0
	strb	r4, [r0, #2]
	.loc 1 341 0
	strb	r1, [r0, #10]
	.loc 1 342 0
	ldrb	r5, [r0, #6]	@ zero_extendqisi2
.LVL70:
	.loc 1 328 0
	strb	fp, [r0, #0]
	.loc 1 329 0
	strb	sl, [r0, #4]
	.loc 1 344 0
	adds	r5, r3, r5
	.loc 1 330 0
	strb	r9, [r0, #8]
	.loc 1 331 0
	strb	r8, [r0, #12]
	.loc 1 334 0
	strb	ip, [r0, #13]
	.loc 1 337 0
	strb	r7, [r0, #1]
	.loc 1 343 0
	strb	r2, [r0, #6]
	.loc 1 347 0
	ldrb	r4, [r0, #7]	@ zero_extendqisi2
	.loc 1 346 0
	ldrb	r1, [r0, #3]	@ zero_extendqisi2
.LVL71:
	.loc 1 349 0
	ldrb	r2, [r0, #15]	@ zero_extendqisi2
	.loc 1 347 0
	adds	r4, r3, r4
	.loc 1 348 0
	ldrb	r6, [r0, #11]	@ zero_extendqisi2
	.loc 1 350 0
	adds	r1, r3, r1
	.loc 1 349 0
	adds	r2, r3, r2
	.loc 1 344 0
	ldrb	r5, [r5, #780]	@ zero_extendqisi2
	.loc 1 348 0
	adds	r3, r3, r6
	.loc 1 347 0
	ldrb	r4, [r4, #780]	@ zero_extendqisi2
	.loc 1 350 0
	ldrb	r1, [r1, #780]	@ zero_extendqisi2
	.loc 1 349 0
	ldrb	r2, [r2, #780]	@ zero_extendqisi2
	.loc 1 348 0
	ldrb	r3, [r3, #780]	@ zero_extendqisi2
	.loc 1 344 0
	strb	r5, [r0, #14]
	.loc 1 347 0
	strb	r4, [r0, #3]
	.loc 1 350 0
	strb	r1, [r0, #15]
	.loc 1 349 0
	strb	r2, [r0, #11]
	.loc 1 348 0
	strb	r3, [r0, #7]
	.loc 1 351 0
	pop	{r4, r5, r6, r7, r8, r9, sl, fp}
	bx	lr
	.cfi_endproc
.LFE29:
	.size	aes_isubbytes_ishiftrows, .-aes_isubbytes_ishiftrows
	.align	2
	.global	aes_isubbyte_ishiftrows_imixcols
	.thumb
	.thumb_func
	.type	aes_isubbyte_ishiftrows_imixcols, %function
aes_isubbyte_ishiftrows_imixcols:
.LFB30:
	.loc 1 354 0
	.cfi_startproc
	@ args = 0, pretend = 0, frame = 40
	@ frame_needed = 0, uses_anonymous_args = 0
	@ link register save eliminated.
.LVL72:
	push	{r4, r5, r6, r7, r8, r9, sl, fp}
.LCFI10:
	.cfi_def_cfa_offset 32
	.cfi_offset 4, -32
	.cfi_offset 5, -28
	.cfi_offset 6, -24
	.cfi_offset 7, -20
	.cfi_offset 8, -16
	.cfi_offset 9, -12
	.cfi_offset 10, -8
	.cfi_offset 11, -4
	.loc 1 359 0
	movw	r3, #:lower16:.LANCHOR0
	ldrb	r6, [r0, #0]	@ zero_extendqisi2
	movt	r3, #:upper16:.LANCHOR0
	ldrb	r7, [r0, #1]	@ zero_extendqisi2
	.loc 1 354 0
	sub	sp, sp, #40
.LCFI11:
	.cfi_def_cfa_offset 72
	.loc 1 359 0
	adds	r6, r3, r6
	ldrb	r5, [r0, #2]	@ zero_extendqisi2
	adds	r7, r3, r7
	ldrb	r2, [r0, #3]	@ zero_extendqisi2
	ldrb	r1, [r6, #1292]	@ zero_extendqisi2
	adds	r5, r3, r5
	ldrb	sl, [r7, #1036]	@ zero_extendqisi2
	adds	r2, r3, r2
	.loc 1 361 0
	ldrb	ip, [r7, #1804]	@ zero_extendqisi2
	.loc 1 359 0
	eor	sl, sl, r1
	.loc 1 361 0
	ldrb	r1, [r6, #1548]	@ zero_extendqisi2
	.loc 1 360 0
	ldrb	r4, [r6, #1804]	@ zero_extendqisi2
	.loc 1 361 0
	eor	ip, ip, r1
	ldrb	r1, [r5, #1292]	@ zero_extendqisi2
	.loc 1 359 0
	ldrb	r9, [r5, #1548]	@ zero_extendqisi2
	.loc 1 361 0
	eor	ip, ip, r1
	ldrb	r1, [r2, #1036]	@ zero_extendqisi2
	.loc 1 360 0
	ldrb	r8, [r7, #1292]	@ zero_extendqisi2
	.loc 1 359 0
	eor	sl, sl, r9
	.loc 1 361 0
	eor	ip, ip, r1
	.loc 1 359 0
	ldrb	r9, [r2, #1804]	@ zero_extendqisi2
	.loc 1 361 0
	add	ip, r3, ip
	.loc 1 360 0
	eor	r8, r8, r4
	ldrb	r4, [r5, #1036]	@ zero_extendqisi2
	.loc 1 359 0
	eor	sl, sl, r9
	.loc 1 361 0
	ldrb	ip, [ip, #780]	@ zero_extendqisi2
	.loc 1 359 0
	add	sl, r3, sl
	.loc 1 360 0
	eor	r8, r8, r4
	ldrb	r4, [r2, #1548]	@ zero_extendqisi2
	.loc 2 51 0
	ldrb	fp, [r0, #8]	@ zero_extendqisi2
	.loc 1 360 0
	eor	r8, r8, r4
	.loc 1 361 0
	str	ip, [sp, #12]
	.loc 2 51 0
	ldrb	ip, [r0, #6]	@ zero_extendqisi2
	.loc 1 360 0
	add	r8, r3, r8
	.loc 1 359 0
	ldrb	sl, [sl, #780]	@ zero_extendqisi2
	.loc 1 369 0
	add	fp, r3, fp
	.loc 1 359 0
	str	r2, [sp, #4]
	.loc 2 51 0
	ldrb	r9, [r0, #9]	@ zero_extendqisi2
	.loc 1 369 0
	str	fp, [sp, #20]
	.loc 1 364 0
	add	fp, r3, ip
	.loc 2 51 0
	ldrb	r2, [r0, #10]	@ zero_extendqisi2
	.loc 1 369 0
	add	r9, r3, r9
	.loc 2 51 0
	ldrb	ip, [r0, #11]	@ zero_extendqisi2
	.loc 1 360 0
	ldrb	r8, [r8, #780]	@ zero_extendqisi2
	.loc 1 369 0
	adds	r2, r3, r2
	add	ip, r3, ip
	.loc 2 51 0
	ldrb	r4, [r0, #5]	@ zero_extendqisi2
	ldrb	r1, [r0, #4]	@ zero_extendqisi2
.LVL73:
	.loc 1 369 0
	str	r9, [sp, #16]
	.loc 1 364 0
	adds	r4, r3, r4
	.loc 2 51 0
	ldrb	r9, [r0, #7]	@ zero_extendqisi2
.LVL74:
	.loc 1 364 0
	adds	r1, r3, r1
	.loc 1 369 0
	str	r2, [sp, #8]
	.loc 1 359 0
	strb	sl, [r0, #0]
	.loc 1 364 0
	add	sl, r3, r9
	.loc 1 369 0
	str	ip, [sp, #24]
	.loc 2 51 0
	ldrb	ip, [r0, #12]	@ zero_extendqisi2
.LVL75:
	.loc 1 360 0
	strb	r8, [r0, #5]
	.loc 1 374 0
	add	ip, r3, ip
	.loc 2 51 0
	ldrb	r8, [r0, #14]	@ zero_extendqisi2
	.loc 1 374 0
	str	ip, [sp, #32]
	.loc 2 51 0
	ldrb	ip, [r0, #15]	@ zero_extendqisi2
	.loc 1 374 0
	add	r8, r3, r8
	.loc 1 361 0
	ldr	r2, [sp, #12]
	.loc 1 374 0
	add	ip, r3, ip
	.loc 2 51 0
	ldrb	r9, [r0, #13]	@ zero_extendqisi2
.LVL76:
	.loc 1 374 0
	str	r8, [sp, #12]
	str	ip, [sp, #36]
	add	r9, r3, r9
	.loc 1 362 0
	ldrb	ip, [r6, #1036]	@ zero_extendqisi2
	ldrb	r8, [r7, #1548]	@ zero_extendqisi2
	.loc 1 364 0
	ldrb	r6, [r1, #1292]	@ zero_extendqisi2
	ldrb	r7, [r4, #1036]	@ zero_extendqisi2
	.loc 1 362 0
	eor	r8, r8, ip
	.loc 1 374 0
	str	r9, [sp, #28]
	.loc 1 365 0
	ldrb	ip, [r4, #1292]	@ zero_extendqisi2
	.loc 1 362 0
	ldrb	r9, [r5, #1804]	@ zero_extendqisi2
	.loc 1 364 0
	eor	r5, r7, r6
	.loc 1 365 0
	ldrb	r7, [r1, #1804]	@ zero_extendqisi2
	.loc 1 366 0
	ldrb	r6, [r4, #1804]	@ zero_extendqisi2
	.loc 1 362 0
	eor	r8, r8, r9
	.loc 1 365 0
	eor	r7, ip, r7
	.loc 1 366 0
	ldrb	ip, [r1, #1548]	@ zero_extendqisi2
	.loc 1 361 0
	strb	r2, [r0, #10]
	.loc 1 362 0
	ldr	r2, [sp, #4]
	.loc 1 366 0
	eor	r6, r6, ip
	.loc 1 369 0
	ldr	ip, [sp, #16]
	.loc 1 367 0
	ldrb	r1, [r1, #1036]	@ zero_extendqisi2
	.loc 1 362 0
	ldrb	r9, [r2, #1292]	@ zero_extendqisi2
	.loc 1 369 0
	ldrb	r2, [ip, #1036]	@ zero_extendqisi2
	ldr	ip, [sp, #20]
	.loc 1 362 0
	eor	r8, r8, r9
	.loc 1 367 0
	ldrb	r4, [r4, #1548]	@ zero_extendqisi2
	.loc 1 362 0
	add	r8, r3, r8
	.loc 1 364 0
	ldrb	r9, [fp, #1548]	@ zero_extendqisi2
	.loc 1 367 0
	eors	r4, r4, r1
	.loc 1 369 0
	ldrb	r1, [ip, #1292]	@ zero_extendqisi2
	.loc 1 364 0
	eor	r5, r5, r9
	.loc 1 365 0
	ldrb	ip, [fp, #1036]	@ zero_extendqisi2
	.loc 1 366 0
	ldrb	r9, [fp, #1292]	@ zero_extendqisi2
	.loc 1 369 0
	eors	r2, r2, r1
	.loc 1 365 0
	eor	r7, r7, ip
	.loc 1 369 0
	ldr	ip, [sp, #8]
	.loc 1 366 0
	eor	r6, r6, r9
	.loc 1 364 0
	ldrb	r9, [sl, #1804]	@ zero_extendqisi2
	.loc 1 367 0
	ldrb	r1, [fp, #1804]	@ zero_extendqisi2
	.loc 1 364 0
	eor	r5, r5, r9
	.loc 1 369 0
	ldr	r9, [sp, #24]
	ldrb	fp, [ip, #1548]	@ zero_extendqisi2
	.loc 1 367 0
	eors	r4, r4, r1
	.loc 1 365 0
	ldrb	ip, [sl, #1548]	@ zero_extendqisi2
	.loc 1 364 0
	adds	r5, r3, r5
	.loc 1 366 0
	ldrb	r1, [sl, #1036]	@ zero_extendqisi2
	.loc 1 369 0
	eor	r2, r2, fp
	.loc 1 367 0
	ldrb	sl, [sl, #1292]	@ zero_extendqisi2
	.loc 1 365 0
	eor	r7, r7, ip
	.loc 1 369 0
	ldrb	fp, [r9, #1804]	@ zero_extendqisi2
	.loc 1 366 0
	eors	r6, r6, r1
	.loc 1 367 0
	eor	r4, r4, sl
	.loc 1 362 0
	ldrb	r1, [r8, #780]	@ zero_extendqisi2
	.loc 1 369 0
	eor	r2, r2, fp
	.loc 1 365 0
	adds	r7, r3, r7
	.loc 1 366 0
	adds	r6, r3, r6
	.loc 1 367 0
	adds	r4, r3, r4
	.loc 1 369 0
	adds	r2, r3, r2
	.loc 1 364 0
	ldrb	r5, [r5, #780]	@ zero_extendqisi2
	.loc 1 365 0
	ldrb	r7, [r7, #780]	@ zero_extendqisi2
	.loc 1 366 0
	ldrb	r6, [r6, #780]	@ zero_extendqisi2
	.loc 1 367 0
	ldrb	r4, [r4, #780]	@ zero_extendqisi2
	.loc 1 369 0
	ldrb	r2, [r2, #780]	@ zero_extendqisi2
	.loc 1 362 0
	strb	r1, [r0, #15]
	.loc 1 370 0
	ldr	sl, [sp, #16]
	ldr	r1, [sp, #20]
	.loc 1 369 0
	strb	r2, [r0, #8]
	.loc 1 370 0
	ldrb	ip, [sl, #1292]	@ zero_extendqisi2
	ldrb	r2, [r1, #1804]	@ zero_extendqisi2
	.loc 1 374 0
	ldr	r8, [sp, #32]
	.loc 1 370 0
	eor	ip, ip, r2
	.loc 1 371 0
	ldr	r2, [sp, #20]
	.loc 1 364 0
	strb	r5, [r0, #4]
	.loc 1 374 0
	ldr	r5, [sp, #28]
	.loc 1 371 0
	ldrb	r1, [sl, #1804]	@ zero_extendqisi2
	.loc 1 366 0
	strb	r6, [r0, #14]
	.loc 1 367 0
	strb	r4, [r0, #3]
	.loc 1 371 0
	ldrb	r6, [r2, #1548]	@ zero_extendqisi2
	.loc 1 372 0
	ldrb	r4, [sl, #1548]	@ zero_extendqisi2
	ldrb	r2, [r2, #1036]	@ zero_extendqisi2
	.loc 1 371 0
	eors	r6, r6, r1
	.loc 1 376 0
	ldr	sl, [sp, #28]
	.loc 1 365 0
	strb	r7, [r0, #9]
	.loc 1 372 0
	eors	r4, r4, r2
	.loc 1 374 0
	ldrb	r7, [r5, #1036]	@ zero_extendqisi2
	.loc 1 375 0
	ldrb	r2, [r8, #1804]	@ zero_extendqisi2
	ldrb	r5, [r5, #1292]	@ zero_extendqisi2
	.loc 1 376 0
	ldrb	r9, [sl, #1804]	@ zero_extendqisi2
	.loc 1 372 0
	ldr	sl, [sp, #8]
	.loc 1 375 0
	eors	r2, r2, r5
	.loc 1 374 0
	ldrb	r1, [r8, #1292]	@ zero_extendqisi2
	.loc 1 370 0
	ldr	r5, [sp, #8]
	.loc 1 376 0
	ldrb	r8, [r8, #1548]	@ zero_extendqisi2
	.loc 1 374 0
	eors	r1, r1, r7
	.loc 1 376 0
	eor	r8, r9, r8
	.loc 1 372 0
	ldrb	r9, [sl, #1804]	@ zero_extendqisi2
	.loc 1 374 0
	ldr	sl, [sp, #12]
	.loc 1 370 0
	ldrb	r7, [r5, #1036]	@ zero_extendqisi2
	.loc 1 372 0
	eor	r4, r4, r9
	.loc 1 371 0
	ldrb	r5, [r5, #1292]	@ zero_extendqisi2
	.loc 1 376 0
	ldrb	r9, [sl, #1292]	@ zero_extendqisi2
	.loc 1 370 0
	eor	r7, ip, r7
	.loc 1 371 0
	eors	r5, r5, r6
	.loc 1 374 0
	ldrb	ip, [sl, #1548]	@ zero_extendqisi2
	.loc 1 375 0
	ldrb	r6, [sl, #1036]	@ zero_extendqisi2
	.loc 1 376 0
	eor	r8, r8, r9
	.loc 1 370 0
	ldr	sl, [sp, #24]
	.loc 1 374 0
	eor	r1, r1, ip
	.loc 1 375 0
	eors	r2, r2, r6
	.loc 1 370 0
	ldrb	ip, [sl, #1548]	@ zero_extendqisi2
	.loc 1 371 0
	ldrb	r6, [sl, #1036]	@ zero_extendqisi2
	.loc 1 372 0
	ldrb	r9, [sl, #1292]	@ zero_extendqisi2
	.loc 1 370 0
	eor	r7, r7, ip
	.loc 1 374 0
	ldr	sl, [sp, #36]
	.loc 1 371 0
	eors	r5, r5, r6
	.loc 1 372 0
	eor	r4, r4, r9
	.loc 1 370 0
	adds	r7, r3, r7
	.loc 1 372 0
	adds	r4, r3, r4
	.loc 1 371 0
	adds	r5, r3, r5
	.loc 1 374 0
	ldrb	ip, [sl, #1804]	@ zero_extendqisi2
	.loc 1 375 0
	ldrb	r6, [sl, #1548]	@ zero_extendqisi2
	.loc 1 376 0
	ldrb	r9, [sl, #1036]	@ zero_extendqisi2
	.loc 1 374 0
	eor	r1, r1, ip
	.loc 1 372 0
	ldrb	r4, [r4, #780]	@ zero_extendqisi2
	.loc 1 375 0
	eors	r2, r2, r6
	.loc 1 376 0
	eor	r8, r8, r9
	.loc 1 370 0
	ldrb	r7, [r7, #780]	@ zero_extendqisi2
	.loc 1 375 0
	adds	r2, r3, r2
	.loc 1 371 0
	ldrb	r5, [r5, #780]	@ zero_extendqisi2
	.loc 1 374 0
	adds	r1, r3, r1
	.loc 1 376 0
	add	r8, r3, r8
	.loc 1 375 0
	ldrb	r6, [r2, #780]	@ zero_extendqisi2
	.loc 1 374 0
	ldrb	r1, [r1, #780]	@ zero_extendqisi2
	.loc 1 376 0
	ldrb	r2, [r8, #780]	@ zero_extendqisi2
	.loc 1 370 0
	strb	r7, [r0, #13]
	.loc 1 372 0
	strb	r4, [r0, #7]
	.loc 1 377 0
	ldr	ip, [sp, #28]
	ldr	r4, [sp, #32]
	.loc 1 371 0
	strb	r5, [r0, #2]
	.loc 1 377 0
	ldr	r5, [sp, #12]
	.loc 1 374 0
	strb	r1, [r0, #12]
	.loc 1 376 0
	strb	r2, [r0, #6]
	.loc 1 377 0
	ldrb	r1, [ip, #1548]	@ zero_extendqisi2
	ldrb	r2, [r4, #1036]	@ zero_extendqisi2
	ldrb	r4, [r5, #1804]	@ zero_extendqisi2
	eors	r2, r2, r1
	ldrb	r1, [sl, #1292]	@ zero_extendqisi2
	eors	r2, r2, r4
	.loc 1 375 0
	strb	r6, [r0, #1]
	.loc 1 377 0
	eors	r2, r2, r1
	adds	r3, r3, r2
	ldrb	r3, [r3, #780]	@ zero_extendqisi2
	strb	r3, [r0, #11]
	.loc 1 378 0
	add	sp, sp, #40
	pop	{r4, r5, r6, r7, r8, r9, sl, fp}
	bx	lr
	.cfi_endproc
.LFE30:
	.size	aes_isubbyte_ishiftrows_imixcols, .-aes_isubbyte_ishiftrows_imixcols
	.align	2
	.global	aesc_decrypt
	.thumb
	.thumb_func
	.type	aesc_decrypt, %function
aesc_decrypt:
.LFB31:
	.loc 1 381 0
	.cfi_startproc
	@ args = 0, pretend = 0, frame = 48
	@ frame_needed = 0, uses_anonymous_args = 0
.LVL77:
	push	{r4, r5, r6, r7, r8, r9, sl, fp, lr}
.LCFI12:
	.cfi_def_cfa_offset 36
	.cfi_offset 4, -36
	.cfi_offset 5, -32
	.cfi_offset 6, -28
	.cfi_offset 7, -24
	.cfi_offset 8, -20
	.cfi_offset 9, -16
	.cfi_offset 10, -12
	.cfi_offset 11, -8
	.cfi_offset 14, -4
	sub	sp, sp, #52
.LCFI13:
	.cfi_def_cfa_offset 88
.LBB152:
.LBB153:
	.loc 1 229 0
	ldr	r4, [r2, #160]
.LBE153:
.LBE152:
	.loc 1 381 0
	str	r2, [sp, #12]
.LBB162:
.LBB163:
	.loc 1 380 0
	adds	r2, r2, #144
.LVL78:
.LBE163:
.LBE162:
.LBB174:
.LBB154:
	.loc 1 229 0
	ldr	r5, [sp, #12]
.LBE154:
.LBE174:
	.loc 1 381 0
	str	r1, [sp, #16]
.LBB175:
.LBB155:
	.loc 1 229 0
	ldr	r1, [r0, #4]
.LVL79:
	ldr	r7, [r5, #168]
	ldr	r6, [r5, #164]
.LBE155:
.LBE175:
.LBB176:
.LBB164:
	.loc 1 380 0
	str	r2, [sp, #4]
.LBE164:
.LBE176:
.LBB177:
.LBB156:
	.loc 1 229 0
	str	r7, [sp, #0]
	eors	r1, r1, r6
	ldr	r2, [r0, #8]
	ldr	r6, [sp, #0]
.LBE156:
.LBE177:
.LBB178:
.LBB165:
	.loc 1 328 0
	ldr	fp, .L28
.LBE165:
.LBE178:
.LBB179:
.LBB157:
	.loc 1 229 0
	ldr	r3, [r0, #0]
	eors	r2, r2, r6
.LBE157:
.LBE179:
.LBB180:
.LBB166:
	.loc 1 335 0
	ubfx	r6, r1, #8, #8
.LBE166:
.LBE180:
.LBB181:
.LBB158:
	.loc 1 229 0
	ldr	r9, [sp, #12]
	eors	r4, r4, r3
.LBE158:
.LBE181:
.LBB182:
.LBB167:
	.loc 1 335 0
	add	r6, fp, r6
	.loc 1 336 0
	ubfx	r5, r4, #8, #8
.LBE167:
.LBE182:
.LBB183:
.LBB159:
	.loc 1 229 0
	ldr	r7, [r0, #12]
.LBE159:
.LBE183:
.LBB184:
.LBB168:
	.loc 1 335 0
	ldrb	sl, [r6, #780]	@ zero_extendqisi2
	.loc 1 336 0
	add	r5, fp, r5
	.loc 1 342 0
	ubfx	r6, r1, #16, #8
.LBE168:
.LBE184:
.LBB185:
.LBB160:
	.loc 1 229 0
	ldr	r3, [r9, #172]
.LBE160:
.LBE185:
.LBB186:
.LBB169:
	.loc 1 339 0
	ubfx	r0, r4, #16, #8
.LVL80:
	.loc 1 344 0
	add	r6, fp, r6
	.loc 1 336 0
	ldrb	r5, [r5, #780]	@ zero_extendqisi2
	.loc 1 341 0
	add	r0, fp, r0
.LBE169:
.LBE186:
.LBB187:
.LBB161:
	.loc 1 229 0
	eors	r3, r3, r7
.LBE161:
.LBE187:
.LBB188:
.LBB170:
	.loc 1 344 0
	ldrb	r6, [r6, #780]	@ zero_extendqisi2
	.loc 1 341 0
	ldrb	r0, [r0, #780]	@ zero_extendqisi2
	.loc 1 334 0
	ubfx	r8, r2, #8, #8
	.loc 1 333 0
	ubfx	r9, r3, #8, #8
	.loc 1 340 0
	ubfx	ip, r2, #16, #8
	.loc 1 343 0
	ubfx	r7, r3, #16, #8
	.loc 1 336 0
	strb	r5, [sp, #33]
	.loc 1 337 0
	add	r9, fp, r9
	.loc 1 329 0
	uxtab	r5, fp, r1
	.loc 1 334 0
	add	r8, fp, r8
	.loc 1 340 0
	add	ip, fp, ip
	.loc 1 344 0
	str	r6, [sp, #8]
	.loc 1 343 0
	add	r7, fp, r7
	.loc 1 328 0
	uxtab	r6, fp, r4
	.loc 1 337 0
	ldrb	r9, [r9, #780]	@ zero_extendqisi2
	.loc 1 340 0
	ldrb	ip, [ip, #780]	@ zero_extendqisi2
	.loc 1 350 0
	add	r4, fp, r4, lsr #24
	.loc 1 341 0
	strb	r0, [sp, #38]
	.loc 1 347 0
	add	r1, fp, r1, lsr #24
	.loc 1 329 0
	ldrb	r0, [r5, #780]	@ zero_extendqisi2
	.loc 1 330 0
	uxtab	r5, fp, r2
	.loc 1 334 0
	ldrb	r8, [r8, #780]	@ zero_extendqisi2
	.loc 1 348 0
	add	r2, fp, r2, lsr #24
	.loc 1 343 0
	ldrb	r7, [r7, #780]	@ zero_extendqisi2
	.loc 1 350 0
	str	r4, [sp, #20]
	.loc 1 328 0
	ldrb	r4, [r6, #780]	@ zero_extendqisi2
	.loc 1 331 0
	uxtab	r6, fp, r3
	.loc 1 330 0
	ldrb	r5, [r5, #780]	@ zero_extendqisi2
	.loc 1 349 0
	add	r3, fp, r3, lsr #24
	.loc 1 337 0
	strb	r9, [sp, #29]
	.loc 1 331 0
	ldrb	r6, [r6, #780]	@ zero_extendqisi2
	.loc 1 335 0
	strb	sl, [sp, #37]
	.loc 1 334 0
	strb	r8, [sp, #41]
	.loc 1 340 0
	strb	ip, [sp, #30]
	.loc 1 329 0
	strb	r0, [sp, #32]
	.loc 1 350 0
	ldr	ip, [sp, #20]
	.loc 1 347 0
	ldrb	r0, [r1, #780]	@ zero_extendqisi2
	.loc 1 343 0
	strb	r7, [sp, #34]
.LBE170:
.LBE188:
	.loc 1 381 0
	movw	r7, #:lower16:__stack_chk_guard
	movt	r7, #:upper16:__stack_chk_guard
.LBB189:
.LBB171:
	.loc 1 348 0
	ldrb	r1, [r2, #780]	@ zero_extendqisi2
	.loc 1 328 0
	strb	r4, [sp, #28]
	.loc 1 349 0
	ldrb	r2, [r3, #780]	@ zero_extendqisi2
.LBE171:
.LBE189:
	.loc 1 381 0
	ldr	r4, [r7, #0]
.LBB190:
.LBB172:
	.loc 1 344 0
	ldr	r9, [sp, #8]
	.loc 1 350 0
	ldrb	r3, [ip, #780]	@ zero_extendqisi2
	.loc 1 347 0
	strb	r0, [sp, #31]
	ldr	r0, [sp, #4]
	.loc 1 330 0
	strb	r5, [sp, #36]
	.loc 1 331 0
	strb	r6, [sp, #40]
.LBE172:
.LBE190:
	.loc 1 381 0
	str	r4, [sp, #44]
.LVL81:
.LBB191:
.LBB173:
	.loc 1 344 0
	strb	r9, [sp, #42]
.LVL82:
	.loc 1 348 0
	strb	r1, [sp, #35]
	.loc 1 349 0
	strb	r2, [sp, #39]
	.loc 1 350 0
	strb	r3, [sp, #43]
.LVL83:
.L24:
.LBE173:
.LBE191:
.LBB192:
.LBB193:
	.loc 1 238 0 discriminator 2
	ldr	r2, [sp, #28]
	ldr	r3, [r0, #0]
	ldr	r1, [r0, #4]
	eors	r3, r3, r2
	ldr	r4, [sp, #32]
.LBE193:
.LBE192:
.LBB209:
.LBB210:
	.loc 1 359 0 discriminator 2
	ubfx	r0, r3, #8, #8
	ubfx	r2, r3, #16, #8
.LBE210:
.LBE209:
.LBB228:
.LBB194:
	.loc 1 238 0 discriminator 2
	eor	ip, r4, r1
.LVL84:
.LBE194:
.LBE228:
.LBB229:
.LBB211:
	.loc 1 359 0 discriminator 2
	add	r0, fp, r0
	uxtab	r1, fp, r3
	add	r2, fp, r2
	ldrb	r9, [r0, #1036]	@ zero_extendqisi2
	add	r3, fp, r3, lsr #24
	ldrb	r4, [r1, #1292]	@ zero_extendqisi2
	.loc 1 364 0 discriminator 2
	uxtab	r6, fp, ip
	.loc 1 359 0 discriminator 2
	ldrb	r8, [r2, #1548]	@ zero_extendqisi2
.LBE211:
.LBE229:
.LBB230:
.LBB195:
	.loc 2 51 0 discriminator 2
	ubfx	r7, ip, #8, #8
.LVL85:
.LBE195:
.LBE230:
.LBB231:
.LBB212:
	.loc 1 359 0 discriminator 2
	eor	r9, r9, r4
.LBE212:
.LBE231:
.LBB232:
.LBB196:
	.loc 2 51 0 discriminator 2
	ubfx	r5, ip, #16, #8
.LVL86:
.LBE196:
.LBE232:
.LBB233:
.LBB213:
	.loc 1 359 0 discriminator 2
	eor	r9, r9, r8
	ldrb	r8, [r3, #1804]	@ zero_extendqisi2
	.loc 1 360 0 discriminator 2
	ldrb	r4, [r1, #1804]	@ zero_extendqisi2
	.loc 1 364 0 discriminator 2
	add	ip, fp, ip, lsr #24
.LVL87:
	.loc 1 359 0 discriminator 2
	eor	r8, r9, r8
	.loc 1 364 0 discriminator 2
	str	ip, [sp, #8]
	.loc 1 359 0 discriminator 2
	add	r8, fp, r8
	.loc 1 360 0 discriminator 2
	ldrb	ip, [r0, #1292]	@ zero_extendqisi2
	.loc 1 364 0 discriminator 2
	add	r7, fp, r7
.LVL88:
	.loc 1 361 0 discriminator 2
	ldrb	sl, [r1, #1548]	@ zero_extendqisi2
	.loc 1 359 0 discriminator 2
	ldrb	r8, [r8, #780]	@ zero_extendqisi2
	.loc 1 360 0 discriminator 2
	eor	r4, ip, r4
	.loc 1 362 0 discriminator 2
	ldrb	r1, [r1, #1036]	@ zero_extendqisi2
	.loc 1 364 0 discriminator 2
	add	r5, fp, r5
.LVL89:
	.loc 1 361 0 discriminator 2
	ldrb	ip, [r0, #1804]	@ zero_extendqisi2
	.loc 1 362 0 discriminator 2
	ldrb	r0, [r0, #1548]	@ zero_extendqisi2
	.loc 1 364 0 discriminator 2
	ldrb	r9, [r7, #1036]	@ zero_extendqisi2
	.loc 1 361 0 discriminator 2
	eor	ip, ip, sl
	.loc 1 362 0 discriminator 2
	eors	r1, r1, r0
	.loc 1 364 0 discriminator 2
	ldrb	r0, [r6, #1292]	@ zero_extendqisi2
	.loc 1 361 0 discriminator 2
	ldrb	sl, [r2, #1292]	@ zero_extendqisi2
	.loc 1 359 0 discriminator 2
	strb	r8, [sp, #28]
	.loc 1 364 0 discriminator 2
	eor	r0, r9, r0
	.loc 1 360 0 discriminator 2
	ldrb	r8, [r2, #1036]	@ zero_extendqisi2
	.loc 1 361 0 discriminator 2
	eor	ip, ip, sl
	.loc 1 362 0 discriminator 2
	ldrb	r2, [r2, #1804]	@ zero_extendqisi2
	.loc 1 360 0 discriminator 2
	ldrb	r9, [r3, #1548]	@ zero_extendqisi2
	eor	r4, r4, r8
	.loc 1 361 0 discriminator 2
	ldrb	sl, [r3, #1036]	@ zero_extendqisi2
	.loc 1 362 0 discriminator 2
	eors	r1, r1, r2
	ldrb	r2, [r3, #1292]	@ zero_extendqisi2
	.loc 1 360 0 discriminator 2
	eor	r4, r4, r9
	.loc 1 364 0 discriminator 2
	ldr	r3, [sp, #8]
	.loc 1 361 0 discriminator 2
	eor	ip, ip, sl
	.loc 1 364 0 discriminator 2
	ldrb	r9, [r5, #1548]	@ zero_extendqisi2
	.loc 1 360 0 discriminator 2
	add	r4, fp, r4
	.loc 1 361 0 discriminator 2
	add	ip, fp, ip
	.loc 1 362 0 discriminator 2
	eors	r1, r1, r2
	.loc 1 364 0 discriminator 2
	eor	r0, r0, r9
	ldrb	r9, [r3, #1804]	@ zero_extendqisi2
	.loc 1 360 0 discriminator 2
	ldrb	r8, [r4, #780]	@ zero_extendqisi2
	.loc 1 362 0 discriminator 2
	add	r1, fp, r1
	.loc 1 364 0 discriminator 2
	eor	r0, r0, r9
.LBE213:
.LBE233:
.LBB234:
.LBB197:
	.loc 1 238 0 discriminator 2
	ldr	r4, [sp, #4]
.LBE197:
.LBE234:
.LBB235:
.LBB214:
	.loc 1 364 0 discriminator 2
	add	r0, fp, r0
	.loc 1 361 0 discriminator 2
	ldrb	r9, [ip, #780]	@ zero_extendqisi2
.LBE214:
.LBE235:
.LBB236:
.LBB198:
	.loc 1 238 0 discriminator 2
	ldr	r2, [sp, #36]
.LBE198:
.LBE236:
.LBB237:
.LBB215:
	.loc 1 364 0 discriminator 2
	ldrb	ip, [r0, #780]	@ zero_extendqisi2
.LBE215:
.LBE237:
.LBB238:
.LBB199:
	.loc 1 238 0 discriminator 2
	ldr	r3, [r4, #8]
.LBE199:
.LBE238:
.LBB239:
.LBB216:
	.loc 1 362 0 discriminator 2
	ldrb	r4, [r1, #780]	@ zero_extendqisi2
	.loc 1 360 0 discriminator 2
	strb	r8, [sp, #33]
.LBE216:
.LBE239:
.LBB240:
.LBB200:
	.loc 1 238 0 discriminator 2
	eors	r3, r3, r2
.LVL90:
.LBE200:
.LBE240:
.LBB241:
.LBB217:
	.loc 1 365 0 discriminator 2
	ldrb	sl, [r6, #1804]	@ zero_extendqisi2
.LBE217:
.LBE241:
.LBB242:
.LBB201:
	.loc 2 51 0 discriminator 2
	ubfx	r0, r3, #8, #8
.LVL91:
.LBE201:
.LBE242:
.LBB243:
.LBB218:
	.loc 1 364 0 discriminator 2
	strb	ip, [sp, #32]
	.loc 1 369 0 discriminator 2
	add	r0, fp, r0
.LVL92:
	.loc 1 365 0 discriminator 2
	ldrb	ip, [r7, #1292]	@ zero_extendqisi2
	.loc 1 369 0 discriminator 2
	uxtab	r1, fp, r3
	.loc 1 361 0 discriminator 2
	strb	r9, [sp, #38]
.LBE218:
.LBE243:
.LBB244:
.LBB202:
	.loc 2 51 0 discriminator 2
	ubfx	r2, r3, #16, #8
.LVL93:
.LBE202:
.LBE244:
.LBB245:
.LBB219:
	.loc 1 365 0 discriminator 2
	eor	sl, ip, sl
	ldrb	ip, [r5, #1036]	@ zero_extendqisi2
.LBE219:
.LBE245:
.LBB246:
.LBB203:
	.loc 1 238 0 discriminator 2
	ldr	r9, [sp, #4]
.LBE203:
.LBE246:
.LBB247:
.LBB220:
	.loc 1 369 0 discriminator 2
	add	r2, fp, r2
.LVL94:
	.loc 1 365 0 discriminator 2
	eor	sl, sl, ip
	ldr	ip, [sp, #8]
.LBE220:
.LBE247:
.LBB248:
.LBB204:
	.loc 1 238 0 discriminator 2
	ldr	r8, [sp, #40]
.LBE204:
.LBE248:
.LBB249:
.LBB221:
	.loc 1 369 0 discriminator 2
	add	r3, fp, r3, lsr #24
.LVL95:
	.loc 1 362 0 discriminator 2
	strb	r4, [sp, #43]
.LBE221:
.LBE249:
.LBB250:
.LBB205:
	.loc 1 238 0 discriminator 2
	ldr	r4, [r9, #12]
	sub	r9, r9, #16
.LVL96:
	str	r9, [sp, #4]
.LBE205:
.LBE250:
.LBB251:
.LBB222:
	.loc 1 365 0 discriminator 2
	ldrb	r9, [ip, #1548]	@ zero_extendqisi2
.LBE222:
.LBE251:
.LBB252:
.LBB206:
	.loc 1 238 0 discriminator 2
	eor	r4, r8, r4
.LVL97:
.LBE206:
.LBE252:
.LBB253:
.LBB223:
	.loc 1 366 0 discriminator 2
	ldrb	ip, [r6, #1548]	@ zero_extendqisi2
	.loc 1 365 0 discriminator 2
	eor	r9, sl, r9
	.loc 1 366 0 discriminator 2
	ldrb	r8, [r7, #1804]	@ zero_extendqisi2
	.loc 1 365 0 discriminator 2
	add	r9, fp, r9
	.loc 1 367 0 discriminator 2
	ldrb	r6, [r6, #1036]	@ zero_extendqisi2
	.loc 1 366 0 discriminator 2
	eor	r8, r8, ip
	.loc 1 367 0 discriminator 2
	ldrb	r7, [r7, #1548]	@ zero_extendqisi2
	.loc 1 365 0 discriminator 2
	ldrb	ip, [r9, #780]	@ zero_extendqisi2
	.loc 1 367 0 discriminator 2
	eors	r7, r7, r6
	.loc 1 369 0 discriminator 2
	ldrb	sl, [r0, #1036]	@ zero_extendqisi2
	ldrb	r6, [r1, #1292]	@ zero_extendqisi2
	.loc 1 365 0 discriminator 2
	strb	ip, [sp, #37]
	.loc 1 366 0 discriminator 2
	ldrb	ip, [r5, #1292]	@ zero_extendqisi2
	.loc 1 369 0 discriminator 2
	eor	r6, sl, r6
	.loc 1 367 0 discriminator 2
	ldrb	r5, [r5, #1804]	@ zero_extendqisi2
	.loc 1 370 0 discriminator 2
	ldrb	sl, [r0, #1292]	@ zero_extendqisi2
	.loc 1 366 0 discriminator 2
	eor	ip, r8, ip
	.loc 1 367 0 discriminator 2
	eors	r7, r7, r5
	.loc 1 366 0 discriminator 2
	ldr	r5, [sp, #8]
	.loc 1 370 0 discriminator 2
	ldrb	r9, [r1, #1804]	@ zero_extendqisi2
	.loc 1 369 0 discriminator 2
	str	r6, [sp, #20]
	.loc 1 366 0 discriminator 2
	ldrb	r8, [r5, #1036]	@ zero_extendqisi2
	.loc 1 370 0 discriminator 2
	eor	r9, sl, r9
	.loc 1 371 0 discriminator 2
	ldrb	sl, [r0, #1804]	@ zero_extendqisi2
	.loc 1 366 0 discriminator 2
	eor	ip, ip, r8
	.loc 1 371 0 discriminator 2
	ldrb	r8, [r1, #1548]	@ zero_extendqisi2
	.loc 1 367 0 discriminator 2
	ldrb	r5, [r5, #1292]	@ zero_extendqisi2
	.loc 1 366 0 discriminator 2
	add	ip, fp, ip
	.loc 1 371 0 discriminator 2
	eor	r8, sl, r8
	.loc 1 369 0 discriminator 2
	ldrb	sl, [r2, #1548]	@ zero_extendqisi2
	.loc 1 367 0 discriminator 2
	eors	r7, r7, r5
	.loc 1 366 0 discriminator 2
	ldrb	r5, [ip, #780]	@ zero_extendqisi2
	.loc 1 369 0 discriminator 2
	eor	r6, r6, sl
	.loc 1 367 0 discriminator 2
	add	r7, fp, r7
	.loc 1 370 0 discriminator 2
	ldrb	sl, [r2, #1036]	@ zero_extendqisi2
	.loc 1 367 0 discriminator 2
	ldrb	r7, [r7, #780]	@ zero_extendqisi2
	.loc 1 370 0 discriminator 2
	eor	r9, r9, sl
	.loc 1 371 0 discriminator 2
	ldrb	sl, [r2, #1292]	@ zero_extendqisi2
	.loc 1 366 0 discriminator 2
	strb	r5, [sp, #42]
	.loc 1 371 0 discriminator 2
	ldrb	r5, [r3, #1036]	@ zero_extendqisi2
	eor	r8, r8, sl
	.loc 1 369 0 discriminator 2
	ldrb	sl, [r3, #1804]	@ zero_extendqisi2
	.loc 1 367 0 discriminator 2
	strb	r7, [sp, #31]
	.loc 1 371 0 discriminator 2
	eor	r8, r8, r5
	.loc 1 370 0 discriminator 2
	ldrb	r7, [r3, #1548]	@ zero_extendqisi2
	.loc 1 371 0 discriminator 2
	add	r8, fp, r8
	.loc 1 369 0 discriminator 2
	eor	r6, r6, sl
	.loc 1 372 0 discriminator 2
	ldrb	r1, [r1, #1036]	@ zero_extendqisi2
	.loc 1 370 0 discriminator 2
	eor	r9, r9, r7
	.loc 1 369 0 discriminator 2
	add	r6, fp, r6
	.loc 1 371 0 discriminator 2
	ldrb	ip, [r8, #780]	@ zero_extendqisi2
	.loc 1 370 0 discriminator 2
	add	r9, fp, r9
	.loc 1 369 0 discriminator 2
	ldrb	r6, [r6, #780]	@ zero_extendqisi2
.LBE223:
.LBE253:
.LBB254:
.LBB207:
	.loc 2 51 0 discriminator 2
	ubfx	r7, r4, #8, #8
.LVL98:
.LBE207:
.LBE254:
.LBB255:
.LBB224:
	.loc 1 370 0 discriminator 2
	ldrb	r5, [r9, #780]	@ zero_extendqisi2
	.loc 1 374 0 discriminator 2
	add	r7, fp, r7
.LVL99:
	.loc 1 371 0 discriminator 2
	strb	ip, [sp, #30]
	.loc 1 372 0 discriminator 2
	ldrb	ip, [r0, #1548]	@ zero_extendqisi2
	ldrb	r8, [r2, #1804]	@ zero_extendqisi2
	.loc 1 369 0 discriminator 2
	strb	r6, [sp, #36]
	.loc 1 374 0 discriminator 2
	uxtab	r6, fp, r4
	.loc 1 370 0 discriminator 2
	strb	r5, [sp, #41]
	.loc 1 372 0 discriminator 2
	eor	ip, ip, r1
.LBE224:
.LBE255:
.LBB256:
.LBB208:
	.loc 2 51 0 discriminator 2
	ubfx	r5, r4, #16, #8
.LVL100:
.LBE208:
.LBE256:
.LBB257:
.LBB225:
	.loc 1 372 0 discriminator 2
	ldrb	r3, [r3, #1292]	@ zero_extendqisi2
	.loc 1 374 0 discriminator 2
	add	r5, fp, r5
.LVL101:
	ldrb	r2, [r6, #1292]	@ zero_extendqisi2
	ldrb	r0, [r7, #1036]	@ zero_extendqisi2
	.loc 1 372 0 discriminator 2
	eor	ip, ip, r8
	.loc 1 375 0 discriminator 2
	ldrb	r1, [r7, #1292]	@ zero_extendqisi2
	.loc 1 372 0 discriminator 2
	eor	r3, ip, r3
	.loc 1 375 0 discriminator 2
	ldrb	r8, [r6, #1804]	@ zero_extendqisi2
	.loc 1 374 0 discriminator 2
	eors	r0, r0, r2
	.loc 1 377 0 discriminator 2
	ldrb	ip, [r7, #1548]	@ zero_extendqisi2
	.loc 1 374 0 discriminator 2
	add	r4, fp, r4, lsr #24
.LVL102:
	.loc 1 376 0 discriminator 2
	ldrb	r2, [r7, #1804]	@ zero_extendqisi2
	.loc 1 375 0 discriminator 2
	eor	r1, r1, r8
	.loc 1 372 0 discriminator 2
	add	r7, fp, r3
	.loc 1 376 0 discriminator 2
	ldrb	r8, [r6, #1548]	@ zero_extendqisi2
	.loc 1 377 0 discriminator 2
	ldrb	r3, [r6, #1036]	@ zero_extendqisi2
	.loc 1 374 0 discriminator 2
	ldrb	r6, [r5, #1548]	@ zero_extendqisi2
	.loc 1 376 0 discriminator 2
	eor	r2, r2, r8
	.loc 1 377 0 discriminator 2
	eor	r3, ip, r3
	.loc 1 375 0 discriminator 2
	ldrb	ip, [r5, #1036]	@ zero_extendqisi2
	.loc 1 374 0 discriminator 2
	eors	r0, r0, r6
	.loc 1 376 0 discriminator 2
	ldrb	r6, [r5, #1292]	@ zero_extendqisi2
	.loc 1 377 0 discriminator 2
	ldrb	r5, [r5, #1804]	@ zero_extendqisi2
	.loc 1 375 0 discriminator 2
	eor	r1, r1, ip
	.loc 1 374 0 discriminator 2
	ldrb	ip, [r4, #1804]	@ zero_extendqisi2
	.loc 1 376 0 discriminator 2
	eors	r2, r2, r6
	.loc 1 377 0 discriminator 2
	eors	r3, r3, r5
	.loc 1 376 0 discriminator 2
	ldrb	r5, [r4, #1036]	@ zero_extendqisi2
	.loc 1 374 0 discriminator 2
	eor	r0, r0, ip
	.loc 1 375 0 discriminator 2
	ldrb	r6, [r4, #1548]	@ zero_extendqisi2
	.loc 1 376 0 discriminator 2
	eors	r2, r2, r5
	.loc 1 377 0 discriminator 2
	ldrb	r4, [r4, #1292]	@ zero_extendqisi2
	.loc 1 374 0 discriminator 2
	add	r0, fp, r0
	.loc 1 376 0 discriminator 2
	add	r2, fp, r2
	.loc 1 377 0 discriminator 2
	eors	r3, r3, r4
	.loc 1 375 0 discriminator 2
	eors	r1, r1, r6
	.loc 1 374 0 discriminator 2
	ldrb	r0, [r0, #780]	@ zero_extendqisi2
	.loc 1 375 0 discriminator 2
	add	r1, fp, r1
	.loc 1 376 0 discriminator 2
	ldrb	r2, [r2, #780]	@ zero_extendqisi2
	.loc 1 377 0 discriminator 2
	add	r3, fp, r3
	.loc 1 372 0 discriminator 2
	ldrb	r4, [r7, #780]	@ zero_extendqisi2
	.loc 1 375 0 discriminator 2
	ldrb	r1, [r1, #780]	@ zero_extendqisi2
	.loc 1 377 0 discriminator 2
	ldrb	r3, [r3, #780]	@ zero_extendqisi2
	.loc 1 372 0 discriminator 2
	strb	r4, [sp, #35]
	.loc 1 374 0 discriminator 2
	strb	r0, [sp, #40]
	.loc 1 376 0 discriminator 2
	strb	r2, [sp, #34]
.LBE225:
.LBE257:
	.loc 1 389 0 discriminator 2
	ldr	r0, [sp, #4]
	ldr	r2, [sp, #12]
.LBB258:
.LBB226:
	.loc 1 375 0 discriminator 2
	strb	r1, [sp, #29]
.LBE226:
.LBE258:
	.loc 1 389 0 discriminator 2
	cmp	r0, r2
.LBB259:
.LBB227:
	.loc 1 377 0 discriminator 2
	strb	r3, [sp, #39]
.LBE227:
.LBE259:
	.loc 1 389 0 discriminator 2
	bne	.L24
.LBB260:
.LBB261:
	.loc 1 248 0
	ldr	r4, [sp, #16]
.LBE261:
.LBE260:
	.loc 1 395 0
	movw	r5, #:lower16:__stack_chk_guard
.LBB267:
.LBB262:
	.loc 1 248 0
	ldr	r1, [r0, #0]
.LBE262:
.LBE267:
	.loc 1 395 0
	movt	r5, #:upper16:__stack_chk_guard
.LBB268:
.LBB263:
	.loc 1 248 0
	ldr	r2, [sp, #28]
	mov	r6, r0
	ldr	r3, [sp, #32]
	eors	r2, r2, r1
	str	r2, [r4, #0]
.LVL103:
	ldr	r1, [r0, #4]
	ldr	r2, [sp, #36]
	eors	r3, r3, r1
	str	r3, [r4, #4]
.LVL104:
	ldr	r1, [r0, #8]
.LBE263:
.LBE268:
	.loc 1 395 0
	ldr	r0, [sp, #44]
.LBB269:
.LBB264:
	.loc 1 248 0
	eors	r2, r2, r1
	str	r2, [r4, #8]
.LVL105:
.LBE264:
.LBE269:
	.loc 1 395 0
	ldr	r2, [r5, #0]
.LBB270:
.LBB265:
	.loc 1 248 0
	ldr	r1, [r6, #12]
	ldr	r3, [sp, #40]
.LBE265:
.LBE270:
	.loc 1 395 0
	cmp	r0, r2
.LBB271:
.LBB266:
	.loc 1 248 0
	eor	r3, r1, r3
	str	r3, [r4, #12]
.LVL106:
.LBE266:
.LBE271:
	.loc 1 395 0
	bne	.L27
	add	sp, sp, #52
	pop	{r4, r5, r6, r7, r8, r9, sl, fp, pc}
.L27:
	bl	__stack_chk_fail
.LVL107:
.L29:
	.align	2
.L28:
	.word	.LANCHOR0
	.cfi_endproc
.LFE31:
	.size	aesc_decrypt, .-aesc_decrypt
	.section	.rodata
	.align	2
.LANCHOR0 = . + 0
	.type	__rcon, %object
	.size	__rcon, 11
__rcon:
	.byte	0
	.byte	1
	.byte	2
	.byte	4
	.byte	8
	.byte	16
	.byte	32
	.byte	64
	.byte	-128
	.byte	27
	.byte	54
	.space	1
	.type	__sbox, %object
	.size	__sbox, 256
__sbox:
	.byte	99
	.byte	124
	.byte	119
	.byte	123
	.byte	-14
	.byte	107
	.byte	111
	.byte	-59
	.byte	48
	.byte	1
	.byte	103
	.byte	43
	.byte	-2
	.byte	-41
	.byte	-85
	.byte	118
	.byte	-54
	.byte	-126
	.byte	-55
	.byte	125
	.byte	-6
	.byte	89
	.byte	71
	.byte	-16
	.byte	-83
	.byte	-44
	.byte	-94
	.byte	-81
	.byte	-100
	.byte	-92
	.byte	114
	.byte	-64
	.byte	-73
	.byte	-3
	.byte	-109
	.byte	38
	.byte	54
	.byte	63
	.byte	-9
	.byte	-52
	.byte	52
	.byte	-91
	.byte	-27
	.byte	-15
	.byte	113
	.byte	-40
	.byte	49
	.byte	21
	.byte	4
	.byte	-57
	.byte	35
	.byte	-61
	.byte	24
	.byte	-106
	.byte	5
	.byte	-102
	.byte	7
	.byte	18
	.byte	-128
	.byte	-30
	.byte	-21
	.byte	39
	.byte	-78
	.byte	117
	.byte	9
	.byte	-125
	.byte	44
	.byte	26
	.byte	27
	.byte	110
	.byte	90
	.byte	-96
	.byte	82
	.byte	59
	.byte	-42
	.byte	-77
	.byte	41
	.byte	-29
	.byte	47
	.byte	-124
	.byte	83
	.byte	-47
	.byte	0
	.byte	-19
	.byte	32
	.byte	-4
	.byte	-79
	.byte	91
	.byte	106
	.byte	-53
	.byte	-66
	.byte	57
	.byte	74
	.byte	76
	.byte	88
	.byte	-49
	.byte	-48
	.byte	-17
	.byte	-86
	.byte	-5
	.byte	67
	.byte	77
	.byte	51
	.byte	-123
	.byte	69
	.byte	-7
	.byte	2
	.byte	127
	.byte	80
	.byte	60
	.byte	-97
	.byte	-88
	.byte	81
	.byte	-93
	.byte	64
	.byte	-113
	.byte	-110
	.byte	-99
	.byte	56
	.byte	-11
	.byte	-68
	.byte	-74
	.byte	-38
	.byte	33
	.byte	16
	.byte	-1
	.byte	-13
	.byte	-46
	.byte	-51
	.byte	12
	.byte	19
	.byte	-20
	.byte	95
	.byte	-105
	.byte	68
	.byte	23
	.byte	-60
	.byte	-89
	.byte	126
	.byte	61
	.byte	100
	.byte	93
	.byte	25
	.byte	115
	.byte	96
	.byte	-127
	.byte	79
	.byte	-36
	.byte	34
	.byte	42
	.byte	-112
	.byte	-120
	.byte	70
	.byte	-18
	.byte	-72
	.byte	20
	.byte	-34
	.byte	94
	.byte	11
	.byte	-37
	.byte	-32
	.byte	50
	.byte	58
	.byte	10
	.byte	73
	.byte	6
	.byte	36
	.byte	92
	.byte	-62
	.byte	-45
	.byte	-84
	.byte	98
	.byte	-111
	.byte	-107
	.byte	-28
	.byte	121
	.byte	-25
	.byte	-56
	.byte	55
	.byte	109
	.byte	-115
	.byte	-43
	.byte	78
	.byte	-87
	.byte	108
	.byte	86
	.byte	-12
	.byte	-22
	.byte	101
	.byte	122
	.byte	-82
	.byte	8
	.byte	-70
	.byte	120
	.byte	37
	.byte	46
	.byte	28
	.byte	-90
	.byte	-76
	.byte	-58
	.byte	-24
	.byte	-35
	.byte	116
	.byte	31
	.byte	75
	.byte	-67
	.byte	-117
	.byte	-118
	.byte	112
	.byte	62
	.byte	-75
	.byte	102
	.byte	72
	.byte	3
	.byte	-10
	.byte	14
	.byte	97
	.byte	53
	.byte	87
	.byte	-71
	.byte	-122
	.byte	-63
	.byte	29
	.byte	-98
	.byte	-31
	.byte	-8
	.byte	-104
	.byte	17
	.byte	105
	.byte	-39
	.byte	-114
	.byte	-108
	.byte	-101
	.byte	30
	.byte	-121
	.byte	-23
	.byte	-50
	.byte	85
	.byte	40
	.byte	-33
	.byte	-116
	.byte	-95
	.byte	-119
	.byte	13
	.byte	-65
	.byte	-26
	.byte	66
	.byte	104
	.byte	65
	.byte	-103
	.byte	45
	.byte	15
	.byte	-80
	.byte	84
	.byte	-69
	.byte	22
	.type	__xtime3_sbox, %object
	.size	__xtime3_sbox, 256
__xtime3_sbox:
	.byte	-91
	.byte	-124
	.byte	-103
	.byte	-115
	.byte	13
	.byte	-67
	.byte	-79
	.byte	84
	.byte	80
	.byte	3
	.byte	-87
	.byte	125
	.byte	25
	.byte	98
	.byte	-26
	.byte	-102
	.byte	69
	.byte	-99
	.byte	64
	.byte	-121
	.byte	21
	.byte	-21
	.byte	-55
	.byte	11
	.byte	-20
	.byte	103
	.byte	-3
	.byte	-22
	.byte	-65
	.byte	-9
	.byte	-106
	.byte	91
	.byte	-62
	.byte	28
	.byte	-82
	.byte	106
	.byte	90
	.byte	65
	.byte	2
	.byte	79
	.byte	92
	.byte	-12
	.byte	52
	.byte	8
	.byte	-109
	.byte	115
	.byte	83
	.byte	63
	.byte	12
	.byte	82
	.byte	101
	.byte	94
	.byte	40
	.byte	-95
	.byte	15
	.byte	-75
	.byte	9
	.byte	54
	.byte	-101
	.byte	61
	.byte	38
	.byte	105
	.byte	-51
	.byte	-97
	.byte	27
	.byte	-98
	.byte	116
	.byte	46
	.byte	45
	.byte	-78
	.byte	-18
	.byte	-5
	.byte	-10
	.byte	77
	.byte	97
	.byte	-50
	.byte	123
	.byte	62
	.byte	113
	.byte	-105
	.byte	-11
	.byte	104
	.byte	0
	.byte	44
	.byte	96
	.byte	31
	.byte	-56
	.byte	-19
	.byte	-66
	.byte	70
	.byte	-39
	.byte	75
	.byte	-34
	.byte	-44
	.byte	-24
	.byte	74
	.byte	107
	.byte	42
	.byte	-27
	.byte	22
	.byte	-59
	.byte	-41
	.byte	85
	.byte	-108
	.byte	-49
	.byte	16
	.byte	6
	.byte	-127
	.byte	-16
	.byte	68
	.byte	-70
	.byte	-29
	.byte	-13
	.byte	-2
	.byte	-64
	.byte	-118
	.byte	-83
	.byte	-68
	.byte	72
	.byte	4
	.byte	-33
	.byte	-63
	.byte	117
	.byte	99
	.byte	48
	.byte	26
	.byte	14
	.byte	109
	.byte	76
	.byte	20
	.byte	53
	.byte	47
	.byte	-31
	.byte	-94
	.byte	-52
	.byte	57
	.byte	87
	.byte	-14
	.byte	-126
	.byte	71
	.byte	-84
	.byte	-25
	.byte	43
	.byte	-107
	.byte	-96
	.byte	-104
	.byte	-47
	.byte	127
	.byte	102
	.byte	126
	.byte	-85
	.byte	-125
	.byte	-54
	.byte	41
	.byte	-45
	.byte	60
	.byte	121
	.byte	-30
	.byte	29
	.byte	118
	.byte	59
	.byte	86
	.byte	78
	.byte	30
	.byte	-37
	.byte	10
	.byte	108
	.byte	-28
	.byte	93
	.byte	110
	.byte	-17
	.byte	-90
	.byte	-88
	.byte	-92
	.byte	55
	.byte	-117
	.byte	50
	.byte	67
	.byte	89
	.byte	-73
	.byte	-116
	.byte	100
	.byte	-46
	.byte	-32
	.byte	-76
	.byte	-6
	.byte	7
	.byte	37
	.byte	-81
	.byte	-114
	.byte	-23
	.byte	24
	.byte	-43
	.byte	-120
	.byte	111
	.byte	114
	.byte	36
	.byte	-15
	.byte	-57
	.byte	81
	.byte	35
	.byte	124
	.byte	-100
	.byte	33
	.byte	-35
	.byte	-36
	.byte	-122
	.byte	-123
	.byte	-112
	.byte	66
	.byte	-60
	.byte	-86
	.byte	-40
	.byte	5
	.byte	1
	.byte	18
	.byte	-93
	.byte	95
	.byte	-7
	.byte	-48
	.byte	-111
	.byte	88
	.byte	39
	.byte	-71
	.byte	56
	.byte	19
	.byte	-77
	.byte	51
	.byte	-69
	.byte	112
	.byte	-119
	.byte	-89
	.byte	-74
	.byte	34
	.byte	-110
	.byte	32
	.byte	73
	.byte	-1
	.byte	120
	.byte	122
	.byte	-113
	.byte	-8
	.byte	-128
	.byte	23
	.byte	-38
	.byte	49
	.byte	-58
	.byte	-72
	.byte	-61
	.byte	-80
	.byte	119
	.byte	17
	.byte	-53
	.byte	-4
	.byte	-42
	.byte	58
	.type	__xtime2_sbox, %object
	.size	__xtime2_sbox, 256
__xtime2_sbox:
	.byte	-58
	.byte	-8
	.byte	-18
	.byte	-10
	.byte	-1
	.byte	-42
	.byte	-34
	.byte	-111
	.byte	96
	.byte	2
	.byte	-50
	.byte	86
	.byte	-25
	.byte	-75
	.byte	77
	.byte	-20
	.byte	-113
	.byte	31
	.byte	-119
	.byte	-6
	.byte	-17
	.byte	-78
	.byte	-114
	.byte	-5
	.byte	65
	.byte	-77
	.byte	95
	.byte	69
	.byte	35
	.byte	83
	.byte	-28
	.byte	-101
	.byte	117
	.byte	-31
	.byte	61
	.byte	76
	.byte	108
	.byte	126
	.byte	-11
	.byte	-125
	.byte	104
	.byte	81
	.byte	-47
	.byte	-7
	.byte	-30
	.byte	-85
	.byte	98
	.byte	42
	.byte	8
	.byte	-107
	.byte	70
	.byte	-99
	.byte	48
	.byte	55
	.byte	10
	.byte	47
	.byte	14
	.byte	36
	.byte	27
	.byte	-33
	.byte	-51
	.byte	78
	.byte	127
	.byte	-22
	.byte	18
	.byte	29
	.byte	88
	.byte	52
	.byte	54
	.byte	-36
	.byte	-76
	.byte	91
	.byte	-92
	.byte	118
	.byte	-73
	.byte	125
	.byte	82
	.byte	-35
	.byte	94
	.byte	19
	.byte	-90
	.byte	-71
	.byte	0
	.byte	-63
	.byte	64
	.byte	-29
	.byte	121
	.byte	-74
	.byte	-44
	.byte	-115
	.byte	103
	.byte	114
	.byte	-108
	.byte	-104
	.byte	-80
	.byte	-123
	.byte	-69
	.byte	-59
	.byte	79
	.byte	-19
	.byte	-122
	.byte	-102
	.byte	102
	.byte	17
	.byte	-118
	.byte	-23
	.byte	4
	.byte	-2
	.byte	-96
	.byte	120
	.byte	37
	.byte	75
	.byte	-94
	.byte	93
	.byte	-128
	.byte	5
	.byte	63
	.byte	33
	.byte	112
	.byte	-15
	.byte	99
	.byte	119
	.byte	-81
	.byte	66
	.byte	32
	.byte	-27
	.byte	-3
	.byte	-65
	.byte	-127
	.byte	24
	.byte	38
	.byte	-61
	.byte	-66
	.byte	53
	.byte	-120
	.byte	46
	.byte	-109
	.byte	85
	.byte	-4
	.byte	122
	.byte	-56
	.byte	-70
	.byte	50
	.byte	-26
	.byte	-64
	.byte	25
	.byte	-98
	.byte	-93
	.byte	68
	.byte	84
	.byte	59
	.byte	11
	.byte	-116
	.byte	-57
	.byte	107
	.byte	40
	.byte	-89
	.byte	-68
	.byte	22
	.byte	-83
	.byte	-37
	.byte	100
	.byte	116
	.byte	20
	.byte	-110
	.byte	12
	.byte	72
	.byte	-72
	.byte	-97
	.byte	-67
	.byte	67
	.byte	-60
	.byte	57
	.byte	49
	.byte	-45
	.byte	-14
	.byte	-43
	.byte	-117
	.byte	110
	.byte	-38
	.byte	1
	.byte	-79
	.byte	-100
	.byte	73
	.byte	-40
	.byte	-84
	.byte	-13
	.byte	-49
	.byte	-54
	.byte	-12
	.byte	71
	.byte	16
	.byte	111
	.byte	-16
	.byte	74
	.byte	92
	.byte	56
	.byte	87
	.byte	115
	.byte	-105
	.byte	-53
	.byte	-95
	.byte	-24
	.byte	62
	.byte	-106
	.byte	97
	.byte	13
	.byte	15
	.byte	-32
	.byte	124
	.byte	113
	.byte	-52
	.byte	-112
	.byte	6
	.byte	-9
	.byte	28
	.byte	-62
	.byte	106
	.byte	-82
	.byte	105
	.byte	23
	.byte	-103
	.byte	58
	.byte	39
	.byte	-39
	.byte	-21
	.byte	43
	.byte	34
	.byte	-46
	.byte	-87
	.byte	7
	.byte	51
	.byte	45
	.byte	60
	.byte	21
	.byte	-55
	.byte	-121
	.byte	-86
	.byte	80
	.byte	-91
	.byte	3
	.byte	89
	.byte	9
	.byte	26
	.byte	101
	.byte	-41
	.byte	-124
	.byte	-48
	.byte	-126
	.byte	41
	.byte	90
	.byte	30
	.byte	123
	.byte	-88
	.byte	109
	.byte	44
	.type	__isbox, %object
	.size	__isbox, 256
__isbox:
	.byte	82
	.byte	9
	.byte	106
	.byte	-43
	.byte	48
	.byte	54
	.byte	-91
	.byte	56
	.byte	-65
	.byte	64
	.byte	-93
	.byte	-98
	.byte	-127
	.byte	-13
	.byte	-41
	.byte	-5
	.byte	124
	.byte	-29
	.byte	57
	.byte	-126
	.byte	-101
	.byte	47
	.byte	-1
	.byte	-121
	.byte	52
	.byte	-114
	.byte	67
	.byte	68
	.byte	-60
	.byte	-34
	.byte	-23
	.byte	-53
	.byte	84
	.byte	123
	.byte	-108
	.byte	50
	.byte	-90
	.byte	-62
	.byte	35
	.byte	61
	.byte	-18
	.byte	76
	.byte	-107
	.byte	11
	.byte	66
	.byte	-6
	.byte	-61
	.byte	78
	.byte	8
	.byte	46
	.byte	-95
	.byte	102
	.byte	40
	.byte	-39
	.byte	36
	.byte	-78
	.byte	118
	.byte	91
	.byte	-94
	.byte	73
	.byte	109
	.byte	-117
	.byte	-47
	.byte	37
	.byte	114
	.byte	-8
	.byte	-10
	.byte	100
	.byte	-122
	.byte	104
	.byte	-104
	.byte	22
	.byte	-44
	.byte	-92
	.byte	92
	.byte	-52
	.byte	93
	.byte	101
	.byte	-74
	.byte	-110
	.byte	108
	.byte	112
	.byte	72
	.byte	80
	.byte	-3
	.byte	-19
	.byte	-71
	.byte	-38
	.byte	94
	.byte	21
	.byte	70
	.byte	87
	.byte	-89
	.byte	-115
	.byte	-99
	.byte	-124
	.byte	-112
	.byte	-40
	.byte	-85
	.byte	0
	.byte	-116
	.byte	-68
	.byte	-45
	.byte	10
	.byte	-9
	.byte	-28
	.byte	88
	.byte	5
	.byte	-72
	.byte	-77
	.byte	69
	.byte	6
	.byte	-48
	.byte	44
	.byte	30
	.byte	-113
	.byte	-54
	.byte	63
	.byte	15
	.byte	2
	.byte	-63
	.byte	-81
	.byte	-67
	.byte	3
	.byte	1
	.byte	19
	.byte	-118
	.byte	107
	.byte	58
	.byte	-111
	.byte	17
	.byte	65
	.byte	79
	.byte	103
	.byte	-36
	.byte	-22
	.byte	-105
	.byte	-14
	.byte	-49
	.byte	-50
	.byte	-16
	.byte	-76
	.byte	-26
	.byte	115
	.byte	-106
	.byte	-84
	.byte	116
	.byte	34
	.byte	-25
	.byte	-83
	.byte	53
	.byte	-123
	.byte	-30
	.byte	-7
	.byte	55
	.byte	-24
	.byte	28
	.byte	117
	.byte	-33
	.byte	110
	.byte	71
	.byte	-15
	.byte	26
	.byte	113
	.byte	29
	.byte	41
	.byte	-59
	.byte	-119
	.byte	111
	.byte	-73
	.byte	98
	.byte	14
	.byte	-86
	.byte	24
	.byte	-66
	.byte	27
	.byte	-4
	.byte	86
	.byte	62
	.byte	75
	.byte	-58
	.byte	-46
	.byte	121
	.byte	32
	.byte	-102
	.byte	-37
	.byte	-64
	.byte	-2
	.byte	120
	.byte	-51
	.byte	90
	.byte	-12
	.byte	31
	.byte	-35
	.byte	-88
	.byte	51
	.byte	-120
	.byte	7
	.byte	-57
	.byte	49
	.byte	-79
	.byte	18
	.byte	16
	.byte	89
	.byte	39
	.byte	-128
	.byte	-20
	.byte	95
	.byte	96
	.byte	81
	.byte	127
	.byte	-87
	.byte	25
	.byte	-75
	.byte	74
	.byte	13
	.byte	45
	.byte	-27
	.byte	122
	.byte	-97
	.byte	-109
	.byte	-55
	.byte	-100
	.byte	-17
	.byte	-96
	.byte	-32
	.byte	59
	.byte	77
	.byte	-82
	.byte	42
	.byte	-11
	.byte	-80
	.byte	-56
	.byte	-21
	.byte	-69
	.byte	60
	.byte	-125
	.byte	83
	.byte	-103
	.byte	97
	.byte	23
	.byte	43
	.byte	4
	.byte	126
	.byte	-70
	.byte	119
	.byte	-42
	.byte	38
	.byte	-31
	.byte	105
	.byte	20
	.byte	99
	.byte	85
	.byte	33
	.byte	12
	.byte	125
	.type	__xtimeb, %object
	.size	__xtimeb, 256
__xtimeb:
	.byte	0
	.byte	11
	.byte	22
	.byte	29
	.byte	44
	.byte	39
	.byte	58
	.byte	49
	.byte	88
	.byte	83
	.byte	78
	.byte	69
	.byte	116
	.byte	127
	.byte	98
	.byte	105
	.byte	-80
	.byte	-69
	.byte	-90
	.byte	-83
	.byte	-100
	.byte	-105
	.byte	-118
	.byte	-127
	.byte	-24
	.byte	-29
	.byte	-2
	.byte	-11
	.byte	-60
	.byte	-49
	.byte	-46
	.byte	-39
	.byte	123
	.byte	112
	.byte	109
	.byte	102
	.byte	87
	.byte	92
	.byte	65
	.byte	74
	.byte	35
	.byte	40
	.byte	53
	.byte	62
	.byte	15
	.byte	4
	.byte	25
	.byte	18
	.byte	-53
	.byte	-64
	.byte	-35
	.byte	-42
	.byte	-25
	.byte	-20
	.byte	-15
	.byte	-6
	.byte	-109
	.byte	-104
	.byte	-123
	.byte	-114
	.byte	-65
	.byte	-76
	.byte	-87
	.byte	-94
	.byte	-10
	.byte	-3
	.byte	-32
	.byte	-21
	.byte	-38
	.byte	-47
	.byte	-52
	.byte	-57
	.byte	-82
	.byte	-91
	.byte	-72
	.byte	-77
	.byte	-126
	.byte	-119
	.byte	-108
	.byte	-97
	.byte	70
	.byte	77
	.byte	80
	.byte	91
	.byte	106
	.byte	97
	.byte	124
	.byte	119
	.byte	30
	.byte	21
	.byte	8
	.byte	3
	.byte	50
	.byte	57
	.byte	36
	.byte	47
	.byte	-115
	.byte	-122
	.byte	-101
	.byte	-112
	.byte	-95
	.byte	-86
	.byte	-73
	.byte	-68
	.byte	-43
	.byte	-34
	.byte	-61
	.byte	-56
	.byte	-7
	.byte	-14
	.byte	-17
	.byte	-28
	.byte	61
	.byte	54
	.byte	43
	.byte	32
	.byte	17
	.byte	26
	.byte	7
	.byte	12
	.byte	101
	.byte	110
	.byte	115
	.byte	120
	.byte	73
	.byte	66
	.byte	95
	.byte	84
	.byte	-9
	.byte	-4
	.byte	-31
	.byte	-22
	.byte	-37
	.byte	-48
	.byte	-51
	.byte	-58
	.byte	-81
	.byte	-92
	.byte	-71
	.byte	-78
	.byte	-125
	.byte	-120
	.byte	-107
	.byte	-98
	.byte	71
	.byte	76
	.byte	81
	.byte	90
	.byte	107
	.byte	96
	.byte	125
	.byte	118
	.byte	31
	.byte	20
	.byte	9
	.byte	2
	.byte	51
	.byte	56
	.byte	37
	.byte	46
	.byte	-116
	.byte	-121
	.byte	-102
	.byte	-111
	.byte	-96
	.byte	-85
	.byte	-74
	.byte	-67
	.byte	-44
	.byte	-33
	.byte	-62
	.byte	-55
	.byte	-8
	.byte	-13
	.byte	-18
	.byte	-27
	.byte	60
	.byte	55
	.byte	42
	.byte	33
	.byte	16
	.byte	27
	.byte	6
	.byte	13
	.byte	100
	.byte	111
	.byte	114
	.byte	121
	.byte	72
	.byte	67
	.byte	94
	.byte	85
	.byte	1
	.byte	10
	.byte	23
	.byte	28
	.byte	45
	.byte	38
	.byte	59
	.byte	48
	.byte	89
	.byte	82
	.byte	79
	.byte	68
	.byte	117
	.byte	126
	.byte	99
	.byte	104
	.byte	-79
	.byte	-70
	.byte	-89
	.byte	-84
	.byte	-99
	.byte	-106
	.byte	-117
	.byte	-128
	.byte	-23
	.byte	-30
	.byte	-1
	.byte	-12
	.byte	-59
	.byte	-50
	.byte	-45
	.byte	-40
	.byte	122
	.byte	113
	.byte	108
	.byte	103
	.byte	86
	.byte	93
	.byte	64
	.byte	75
	.byte	34
	.byte	41
	.byte	52
	.byte	63
	.byte	14
	.byte	5
	.byte	24
	.byte	19
	.byte	-54
	.byte	-63
	.byte	-36
	.byte	-41
	.byte	-26
	.byte	-19
	.byte	-16
	.byte	-5
	.byte	-110
	.byte	-103
	.byte	-124
	.byte	-113
	.byte	-66
	.byte	-75
	.byte	-88
	.byte	-93
	.type	__xtimee, %object
	.size	__xtimee, 256
__xtimee:
	.byte	0
	.byte	14
	.byte	28
	.byte	18
	.byte	56
	.byte	54
	.byte	36
	.byte	42
	.byte	112
	.byte	126
	.byte	108
	.byte	98
	.byte	72
	.byte	70
	.byte	84
	.byte	90
	.byte	-32
	.byte	-18
	.byte	-4
	.byte	-14
	.byte	-40
	.byte	-42
	.byte	-60
	.byte	-54
	.byte	-112
	.byte	-98
	.byte	-116
	.byte	-126
	.byte	-88
	.byte	-90
	.byte	-76
	.byte	-70
	.byte	-37
	.byte	-43
	.byte	-57
	.byte	-55
	.byte	-29
	.byte	-19
	.byte	-1
	.byte	-15
	.byte	-85
	.byte	-91
	.byte	-73
	.byte	-71
	.byte	-109
	.byte	-99
	.byte	-113
	.byte	-127
	.byte	59
	.byte	53
	.byte	39
	.byte	41
	.byte	3
	.byte	13
	.byte	31
	.byte	17
	.byte	75
	.byte	69
	.byte	87
	.byte	89
	.byte	115
	.byte	125
	.byte	111
	.byte	97
	.byte	-83
	.byte	-93
	.byte	-79
	.byte	-65
	.byte	-107
	.byte	-101
	.byte	-119
	.byte	-121
	.byte	-35
	.byte	-45
	.byte	-63
	.byte	-49
	.byte	-27
	.byte	-21
	.byte	-7
	.byte	-9
	.byte	77
	.byte	67
	.byte	81
	.byte	95
	.byte	117
	.byte	123
	.byte	105
	.byte	103
	.byte	61
	.byte	51
	.byte	33
	.byte	47
	.byte	5
	.byte	11
	.byte	25
	.byte	23
	.byte	118
	.byte	120
	.byte	106
	.byte	100
	.byte	78
	.byte	64
	.byte	82
	.byte	92
	.byte	6
	.byte	8
	.byte	26
	.byte	20
	.byte	62
	.byte	48
	.byte	34
	.byte	44
	.byte	-106
	.byte	-104
	.byte	-118
	.byte	-124
	.byte	-82
	.byte	-96
	.byte	-78
	.byte	-68
	.byte	-26
	.byte	-24
	.byte	-6
	.byte	-12
	.byte	-34
	.byte	-48
	.byte	-62
	.byte	-52
	.byte	65
	.byte	79
	.byte	93
	.byte	83
	.byte	121
	.byte	119
	.byte	101
	.byte	107
	.byte	49
	.byte	63
	.byte	45
	.byte	35
	.byte	9
	.byte	7
	.byte	21
	.byte	27
	.byte	-95
	.byte	-81
	.byte	-67
	.byte	-77
	.byte	-103
	.byte	-105
	.byte	-123
	.byte	-117
	.byte	-47
	.byte	-33
	.byte	-51
	.byte	-61
	.byte	-23
	.byte	-25
	.byte	-11
	.byte	-5
	.byte	-102
	.byte	-108
	.byte	-122
	.byte	-120
	.byte	-94
	.byte	-84
	.byte	-66
	.byte	-80
	.byte	-22
	.byte	-28
	.byte	-10
	.byte	-8
	.byte	-46
	.byte	-36
	.byte	-50
	.byte	-64
	.byte	122
	.byte	116
	.byte	102
	.byte	104
	.byte	66
	.byte	76
	.byte	94
	.byte	80
	.byte	10
	.byte	4
	.byte	22
	.byte	24
	.byte	50
	.byte	60
	.byte	46
	.byte	32
	.byte	-20
	.byte	-30
	.byte	-16
	.byte	-2
	.byte	-44
	.byte	-38
	.byte	-56
	.byte	-58
	.byte	-100
	.byte	-110
	.byte	-128
	.byte	-114
	.byte	-92
	.byte	-86
	.byte	-72
	.byte	-74
	.byte	12
	.byte	2
	.byte	16
	.byte	30
	.byte	52
	.byte	58
	.byte	40
	.byte	38
	.byte	124
	.byte	114
	.byte	96
	.byte	110
	.byte	68
	.byte	74
	.byte	88
	.byte	86
	.byte	55
	.byte	57
	.byte	43
	.byte	37
	.byte	15
	.byte	1
	.byte	19
	.byte	29
	.byte	71
	.byte	73
	.byte	91
	.byte	85
	.byte	127
	.byte	113
	.byte	99
	.byte	109
	.byte	-41
	.byte	-39
	.byte	-53
	.byte	-59
	.byte	-17
	.byte	-31
	.byte	-13
	.byte	-3
	.byte	-89
	.byte	-87
	.byte	-69
	.byte	-75
	.byte	-97
	.byte	-111
	.byte	-125
	.byte	-115
	.type	__xtimed, %object
	.size	__xtimed, 256
__xtimed:
	.byte	0
	.byte	13
	.byte	26
	.byte	23
	.byte	52
	.byte	57
	.byte	46
	.byte	35
	.byte	104
	.byte	101
	.byte	114
	.byte	127
	.byte	92
	.byte	81
	.byte	70
	.byte	75
	.byte	-48
	.byte	-35
	.byte	-54
	.byte	-57
	.byte	-28
	.byte	-23
	.byte	-2
	.byte	-13
	.byte	-72
	.byte	-75
	.byte	-94
	.byte	-81
	.byte	-116
	.byte	-127
	.byte	-106
	.byte	-101
	.byte	-69
	.byte	-74
	.byte	-95
	.byte	-84
	.byte	-113
	.byte	-126
	.byte	-107
	.byte	-104
	.byte	-45
	.byte	-34
	.byte	-55
	.byte	-60
	.byte	-25
	.byte	-22
	.byte	-3
	.byte	-16
	.byte	107
	.byte	102
	.byte	113
	.byte	124
	.byte	95
	.byte	82
	.byte	69
	.byte	72
	.byte	3
	.byte	14
	.byte	25
	.byte	20
	.byte	55
	.byte	58
	.byte	45
	.byte	32
	.byte	109
	.byte	96
	.byte	119
	.byte	122
	.byte	89
	.byte	84
	.byte	67
	.byte	78
	.byte	5
	.byte	8
	.byte	31
	.byte	18
	.byte	49
	.byte	60
	.byte	43
	.byte	38
	.byte	-67
	.byte	-80
	.byte	-89
	.byte	-86
	.byte	-119
	.byte	-124
	.byte	-109
	.byte	-98
	.byte	-43
	.byte	-40
	.byte	-49
	.byte	-62
	.byte	-31
	.byte	-20
	.byte	-5
	.byte	-10
	.byte	-42
	.byte	-37
	.byte	-52
	.byte	-63
	.byte	-30
	.byte	-17
	.byte	-8
	.byte	-11
	.byte	-66
	.byte	-77
	.byte	-92
	.byte	-87
	.byte	-118
	.byte	-121
	.byte	-112
	.byte	-99
	.byte	6
	.byte	11
	.byte	28
	.byte	17
	.byte	50
	.byte	63
	.byte	40
	.byte	37
	.byte	110
	.byte	99
	.byte	116
	.byte	121
	.byte	90
	.byte	87
	.byte	64
	.byte	77
	.byte	-38
	.byte	-41
	.byte	-64
	.byte	-51
	.byte	-18
	.byte	-29
	.byte	-12
	.byte	-7
	.byte	-78
	.byte	-65
	.byte	-88
	.byte	-91
	.byte	-122
	.byte	-117
	.byte	-100
	.byte	-111
	.byte	10
	.byte	7
	.byte	16
	.byte	29
	.byte	62
	.byte	51
	.byte	36
	.byte	41
	.byte	98
	.byte	111
	.byte	120
	.byte	117
	.byte	86
	.byte	91
	.byte	76
	.byte	65
	.byte	97
	.byte	108
	.byte	123
	.byte	118
	.byte	85
	.byte	88
	.byte	79
	.byte	66
	.byte	9
	.byte	4
	.byte	19
	.byte	30
	.byte	61
	.byte	48
	.byte	39
	.byte	42
	.byte	-79
	.byte	-68
	.byte	-85
	.byte	-90
	.byte	-123
	.byte	-120
	.byte	-97
	.byte	-110
	.byte	-39
	.byte	-44
	.byte	-61
	.byte	-50
	.byte	-19
	.byte	-32
	.byte	-9
	.byte	-6
	.byte	-73
	.byte	-70
	.byte	-83
	.byte	-96
	.byte	-125
	.byte	-114
	.byte	-103
	.byte	-108
	.byte	-33
	.byte	-46
	.byte	-59
	.byte	-56
	.byte	-21
	.byte	-26
	.byte	-15
	.byte	-4
	.byte	103
	.byte	106
	.byte	125
	.byte	112
	.byte	83
	.byte	94
	.byte	73
	.byte	68
	.byte	15
	.byte	2
	.byte	21
	.byte	24
	.byte	59
	.byte	54
	.byte	33
	.byte	44
	.byte	12
	.byte	1
	.byte	22
	.byte	27
	.byte	56
	.byte	53
	.byte	34
	.byte	47
	.byte	100
	.byte	105
	.byte	126
	.byte	115
	.byte	80
	.byte	93
	.byte	74
	.byte	71
	.byte	-36
	.byte	-47
	.byte	-58
	.byte	-53
	.byte	-24
	.byte	-27
	.byte	-14
	.byte	-1
	.byte	-76
	.byte	-71
	.byte	-82
	.byte	-93
	.byte	-128
	.byte	-115
	.byte	-102
	.byte	-105
	.type	__xtime9, %object
	.size	__xtime9, 256
__xtime9:
	.byte	0
	.byte	9
	.byte	18
	.byte	27
	.byte	36
	.byte	45
	.byte	54
	.byte	63
	.byte	72
	.byte	65
	.byte	90
	.byte	83
	.byte	108
	.byte	101
	.byte	126
	.byte	119
	.byte	-112
	.byte	-103
	.byte	-126
	.byte	-117
	.byte	-76
	.byte	-67
	.byte	-90
	.byte	-81
	.byte	-40
	.byte	-47
	.byte	-54
	.byte	-61
	.byte	-4
	.byte	-11
	.byte	-18
	.byte	-25
	.byte	59
	.byte	50
	.byte	41
	.byte	32
	.byte	31
	.byte	22
	.byte	13
	.byte	4
	.byte	115
	.byte	122
	.byte	97
	.byte	104
	.byte	87
	.byte	94
	.byte	69
	.byte	76
	.byte	-85
	.byte	-94
	.byte	-71
	.byte	-80
	.byte	-113
	.byte	-122
	.byte	-99
	.byte	-108
	.byte	-29
	.byte	-22
	.byte	-15
	.byte	-8
	.byte	-57
	.byte	-50
	.byte	-43
	.byte	-36
	.byte	118
	.byte	127
	.byte	100
	.byte	109
	.byte	82
	.byte	91
	.byte	64
	.byte	73
	.byte	62
	.byte	55
	.byte	44
	.byte	37
	.byte	26
	.byte	19
	.byte	8
	.byte	1
	.byte	-26
	.byte	-17
	.byte	-12
	.byte	-3
	.byte	-62
	.byte	-53
	.byte	-48
	.byte	-39
	.byte	-82
	.byte	-89
	.byte	-68
	.byte	-75
	.byte	-118
	.byte	-125
	.byte	-104
	.byte	-111
	.byte	77
	.byte	68
	.byte	95
	.byte	86
	.byte	105
	.byte	96
	.byte	123
	.byte	114
	.byte	5
	.byte	12
	.byte	23
	.byte	30
	.byte	33
	.byte	40
	.byte	51
	.byte	58
	.byte	-35
	.byte	-44
	.byte	-49
	.byte	-58
	.byte	-7
	.byte	-16
	.byte	-21
	.byte	-30
	.byte	-107
	.byte	-100
	.byte	-121
	.byte	-114
	.byte	-79
	.byte	-72
	.byte	-93
	.byte	-86
	.byte	-20
	.byte	-27
	.byte	-2
	.byte	-9
	.byte	-56
	.byte	-63
	.byte	-38
	.byte	-45
	.byte	-92
	.byte	-83
	.byte	-74
	.byte	-65
	.byte	-128
	.byte	-119
	.byte	-110
	.byte	-101
	.byte	124
	.byte	117
	.byte	110
	.byte	103
	.byte	88
	.byte	81
	.byte	74
	.byte	67
	.byte	52
	.byte	61
	.byte	38
	.byte	47
	.byte	16
	.byte	25
	.byte	2
	.byte	11
	.byte	-41
	.byte	-34
	.byte	-59
	.byte	-52
	.byte	-13
	.byte	-6
	.byte	-31
	.byte	-24
	.byte	-97
	.byte	-106
	.byte	-115
	.byte	-124
	.byte	-69
	.byte	-78
	.byte	-87
	.byte	-96
	.byte	71
	.byte	78
	.byte	85
	.byte	92
	.byte	99
	.byte	106
	.byte	113
	.byte	120
	.byte	15
	.byte	6
	.byte	29
	.byte	20
	.byte	43
	.byte	34
	.byte	57
	.byte	48
	.byte	-102
	.byte	-109
	.byte	-120
	.byte	-127
	.byte	-66
	.byte	-73
	.byte	-84
	.byte	-91
	.byte	-46
	.byte	-37
	.byte	-64
	.byte	-55
	.byte	-10
	.byte	-1
	.byte	-28
	.byte	-19
	.byte	10
	.byte	3
	.byte	24
	.byte	17
	.byte	46
	.byte	39
	.byte	60
	.byte	53
	.byte	66
	.byte	75
	.byte	80
	.byte	89
	.byte	102
	.byte	111
	.byte	116
	.byte	125
	.byte	-95
	.byte	-88
	.byte	-77
	.byte	-70
	.byte	-123
	.byte	-116
	.byte	-105
	.byte	-98
	.byte	-23
	.byte	-32
	.byte	-5
	.byte	-14
	.byte	-51
	.byte	-60
	.byte	-33
	.byte	-42
	.byte	49
	.byte	56
	.byte	35
	.byte	42
	.byte	21
	.byte	28
	.byte	7
	.byte	14
	.byte	121
	.byte	112
	.byte	107
	.byte	98
	.byte	93
	.byte	84
	.byte	79
	.byte	70
	.text
.Letext0:
	.file 3 "/usr/include/stdint.h"
	.file 4 "/usr/lib/gcc/arm-linux-gnueabihf/4.7/include/stddef.h"
	.section	.note.GNU-stack,"",%progbits
