	.arch armv7-a
	.eabi_attribute 27, 3
	.eabi_attribute 28, 1
	.fpu vfpv3-d16
	.eabi_attribute 20, 1
	.eabi_attribute 21, 1
	.eabi_attribute 23, 3
	.eabi_attribute 24, 1
	.eabi_attribute 25, 1
	.eabi_attribute 26, 2
	.eabi_attribute 30, 2
	.eabi_attribute 34, 1
	.eabi_attribute 18, 4
	.file	"aes_core.c"
	.text
.Ltext0:
	.cfi_sections	.debug_frame
	.align	2
	.global	print_state
	.type	print_state, %function
print_state:
.LFB24:
	.file 1 "aes_core.c"
	.loc 1 723 0
	.cfi_startproc
	@ args = 0, pretend = 0, frame = 0
	@ frame_needed = 0, uses_anonymous_args = 0
	@ link register save eliminated.
.LVL0:
	bx	lr
	.cfi_endproc
.LFE24:
	.size	print_state, .-print_state
	.align	2
	.global	AES_set_encrypt_key
	.type	AES_set_encrypt_key, %function
AES_set_encrypt_key:
.LFB25:
	.loc 1 735 0
	.cfi_startproc
	@ args = 0, pretend = 0, frame = 8
	@ frame_needed = 0, uses_anonymous_args = 0
.LVL1:
	.loc 1 741 0
	cmp	r2, #0
	cmpne	r0, #0
	.loc 1 735 0
	stmfd	sp!, {r4, r5, r6, r7, r8, r9, r10, fp, lr}
	.cfi_def_cfa_offset 36
	.cfi_offset 4, -36
	.cfi_offset 5, -32
	.cfi_offset 6, -28
	.cfi_offset 7, -24
	.cfi_offset 8, -20
	.cfi_offset 9, -16
	.cfi_offset 10, -12
	.cfi_offset 11, -8
	.cfi_offset 14, -4
	sub	sp, sp, #12
	.cfi_def_cfa_offset 48
	.loc 1 741 0
	beq	.L16
	.loc 1 743 0
	bic	r3, r1, #64
	cmp	r3, #128
	beq	.L4
	.loc 1 743 0 is_stmt 0 discriminator 1
	cmp	r1, #256
	.loc 1 746 0 is_stmt 1 discriminator 1
	moveq	ip, r2
	.loc 1 743 0 discriminator 1
	bne	.L23
.L8:
.LVL2:
	.loc 1 753 0
	mov	r3, #14
	str	r3, [r2, #240]
.L7:
	.loc 1 755 0
	ldrb	r4, [r0, #1]	@ zero_extendqisi2
	.loc 1 759 0
	cmp	r1, #128
	.loc 1 755 0
	ldrb	lr, [r0, #2]	@ zero_extendqisi2
	ldrb	r5, [r0, #3]	@ zero_extendqisi2
	ldrb	r3, [r0]	@ zero_extendqisi2
	mov	r4, r4, asl #16
	orr	lr, r4, lr, asl #8
	eor	lr, lr, r5
	orr	r3, lr, r3, asl #24
	str	r3, [r2]
	.loc 1 756 0
	ldrb	r5, [r0, #5]	@ zero_extendqisi2
	ldrb	r4, [r0, #6]	@ zero_extendqisi2
	ldrb	r6, [r0, #7]	@ zero_extendqisi2
	ldrb	lr, [r0, #4]	@ zero_extendqisi2
	mov	r5, r5, asl #16
	orr	r4, r5, r4, asl #8
	eor	r4, r4, r6
	orr	lr, r4, lr, asl #24
	str	lr, [r2, #4]
	.loc 1 757 0
	ldrb	r5, [r0, #9]	@ zero_extendqisi2
	ldrb	r4, [r0, #10]	@ zero_extendqisi2
	ldrb	r6, [r0, #11]	@ zero_extendqisi2
	ldrb	r7, [r0, #8]	@ zero_extendqisi2
	mov	r5, r5, asl #16
	orr	r4, r5, r4, asl #8
	eor	r4, r4, r6
	orr	r6, r4, r7, asl #24
	str	r6, [r2, #8]
	.loc 1 758 0
	ldrb	r7, [r0, #13]	@ zero_extendqisi2
	ldrb	r4, [r0, #14]	@ zero_extendqisi2
	ldrb	r5, [r0, #15]	@ zero_extendqisi2
	ldrb	r8, [r0, #12]	@ zero_extendqisi2
	mov	r7, r7, asl #16
	orr	r4, r7, r4, asl #8
	eor	r4, r4, r5
	orr	r5, r4, r8, asl #24
	str	r5, [r2, #12]
	.loc 1 759 0
	beq	.L24
	.loc 1 777 0
	ldrb	r8, [r0, #17]	@ zero_extendqisi2
	.loc 1 779 0
	cmp	r1, #192
	.loc 1 777 0
	ldrb	r4, [r0, #18]	@ zero_extendqisi2
	ldrb	r7, [r0, #19]	@ zero_extendqisi2
	ldrb	r9, [r0, #16]	@ zero_extendqisi2
	mov	r8, r8, asl #16
	orr	r4, r8, r4, asl #8
	eor	r4, r4, r7
	orr	r4, r4, r9, asl #24
	str	r4, [r2, #16]
	.loc 1 778 0
	ldrb	r8, [r0, #21]	@ zero_extendqisi2
	ldrb	r4, [r0, #22]	@ zero_extendqisi2
	ldrb	r7, [r0, #23]	@ zero_extendqisi2
	ldrb	r9, [r0, #20]	@ zero_extendqisi2
	mov	r8, r8, asl #16
	orr	r4, r8, r4, asl #8
	eor	r4, r4, r7
	orr	r4, r4, r9, asl #24
	str	r4, [r2, #20]
	.loc 1 779 0
	beq	.L25
	.loc 1 799 0
	ldrb	r7, [r0, #25]	@ zero_extendqisi2
	.loc 1 801 0
	cmp	r1, #256
	.loc 1 799 0
	ldrb	r1, [r0, #26]	@ zero_extendqisi2
.LVL3:
	ldrb	r4, [r0, #27]	@ zero_extendqisi2
	ldrb	r8, [r0, #24]	@ zero_extendqisi2
	mov	r7, r7, asl #16
	orr	r1, r7, r1, asl #8
	eor	r1, r1, r4
	orr	r1, r1, r8, asl #24
	str	r1, [r2, #24]
	.loc 1 800 0
	ldrb	r7, [r0, #29]	@ zero_extendqisi2
	ldrb	r1, [r0, #30]	@ zero_extendqisi2
	ldrb	r4, [r0, #31]	@ zero_extendqisi2
	mov	r7, r7, asl #16
	ldrb	r0, [r0, #28]	@ zero_extendqisi2
.LVL4:
	orr	r1, r7, r1, asl #8
	eor	r1, r1, r4
	orr	r1, r1, r0, asl #24
	str	r1, [r2, #28]
	.loc 1 801 0
	beq	.L26
.LVL5:
.L13:
	.loc 1 772 0
	mov	r0, #0
.L19:
	.loc 1 830 0
	add	sp, sp, #12
	.cfi_remember_state
	.cfi_def_cfa_offset 36
	@ sp needed
	ldmfd	sp!, {r4, r5, r6, r7, r8, r9, r10, fp, pc}
.LVL6:
.L4:
	.cfi_restore_state
	.loc 1 748 0
	cmp	r1, #128
	.loc 1 746 0
	mov	ip, r2
.LVL7:
	.loc 1 749 0
	moveq	r3, #10
	streq	r3, [r2, #240]
	.loc 1 748 0
	beq	.L7
.LVL8:
	.loc 1 750 0
	cmp	r1, #192
	bne	.L8
	.loc 1 751 0
	mov	r3, #12
	str	r3, [r2, #240]
	b	.L7
.L24:
	movw	r4, #:lower16:.LANCHOR0
	add	r2, r2, #144
.LVL9:
	movt	r4, #:upper16:.LANCHOR0
	mov	r0, r6
.LVL10:
	mov	r1, r5
.LVL11:
	mov	r7, r4
	b	.L11
.LVL12:
.L10:
	.loc 1 774 0
	add	ip, ip, #16
.LVL13:
.L11:
	.loc 1 765 0
	uxtb	r8, r1
	.loc 1 766 0
	mov	r5, r1, lsr #24
	.loc 1 763 0
	ubfx	r6, r1, #16, #8
	.loc 1 764 0
	ubfx	r9, r1, #8, #8
	.loc 1 765 0
	add	r8, r4, r8, lsl #2
	.loc 1 766 0
	add	r5, r4, r5, lsl #2
	.loc 1 763 0
	add	r6, r4, r6, lsl #2
	.loc 1 764 0
	add	r9, r4, r9, lsl #2
	.loc 1 765 0
	ldr	r8, [r8, #40]
	.loc 1 771 0
	cmp	ip, r2
	.loc 1 766 0
	ldrb	r5, [r5, #40]	@ zero_extendqisi2
	.loc 1 765 0
	and	r8, r8, #65280
	.loc 1 763 0
	ldr	r6, [r6, #40]
	eor	r8, r8, r5
	.loc 1 764 0
	ldr	r5, [r9, #40]
	.loc 1 763 0
	and	r6, r6, #-16777216
	eor	r3, r3, r8
	eor	r3, r3, r6
	.loc 1 764 0
	and	r5, r5, #16711680
	.loc 1 767 0
	ldr	r6, [r7], #4
	eor	r3, r3, r5
	.loc 1 766 0
	eor	r3, r3, r6
	.loc 1 762 0
	str	r3, [ip, #16]
	.loc 1 768 0
	eor	lr, lr, r3
	str	lr, [ip, #20]
	.loc 1 769 0
	eor	r0, r0, lr
	str	r0, [ip, #24]
	.loc 1 770 0
	eor	r1, r1, r0
.LVL14:
	str	r1, [ip, #28]
	.loc 1 771 0
	bne	.L10
	b	.L13
.LVL15:
.L25:
	ldr	r9, .L29
	add	r2, r2, #168
.LVL16:
	mov	r1, r5
.LVL17:
	mov	r0, r6
.LVL18:
	add	r4, r9, #4
	b	.L14
.LVL19:
.L27:
	.loc 1 794 0
	ldr	r5, [ip, #16]
	.loc 1 796 0
	add	ip, ip, #24
.LVL20:
	.loc 1 794 0
	eor	r5, r5, r1
	str	r5, [ip, #16]
	.loc 1 795 0
	eor	r5, r5, r8
	str	r5, [ip, #20]
.LVL21:
.L14:
	.loc 1 781 0
	ldr	r8, [ip, #20]
.LVL22:
	.loc 1 791 0
	cmp	ip, r2
	ldr	r6, [r9, #4]!
	.loc 1 783 0
	ubfx	r10, r8, #16, #8
	.loc 1 784 0
	ubfx	r5, r8, #8, #8
	.loc 1 785 0
	uxtb	fp, r8
	.loc 1 786 0
	mov	r7, r8, lsr #24
	eor	r3, r3, r6
	.loc 1 783 0
	add	r10, r4, r10, lsl #2
	.loc 1 785 0
	add	fp, r4, fp, lsl #2
	.loc 1 786 0
	add	r7, r4, r7, lsl #2
	.loc 1 784 0
	add	r5, r4, r5, lsl #2
	.loc 1 783 0
	ldr	r10, [r10, #40]
	.loc 1 785 0
	ldr	r6, [fp, #40]
	.loc 1 786 0
	ldrb	fp, [r7, #40]	@ zero_extendqisi2
	.loc 1 783 0
	and	r10, r10, #-16777216
	.loc 1 785 0
	and	r7, r6, #65280
	.loc 1 784 0
	ldr	r5, [r5, #40]
	eor	r6, r3, r7
	eor	r3, r6, fp
	and	r7, r5, #16711680
	eor	r3, r3, r10
	.loc 1 786 0
	eor	r3, r3, r7
	.loc 1 782 0
	str	r3, [ip, #24]
	.loc 1 788 0
	eor	lr, lr, r3
	str	lr, [ip, #28]
	.loc 1 789 0
	eor	r0, r0, lr
	str	r0, [ip, #32]
	.loc 1 790 0
	eor	r1, r1, r0
	str	r1, [ip, #36]
	.loc 1 791 0
	bne	.L27
	b	.L13
.LVL23:
.L26:
	ldr	fp, .L29
	add	r2, r2, #192
.LVL24:
	mov	r0, r6
	mov	r1, r5
	add	r4, fp, #4
	str	r2, [sp, #4]
	mov	r5, r2
	.loc 1 807 0
	mov	r6, r4
	b	.L15
.LVL25:
.L28:
	.loc 1 818 0
	ldr	r5, [r5, #40]
	.loc 1 826 0
	add	ip, ip, #32
.LVL26:
	.loc 1 821 0
	ldrb	r9, [r9, #40]	@ zero_extendqisi2
	ldr	r10, [ip, #-16]
	.loc 1 818 0
	and	r5, r5, #-16777216
	.loc 1 819 0
	ldr	r7, [r7, #40]
	eor	r5, r5, r9
	.loc 1 820 0
	ldr	r8, [r8, #40]
	eor	r5, r5, r10
	.loc 1 819 0
	and	r7, r7, #16711680
	.loc 1 820 0
	and	r8, r8, #65280
	eor	r7, r7, r5
	eor	r7, r7, r8
	.loc 1 822 0
	ldr	r8, [ip, #-12]
	.loc 1 823 0
	ldr	r5, [ip, #-8]
	.loc 1 822 0
	eor	r9, r7, r8
	.loc 1 817 0
	str	r7, [ip, #16]
	.loc 1 823 0
	eor	r5, r5, r9
	str	r5, [ip, #24]
	.loc 1 824 0
	eor	r2, r2, r5
	ldr	r5, [sp, #4]
	.loc 1 822 0
	str	r9, [ip, #20]
	.loc 1 824 0
	str	r2, [ip, #28]
.LVL27:
.L15:
	.loc 1 803 0
	ldr	r2, [ip, #28]
.LVL28:
	.loc 1 813 0
	cmp	ip, r5
	ldr	r10, [fp, #4]!
	.loc 1 805 0
	ubfx	r9, r2, #16, #8
	.loc 1 806 0
	ubfx	r5, r2, #8, #8
	.loc 1 807 0
	uxtb	r8, r2
	.loc 1 808 0
	mov	r7, r2, lsr #24
	.loc 1 805 0
	add	r9, r4, r9, lsl #2
	.loc 1 806 0
	add	r5, r4, r5, lsl #2
	.loc 1 807 0
	add	r8, r4, r8, lsl #2
	.loc 1 808 0
	add	r7, r4, r7, lsl #2
	eor	r10, r10, r3
	.loc 1 805 0
	ldr	r9, [r9, #40]
	.loc 1 807 0
	ldr	r8, [r8, #40]
	.loc 1 808 0
	ldrb	r7, [r7, #40]	@ zero_extendqisi2
	.loc 1 805 0
	and	r9, r9, #-16777216
	.loc 1 807 0
	and	r8, r8, #65280
	.loc 1 806 0
	ldr	r5, [r5, #40]
	eor	r10, r10, r8
	eor	r3, r10, r7
	and	r5, r5, #16711680
	eor	r9, r9, r3
	.loc 1 808 0
	eor	r3, r9, r5
	.loc 1 804 0
	str	r3, [ip, #32]
	.loc 1 810 0
	eor	lr, lr, r3
	str	lr, [ip, #36]
	.loc 1 811 0
	eor	r0, r0, lr
	str	r0, [ip, #40]
	.loc 1 812 0
	eor	r1, r1, r0
.LVL29:
	str	r1, [ip, #44]
	.loc 1 819 0
	ubfx	r7, r1, #16, #8
	.loc 1 820 0
	ubfx	r8, r1, #8, #8
	.loc 1 818 0
	mov	r5, r1, lsr #24
	.loc 1 821 0
	uxtb	r9, r1
	.loc 1 819 0
	add	r7, r6, r7, lsl #2
	.loc 1 820 0
	add	r8, r6, r8, lsl #2
	.loc 1 818 0
	add	r5, r6, r5, lsl #2
	.loc 1 821 0
	add	r9, r6, r9, lsl #2
	.loc 1 813 0
	bne	.L28
	b	.L13
.LVL30:
.L23:
	.loc 1 744 0
	mvn	r0, #1
.LVL31:
	b	.L19
.LVL32:
.L16:
	.loc 1 742 0
	mvn	r0, #0
.LVL33:
	b	.L19
.L30:
	.align	2
.L29:
	.word	.LANCHOR0-4
	.cfi_endproc
.LFE25:
	.size	AES_set_encrypt_key, .-AES_set_encrypt_key
	.align	2
	.global	AES_set_decrypt_key
	.type	AES_set_decrypt_key, %function
AES_set_decrypt_key:
.LFB26:
	.loc 1 836 0
	.cfi_startproc
	@ args = 0, pretend = 0, frame = 24
	@ frame_needed = 0, uses_anonymous_args = 0
.LVL34:
	stmfd	sp!, {r4, r5, r6, r7, r8, r9, r10, fp, lr}
	.cfi_def_cfa_offset 36
	.cfi_offset 4, -36
	.cfi_offset 5, -32
	.cfi_offset 6, -28
	.cfi_offset 7, -24
	.cfi_offset 8, -20
	.cfi_offset 9, -16
	.cfi_offset 10, -12
	.cfi_offset 11, -8
	.cfi_offset 14, -4
	sub	sp, sp, #28
	.cfi_def_cfa_offset 64
	.loc 1 836 0
	mov	r4, r2
	str	r2, [sp, #20]
	.loc 1 843 0
	bl	AES_set_encrypt_key
.LVL35:
	.loc 1 844 0
	cmp	r0, #0
	blt	.L32
.LVL36:
	.loc 1 850 0
	ldr	r3, [r4, #240]
	mov	ip, r4
	mov	r1, r3, asl #2
.LVL37:
	cmp	r1, #0
	ble	.L33
	add	r3, r4, r3, lsl #4
	mov	r2, r4
	mov	r0, #0
.LVL38:
.L34:
	.loc 1 851 0 discriminator 3
	ldr	lr, [ip, r0, asl #2]
.LVL39:
	add	r2, r2, #16
	ldr	r4, [ip, r1, asl #2]
	sub	r3, r3, #16
	str	r4, [ip, r0, asl #2]
	.loc 1 850 0 discriminator 3
	add	r0, r0, #4
.LVL40:
	.loc 1 851 0 discriminator 3
	str	lr, [ip, r1, asl #2]
	.loc 1 850 0 discriminator 3
	sub	r1, r1, #4
.LVL41:
	.loc 1 852 0 discriminator 3
	ldr	lr, [r2, #-12]
.LVL42:
	.loc 1 850 0 discriminator 3
	cmp	r0, r1
	.loc 1 852 0 discriminator 3
	ldr	r4, [r3, #20]
	str	r4, [r2, #-12]
	str	lr, [r3, #20]
	.loc 1 853 0 discriminator 3
	ldr	r4, [r3, #24]
	ldr	lr, [r2, #-8]
.LVL43:
	str	r4, [r2, #-8]
	str	lr, [r3, #24]
	.loc 1 854 0 discriminator 3
	ldr	r4, [r3, #28]
	ldr	lr, [r2, #-4]
.LVL44:
	str	r4, [r2, #-4]
	str	lr, [r3, #28]
	.loc 1 850 0 discriminator 3
	blt	.L34
	ldr	r3, [sp, #20]
	ldr	r3, [r3, #240]
.LVL45:
.L33:
	.loc 1 857 0 discriminator 1
	cmp	r3, #1
	ble	.L37
	ldr	fp, [sp, #20]
	movw	r10, #:lower16:.LANCHOR0
	movw	r3, #:lower16:.LANCHOR1
	movt	r10, #:upper16:.LANCHOR0
	movt	r3, #:upper16:.LANCHOR1
	str	r3, [sp, #8]
	.loc 1 857 0 is_stmt 0
	mov	r3, #1
	str	r3, [sp, #4]
.LVL46:
.L36:
	.loc 1 860 0 is_stmt 1 discriminator 3
	ldr	r0, [fp, #16]
	add	fp, fp, #16
.LVL47:
	.loc 1 865 0 discriminator 3
	ldr	r1, [fp, #4]
	.loc 1 870 0 discriminator 3
	ldr	r7, [fp, #8]
	.loc 1 861 0 discriminator 3
	ubfx	r6, r0, #16, #8
	.loc 1 863 0 discriminator 3
	uxtb	r8, r0
	.loc 1 857 0 discriminator 3
	ldr	r3, [sp, #4]
	.loc 1 868 0 discriminator 3
	uxtb	lr, r1
	.loc 1 860 0 discriminator 3
	mov	ip, r0, lsr #24
	.loc 1 870 0 discriminator 3
	mov	r2, r7, lsr #24
	.loc 1 863 0 discriminator 3
	add	r8, r10, r8, lsl #2
	.loc 1 868 0 discriminator 3
	add	lr, r10, lr, lsl #2
	.loc 1 857 0 discriminator 3
	add	r3, r3, #1
	.loc 1 863 0 discriminator 3
	ldrb	r9, [r8, #40]	@ zero_extendqisi2
	.loc 1 873 0 discriminator 3
	uxtb	r4, r7
	.loc 1 868 0 discriminator 3
	ldrb	r8, [lr, #40]	@ zero_extendqisi2
	.loc 1 866 0 discriminator 3
	ubfx	r5, r1, #16, #8
	.loc 1 857 0 discriminator 3
	str	r3, [sp, #4]
.LVL48:
	.loc 1 871 0 discriminator 3
	ubfx	lr, r7, #16, #8
	.loc 1 865 0 discriminator 3
	mov	r3, r1, lsr #24
.LVL49:
	.loc 1 862 0 discriminator 3
	ubfx	r0, r0, #8, #8
	.loc 1 870 0 discriminator 3
	add	r2, r10, r2, lsl #2
	.loc 1 867 0 discriminator 3
	ubfx	r1, r1, #8, #8
	.loc 1 872 0 discriminator 3
	ubfx	r7, r7, #8, #8
	.loc 1 873 0 discriminator 3
	add	r4, r10, r4, lsl #2
	.loc 1 870 0 discriminator 3
	ldrb	r2, [r2, #40]	@ zero_extendqisi2
	.loc 1 862 0 discriminator 3
	add	r0, r10, r0, lsl #2
	.loc 1 867 0 discriminator 3
	add	r1, r10, r1, lsl #2
	.loc 1 872 0 discriminator 3
	add	r7, r10, r7, lsl #2
	.loc 1 860 0 discriminator 3
	add	ip, r10, ip, lsl #2
	.loc 1 873 0 discriminator 3
	ldrb	r4, [r4, #40]	@ zero_extendqisi2
	.loc 1 862 0 discriminator 3
	ldrb	r0, [r0, #40]	@ zero_extendqisi2
	.loc 1 865 0 discriminator 3
	add	r3, r10, r3, lsl #2
	.loc 1 867 0 discriminator 3
	ldrb	r1, [r1, #40]	@ zero_extendqisi2
	.loc 1 870 0 discriminator 3
	add	r2, r10, r2, lsl #2
	.loc 1 872 0 discriminator 3
	ldrb	r7, [r7, #40]	@ zero_extendqisi2
	.loc 1 861 0 discriminator 3
	add	r6, r10, r6, lsl #2
	.loc 1 870 0 discriminator 3
	str	r2, [sp, #12]
	.loc 1 866 0 discriminator 3
	add	r5, r10, r5, lsl #2
	.loc 1 862 0 discriminator 3
	ldr	r2, [sp, #8]
	.loc 1 871 0 discriminator 3
	add	lr, r10, lr, lsl #2
	.loc 1 860 0 discriminator 3
	ldrb	ip, [ip, #40]	@ zero_extendqisi2
	.loc 1 873 0 discriminator 3
	add	r4, r10, r4, lsl #2
	.loc 1 865 0 discriminator 3
	ldrb	r3, [r3, #40]	@ zero_extendqisi2
	.loc 1 862 0 discriminator 3
	add	r0, r2, r0, lsl #2
	.loc 1 872 0 discriminator 3
	add	r7, r2, r7, lsl #2
	.loc 1 861 0 discriminator 3
	ldrb	r6, [r6, #40]	@ zero_extendqisi2
	.loc 1 866 0 discriminator 3
	ldrb	r5, [r5, #40]	@ zero_extendqisi2
	.loc 1 867 0 discriminator 3
	add	r1, r2, r1, lsl #2
	.loc 1 871 0 discriminator 3
	ldrb	lr, [lr, #40]	@ zero_extendqisi2
	.loc 1 863 0 discriminator 3
	add	r9, r10, r9, lsl #2
	ldr	r2, [sp, #12]
	.loc 1 860 0 discriminator 3
	add	ip, r10, ip, lsl #2
	.loc 1 872 0 discriminator 3
	str	r7, [sp, #16]
	.loc 1 868 0 discriminator 3
	add	r8, r10, r8, lsl #2
	ldr	r7, [r4, #1064]
	.loc 1 865 0 discriminator 3
	add	r3, r10, r3, lsl #2
	.loc 1 878 0 discriminator 3
	ldrb	r4, [fp, #12]	@ zero_extendqisi2
	.loc 1 861 0 discriminator 3
	add	r6, r10, r6, lsl #2
	ldr	r9, [r9, #1064]
	.loc 1 871 0 discriminator 3
	add	lr, r10, lr, lsl #2
	ldr	ip, [ip, #2088]
	.loc 1 866 0 discriminator 3
	add	r5, r10, r5, lsl #2
	ldr	r2, [r2, #2088]
	.loc 1 878 0 discriminator 3
	add	r4, r10, r4, lsl #2
	ldr	r8, [r8, #1064]
	eor	ip, ip, r9
	ldr	r3, [r3, #2088]
	eor	r2, r2, r7
	ldr	r9, [r6, #3112]
	ldr	r5, [r5, #3112]
	eor	r3, r3, r8
	ldr	r7, [lr, #3112]
	eor	ip, ip, r9
	.loc 1 875 0 discriminator 3
	ldr	lr, [fp, #12]
	eor	r3, r3, r5
	.loc 1 878 0 discriminator 3
	ldrb	r4, [r4, #40]	@ zero_extendqisi2
	eor	r2, r2, r7
	.loc 1 862 0 discriminator 3
	ldr	r9, [r0, #-4048]
	.loc 1 876 0 discriminator 3
	ldr	r5, [fp, #12]
	.loc 1 875 0 discriminator 3
	mov	lr, lr, lsr #24
	.loc 1 877 0 discriminator 3
	ldr	r6, [fp, #12]
	.loc 1 862 0 discriminator 3
	eor	ip, ip, r9
	.loc 1 876 0 discriminator 3
	ubfx	r5, r5, #16, #8
	.loc 1 875 0 discriminator 3
	add	lr, r10, lr, lsl #2
	.loc 1 867 0 discriminator 3
	ldr	r1, [r1, #-4048]
	.loc 1 877 0 discriminator 3
	ubfx	r6, r6, #8, #8
	.loc 1 872 0 discriminator 3
	ldr	r0, [sp, #16]
	.loc 1 876 0 discriminator 3
	add	r9, r10, r5, lsl #2
	.loc 1 875 0 discriminator 3
	ldrb	lr, [lr, #40]	@ zero_extendqisi2
	.loc 1 867 0 discriminator 3
	eor	r3, r3, r1
	.loc 1 876 0 discriminator 3
	ldrb	r1, [r9, #40]	@ zero_extendqisi2
	.loc 1 877 0 discriminator 3
	add	r6, r10, r6, lsl #2
	.loc 1 872 0 discriminator 3
	ldr	r0, [r0, #-4048]
	.loc 1 878 0 discriminator 3
	add	r4, r10, r4, lsl #2
	.loc 1 875 0 discriminator 3
	add	lr, r10, lr, lsl #2
	.loc 1 859 0 discriminator 3
	str	ip, [fp]
	.loc 1 872 0 discriminator 3
	eor	r2, r2, r0
	.loc 1 876 0 discriminator 3
	add	r1, r10, r1, lsl #2
	.loc 1 869 0 discriminator 3
	str	r2, [fp, #8]
	.loc 1 877 0 discriminator 3
	ldrb	r2, [r6, #40]	@ zero_extendqisi2
	.loc 1 864 0 discriminator 3
	str	r3, [fp, #4]
	ldr	r0, [r4, #1064]
.LVL50:
	ldr	r3, [lr, #2088]
	.loc 1 877 0 discriminator 3
	ldr	ip, [sp, #8]
	ldr	r1, [r1, #3112]
	eor	r3, r3, r0
	add	r2, ip, r2, lsl #2
	eor	r3, r3, r1
	.loc 1 857 0 discriminator 3
	ldr	r1, [sp, #20]
	.loc 1 877 0 discriminator 3
	ldr	r2, [r2, #-4048]
	eor	r3, r3, r2
	.loc 1 857 0 discriminator 3
	ldr	r2, [sp, #4]
	.loc 1 874 0 discriminator 3
	str	r3, [fp, #12]
	.loc 1 857 0 discriminator 3
	ldr	r3, [r1, #240]
	cmp	r3, r2
	bgt	.L36
.LVL51:
.L37:
	.loc 1 880 0
	mov	r0, #0
.L32:
	.loc 1 881 0
	add	sp, sp, #28
	.cfi_def_cfa_offset 36
	@ sp needed
	ldmfd	sp!, {r4, r5, r6, r7, r8, r9, r10, fp, pc}
	.cfi_endproc
.LFE26:
	.size	AES_set_decrypt_key, .-AES_set_decrypt_key
	.align	2
	.global	AES_encrypt
	.type	AES_encrypt, %function
AES_encrypt:
.LFB27:
	.loc 1 888 0
	.cfi_startproc
	@ args = 0, pretend = 0, frame = 32
	@ frame_needed = 0, uses_anonymous_args = 0
.LVL52:
	cmp	r2, #0
	cmpne	r1, #0
	stmfd	sp!, {r4, r5, r6, r7, r8, r9, r10, fp, lr}
	.cfi_def_cfa_offset 36
	.cfi_offset 4, -36
	.cfi_offset 5, -32
	.cfi_offset 6, -28
	.cfi_offset 7, -24
	.cfi_offset 8, -20
	.cfi_offset 9, -16
	.cfi_offset 10, -12
	.cfi_offset 11, -8
	.cfi_offset 14, -4
	moveq	r3, #1
	movne	r3, #0
	.loc 1 900 0
	cmp	r0, #0
	orreq	r3, r3, #1
	.loc 1 888 0
	sub	sp, sp, #36
	.cfi_def_cfa_offset 72
	.loc 1 900 0
	cmp	r3, #0
	str	r1, [sp, #4]
	bne	.L42
.LVL53:
	.loc 1 909 0
	ldrb	r5, [r0, #2]	@ zero_extendqisi2
	.loc 1 915 0
	movw	r3, #:lower16:.LANCHOR1
	.loc 1 909 0
	ldrb	lr, [r0, #3]	@ zero_extendqisi2
	.loc 1 915 0
	movt	r3, #:upper16:.LANCHOR1
	ldr	r1, [r2]
.LVL54:
	.loc 1 910 0
	ldrb	r6, [r0, #6]	@ zero_extendqisi2
	eor	lr, lr, r1
	ldrb	r1, [r0, #7]	@ zero_extendqisi2
	eor	lr, lr, r5, asl #8
	ldr	r5, [r2, #4]
	.loc 1 912 0
	ldrb	ip, [r0, #15]	@ zero_extendqisi2
	ldr	r4, [r2, #12]
	eor	r1, r1, r5
	ldrb	r7, [r0, #14]	@ zero_extendqisi2
	eor	r1, r1, r6, asl #8
	ldr	r5, [r2, #8]
	eor	ip, ip, r4
	ldrb	r6, [r0, #13]	@ zero_extendqisi2
	.loc 1 911 0
	ldrb	r4, [r0, #11]	@ zero_extendqisi2
	eor	ip, ip, r7, asl #8
	ldrb	r8, [r0, #10]	@ zero_extendqisi2
	.loc 1 909 0
	ldrb	r7, [r0, #1]	@ zero_extendqisi2
	eor	r4, r4, r5
	.loc 1 910 0
	ldrb	r5, [r0, #5]	@ zero_extendqisi2
	eor	ip, ip, r6, asl #16
	.loc 1 912 0
	ldrb	r6, [r0, #12]	@ zero_extendqisi2
	eor	r4, r4, r8, asl #8
	.loc 1 911 0
	ldrb	r8, [r0, #9]	@ zero_extendqisi2
	eor	lr, lr, r7, asl #16
	eor	r1, r1, r5, asl #16
	.loc 1 909 0
	ldrb	r7, [r0]	@ zero_extendqisi2
	.loc 1 910 0
	ldrb	r5, [r0, #4]	@ zero_extendqisi2
	.loc 1 912 0
	eor	ip, ip, r6, asl #24
	.loc 1 911 0
	ldrb	r0, [r0, #8]	@ zero_extendqisi2
.LVL55:
	eor	r4, r4, r8, asl #16
	.loc 1 909 0
	eor	lr, lr, r7, asl #24
.LVL56:
	.loc 1 916 0
	ubfx	r9, ip, #8, #8
	.loc 1 915 0
	uxtb	r7, ip
	.loc 1 910 0
	eor	r1, r1, r5, asl #24
.LVL57:
	.loc 1 911 0
	eor	r0, r4, r0, asl #24
.LVL58:
	.loc 1 918 0
	ubfx	r6, lr, #16, #8
	.loc 1 915 0
	ubfx	r5, r0, #8, #8
	.loc 1 918 0
	str	r6, [sp, #8]
	.loc 1 916 0
	ubfx	r10, r0, #16, #8
	.loc 1 915 0
	ubfx	r6, r1, #16, #8
	add	r7, r3, r7, lsl #2
	.loc 1 916 0
	add	r9, r3, r9, lsl #2
	str	r9, [sp, #16]
	.loc 1 917 0
	mov	r9, r0, lsr #24
	.loc 1 918 0
	uxtb	r0, r0
.LVL59:
	.loc 1 915 0
	mov	r8, lr, lsr #24
	add	r6, r3, r6, lsl #2
	add	r5, r3, r5, lsl #2
	.loc 1 918 0
	add	r0, r3, r0, lsl #2
	str	r0, [sp, #24]
	ldr	r0, [r7, #-2000]
	.loc 1 916 0
	mov	r4, r1, lsr #24
.LVL60:
	.loc 1 918 0
	ldr	r7, [sp, #8]
	.loc 1 916 0
	uxtb	fp, lr
	.loc 1 917 0
	ubfx	lr, lr, #8, #8
.LVL61:
	str	lr, [sp, #20]
	uxtb	lr, r1
	ldr	r6, [r6, #-976]
	.loc 1 915 0
	ldr	r5, [r5, #48]
	add	r8, r3, r8, lsl #2
	.loc 1 916 0
	add	r4, r3, r4, lsl #2
	.loc 1 918 0
	add	r7, r3, r7, lsl #2
	.loc 1 916 0
	add	fp, r3, fp, lsl #2
	.loc 1 918 0
	str	r7, [sp, #28]
	.loc 1 917 0
	add	r7, r3, lr, lsl #2
	ubfx	lr, ip, #16, #8
	ldr	r8, [r8, #-3024]
	add	r9, r3, r9, lsl #2
	str	r6, [sp, #8]
	add	r6, r3, lr, lsl #2
	.loc 1 915 0
	str	r5, [sp, #12]
	eor	r0, r0, r8
	ldr	r5, [r4, #-3024]
	.loc 1 916 0
	add	r10, r3, r10, lsl #2
	ldr	fp, [fp, #-2000]
	.loc 1 918 0
	ubfx	r1, r1, #8, #8
.LVL62:
	.loc 1 916 0
	ldr	lr, [sp, #16]
	.loc 1 918 0
	mov	ip, ip, lsr #24
.LVL63:
	ldr	r8, [r2, #16]
	eor	r5, r5, fp
	ldr	r7, [r7, #-2000]
	add	r1, r3, r1, lsl #2
	ldr	r9, [r9, #-3024]
	eor	r0, r0, r8
	.loc 1 916 0
	ldr	r4, [lr, #48]
	.loc 1 918 0
	add	ip, r3, ip, lsl #2
	.loc 1 917 0
	ldr	lr, [sp, #20]
	eor	r9, r9, r7
	ldr	r8, [sp, #24]
	ldr	fp, [r2, #20]
	ldr	r7, [r2, #24]
	add	lr, r3, lr, lsl #2
	ldr	r10, [r10, #-976]
	eor	r5, r5, fp
	ldr	r6, [r6, #-976]
	eor	r9, r9, r7
	ldr	fp, [r8, #-2000]
	eor	r5, r5, r10
	ldr	r8, [sp, #8]
	eor	r9, r9, r6
	ldr	r7, [sp, #28]
	.loc 1 918 0
	ldr	r10, [r1, #48]
	eor	r0, r0, r8
	.loc 1 915 0
	ldr	r1, [sp, #12]
	.loc 1 917 0
	ldr	r6, [lr, #48]
	ldr	ip, [ip, #-3024]
	.loc 1 915 0
	eor	r0, r0, r1
.LVL64:
	ldr	r8, [r7, #-976]
	.loc 1 916 0
	eor	r1, r5, r4
.LVL65:
	ldr	r7, [r2, #28]
	.loc 1 917 0
	eor	r4, r9, r6
.LVL66:
	eor	fp, fp, ip
	.loc 1 922 0
	uxtb	r5, r1
	eor	fp, fp, r7
	.loc 1 921 0
	uxtb	ip, r0
	eor	lr, fp, r8
	.loc 1 922 0
	mov	fp, r4, lsr #24
	add	r5, r3, r5, lsl #2
	.loc 1 918 0
	eor	lr, lr, r10
.LVL67:
	.loc 1 922 0
	add	fp, r3, fp, lsl #2
	str	fp, [sp, #12]
	.loc 1 920 0
	ubfx	fp, r1, #16, #8
	ldr	r5, [r5, #-2000]
	mov	r10, r0, lsr #24
	uxtb	r9, lr
	.loc 1 921 0
	add	ip, r3, ip, lsl #2
	.loc 1 920 0
	add	fp, r3, fp, lsl #2
	str	fp, [sp, #8]
	.loc 1 923 0
	ubfx	fp, r0, #16, #8
	.loc 1 922 0
	ubfx	r0, r0, #8, #8
.LVL68:
	.loc 1 923 0
	uxtb	r7, r4
	.loc 1 921 0
	mov	r6, r1, lsr #24
	.loc 1 923 0
	mov	r8, lr, lsr #24
	str	r5, [sp, #16]
	.loc 1 920 0
	add	r10, r3, r10, lsl #2
	ldr	r5, [ip, #-2000]
	add	r9, r3, r9, lsl #2
	.loc 1 922 0
	add	ip, r3, r0, lsl #2
	ldr	r0, [sp, #12]
	.loc 1 923 0
	add	r8, r3, r8, lsl #2
	add	r7, r3, r7, lsl #2
	.loc 1 921 0
	add	r6, r3, r6, lsl #2
	ldr	r9, [r9, #-2000]
	ldr	r10, [r10, #-3024]
	.loc 1 923 0
	ubfx	r1, r1, #8, #8
.LVL69:
	ldr	r7, [r7, #-2000]
	add	fp, r3, fp, lsl #2
	ldr	r8, [r8, #-3024]
	eor	r10, r10, r9
	ldr	r6, [r6, #-3024]
	.loc 1 921 0
	ubfx	r9, r4, #16, #8
	.loc 1 922 0
	str	ip, [sp, #20]
	eor	r8, r8, r7
	ldr	ip, [r0, #-3024]
	.loc 1 921 0
	add	r9, r3, r9, lsl #2
	ldr	r0, [sp, #8]
	eor	r6, r6, r5
	ldr	r5, [r9, #-976]
	.loc 1 920 0
	ubfx	r4, r4, #8, #8
.LVL70:
	ldr	r9, [sp, #16]
	.loc 1 923 0
	add	r1, r3, r1, lsl #2
	ldr	r7, [r0, #-976]
	.loc 1 922 0
	ubfx	r0, lr, #16, #8
	eor	ip, ip, r9
	.loc 1 921 0
	ubfx	lr, lr, #8, #8
.LVL71:
	.loc 1 922 0
	add	r0, r3, r0, lsl #2
	ldr	fp, [fp, #-976]
	.loc 1 921 0
	add	lr, r3, lr, lsl #2
	.loc 1 920 0
	add	r4, r3, r4, lsl #2
	ldr	r9, [r0, #-976]
	ldr	r0, [r2, #32]
	.loc 1 921 0
	ldr	lr, [lr, #48]
	eor	r10, r10, r0
	ldr	r0, [r2, #44]
	eor	r10, r10, r7
	.loc 1 923 0
	ldr	r1, [r1, #48]
	eor	r8, r8, r0
	ldr	r0, [r2, #36]
	.loc 1 920 0
	ldr	r4, [r4, #48]
	eor	fp, fp, r8
	eor	r6, r6, r0
	.loc 1 922 0
	ldr	r0, [sp, #20]
	eor	r6, r6, r5
	.loc 1 923 0
	eor	r1, r1, fp
	.loc 1 920 0
	eor	r10, r10, r4
.LVL72:
	.loc 1 922 0
	ldr	r7, [r0, #48]
	.loc 1 925 0
	uxtb	r5, r1
	ldr	r0, [r2, #40]
	add	r5, r3, r5, lsl #2
	eor	ip, ip, r0
	.loc 1 921 0
	eor	r0, r6, lr
.LVL73:
	eor	ip, ip, r9
	.loc 1 925 0
	ubfx	r4, r0, #16, #8
	.loc 1 922 0
	eor	ip, ip, r7
.LVL74:
	.loc 1 926 0
	mov	lr, r0, lsr #24
	.loc 1 925 0
	ubfx	fp, ip, #8, #8
	.loc 1 928 0
	mov	r7, r1, lsr #24
	.loc 1 925 0
	mov	r6, r10, lsr #24
	.loc 1 928 0
	str	r7, [sp, #8]
	uxtb	r8, ip
	.loc 1 927 0
	mov	r7, ip, lsr #24
	.loc 1 925 0
	add	r4, r3, r4, lsl #2
	.loc 1 926 0
	add	lr, r3, lr, lsl #2
	.loc 1 925 0
	add	fp, r3, fp, lsl #2
	.loc 1 926 0
	str	lr, [sp, #16]
	ubfx	ip, ip, #16, #8
.LVL75:
	.loc 1 928 0
	ldr	lr, [sp, #8]
	.loc 1 926 0
	uxtb	r9, r10
	.loc 1 925 0
	add	r6, r3, r6, lsl #2
	ldr	fp, [fp, #48]
	.loc 1 926 0
	add	ip, r3, ip, lsl #2
	str	ip, [sp, #20]
	add	r9, r3, r9, lsl #2
	ldr	ip, [r5, #-2000]
	.loc 1 928 0
	add	lr, r3, lr, lsl #2
	ldr	r5, [r4, #-976]
	.loc 1 927 0
	add	r7, r3, r7, lsl #2
	ldr	r4, [sp, #16]
	.loc 1 928 0
	add	r8, r3, r8, lsl #2
	.loc 1 927 0
	str	r7, [sp, #24]
.LVL76:
	uxtb	r7, r0
	ldr	r6, [r6, #-3024]
	.loc 1 928 0
	ubfx	r0, r0, #8, #8
.LVL77:
	str	r5, [sp, #8]
	.loc 1 927 0
	add	r7, r3, r7, lsl #2
	ldr	r5, [r4, #-3024]
	.loc 1 928 0
	add	r0, r3, r0, lsl #2
	ldr	r4, [r9, #-2000]
	eor	r6, r6, ip
	ldr	r9, [lr, #-3024]
	ldr	ip, [r2, #48]
	eor	r4, r4, r5
	str	r0, [sp, #28]
.LVL78:
	.loc 1 927 0
	ubfx	r0, r1, #16, #8
	.loc 1 925 0
	str	fp, [sp, #12]
	eor	r6, r6, ip
	ldr	r8, [r8, #-2000]
	.loc 1 928 0
	ubfx	ip, r10, #16, #8
	ldr	lr, [sp, #24]
	.loc 1 927 0
	add	r0, r3, r0, lsl #2
	ldr	r7, [r7, #-2000]
	eor	r9, r9, r8
	ldr	r8, [sp, #8]
	.loc 1 926 0
	ubfx	r1, r1, #8, #8
.LVL79:
	ldr	fp, [lr, #-3024]
	.loc 1 927 0
	ubfx	r10, r10, #8, #8
.LVL80:
	ldr	lr, [sp, #20]
	eor	r6, r6, r8
	eor	r7, r7, fp
	.loc 1 925 0
	ldr	fp, [sp, #12]
	ldr	r8, [r2, #60]
	.loc 1 926 0
	add	r1, r3, r1, lsl #2
	ldr	r5, [lr, #-976]
	.loc 1 928 0
	add	lr, r3, ip, lsl #2
	ldr	ip, [r0, #-976]
	.loc 1 927 0
	add	r10, r3, r10, lsl #2
	ldr	r0, [lr, #-976]
	.loc 1 925 0
	eor	r6, r6, fp
	ldr	lr, [r2, #52]
	eor	r9, r9, r8
	mov	fp, r6
.LVL81:
	.loc 1 926 0
	ldr	r6, [r1, #48]
.LVL82:
	eor	r4, r4, lr
	ldr	lr, [r2, #56]
	.loc 1 927 0
	ldr	r1, [r10, #48]
	eor	r0, r0, r9
	eor	r7, r7, lr
	.loc 1 928 0
	ldr	lr, [sp, #28]
	eor	r5, r5, r4
	.loc 1 931 0
	str	fp, [sp, #8]
	.loc 1 926 0
	eor	r5, r5, r6
.LVL83:
	.loc 1 928 0
	ldr	r10, [lr, #48]
	eor	lr, r7, ip
	.loc 1 927 0
	eor	lr, lr, r1
.LVL84:
	.loc 1 931 0
	ldrb	ip, [sp, #8]	@ zero_extendqisi2
	.loc 1 928 0
	eor	r0, r0, r10
.LVL85:
	.loc 1 930 0
	mov	r10, fp, lsr #24
	ubfx	fp, r5, #16, #8
.LVL86:
	.loc 1 932 0
	mov	r4, lr, lsr #24
	.loc 1 933 0
	mov	r7, r0, lsr #24
	.loc 1 930 0
	uxtb	r1, r0
	.loc 1 932 0
	uxtb	r8, r5
	.loc 1 931 0
	mov	r9, r5, lsr #24
	.loc 1 933 0
	uxtb	r6, lr
	add	r7, r3, r7, lsl #2
	.loc 1 930 0
	add	fp, r3, fp, lsl #2
	str	fp, [sp, #12]
	.loc 1 931 0
	ubfx	fp, lr, #16, #8
	.loc 1 930 0
	ubfx	lr, lr, #8, #8
.LVL87:
	add	r10, r3, r10, lsl #2
	add	r1, r3, r1, lsl #2
	.loc 1 932 0
	add	r4, r3, r4, lsl #2
	add	r8, r3, r8, lsl #2
	.loc 1 930 0
	add	lr, r3, lr, lsl #2
	.loc 1 931 0
	add	r9, r3, r9, lsl #2
	.loc 1 930 0
	str	lr, [sp, #16]
	.loc 1 931 0
	add	ip, r3, ip, lsl #2
	ldr	lr, [r7, #-3024]
	.loc 1 933 0
	add	r6, r3, r6, lsl #2
	ldr	r7, [sp, #12]
	ubfx	r5, r5, #8, #8
.LVL88:
	ldr	r10, [r10, #-3024]
	.loc 1 931 0
	add	fp, r3, fp, lsl #2
	ldr	r1, [r1, #-2000]
	.loc 1 933 0
	add	r5, r3, r5, lsl #2
	ldr	r4, [r4, #-3024]
	ldr	r8, [r8, #-2000]
	eor	r1, r1, r10
	ldr	ip, [ip, #-2000]
	ldr	r9, [r9, #-3024]
	eor	r4, r4, r8
	ldr	r10, [r2, #64]
	str	r5, [sp, #20]
	eor	r9, r9, ip
	ldr	r5, [r6, #-2000]
	.loc 1 932 0
	ubfx	ip, r0, #16, #8
	ldr	r6, [r7, #-976]
	eor	r1, r1, r10
	.loc 1 933 0
	ldr	r8, [sp, #8]
	.loc 1 932 0
	add	ip, r3, ip, lsl #2
	eor	r5, r5, lr
	ldr	r10, [r2, #72]
	.loc 1 933 0
	ubfx	r7, r8, #16, #8
	.loc 1 932 0
	ubfx	r8, r8, #8, #8
	.loc 1 931 0
	ubfx	r0, r0, #8, #8
.LVL89:
	eor	r4, r4, r10
	.loc 1 932 0
	add	lr, r3, r8, lsl #2
	ldr	r8, [ip, #-976]
	eor	r1, r1, r6
	ldr	ip, [r2, #68]
	ldr	r10, [lr, #48]
	eor	r4, r4, r8
	.loc 1 933 0
	ldr	lr, [sp, #20]
	.loc 1 931 0
	add	r0, r3, r0, lsl #2
	.loc 1 930 0
	ldr	r6, [sp, #16]
	.loc 1 932 0
	eor	r4, r4, r10
	ldr	fp, [fp, #-976]
	eor	r9, r9, ip
	.loc 1 931 0
	ldr	r0, [r0, #48]
	.loc 1 933 0
	add	r7, r3, r7, lsl #2
	ldr	r8, [lr, #48]
	eor	ip, r9, fp
	.loc 1 930 0
	ldr	r6, [r6, #48]
	.loc 1 937 0
	mov	fp, r4, lsr #24
	ldr	lr, [r2, #76]
	.loc 1 931 0
	eor	ip, ip, r0
	ldr	r7, [r7, #-976]
	.loc 1 930 0
	eor	r1, r1, r6
.LVL90:
	eor	lr, r5, lr
	.loc 1 937 0
	add	fp, r3, fp, lsl #2
	str	fp, [sp, #12]
	.loc 1 935 0
	ubfx	fp, ip, #16, #8
	eor	lr, lr, r7
	mov	r10, r1, lsr #24
	.loc 1 933 0
	eor	lr, lr, r8
.LVL91:
	.loc 1 937 0
	uxtb	r7, ip
	.loc 1 936 0
	mov	r8, ip, lsr #24
	uxtb	r6, r1
	.loc 1 935 0
	add	fp, r3, fp, lsl #2
	.loc 1 938 0
	ubfx	ip, ip, #8, #8
.LVL92:
	.loc 1 935 0
	str	fp, [sp, #8]
.LVL93:
	.loc 1 938 0
	ubfx	fp, r1, #16, #8
	.loc 1 937 0
	ubfx	r1, r1, #8, #8
.LVL94:
	.loc 1 938 0
	uxtb	r9, r4
	.loc 1 935 0
	uxtb	r5, lr
	.loc 1 938 0
	mov	r0, lr, lsr #24
	add	ip, r3, ip, lsl #2
	str	ip, [sp, #20]
	.loc 1 937 0
	add	ip, r3, r1, lsl #2
	ldr	r1, [sp, #12]
	.loc 1 935 0
	add	r10, r3, r10, lsl #2
	add	r5, r3, r5, lsl #2
	.loc 1 938 0
	add	r0, r3, r0, lsl #2
	add	r9, r3, r9, lsl #2
	.loc 1 937 0
	str	ip, [sp, #16]
	.loc 1 936 0
	add	r8, r3, r8, lsl #2
	ldr	ip, [r1, #-3024]
	add	r6, r3, r6, lsl #2
	ldr	r1, [sp, #8]
	.loc 1 938 0
	add	fp, r3, fp, lsl #2
	ldr	r10, [r10, #-3024]
	.loc 1 937 0
	add	r7, r3, r7, lsl #2
	ldr	r9, [r9, #-2000]
	ldr	r5, [r5, #-2000]
	ldr	r0, [r0, #-3024]
	eor	r5, r5, r10
	.loc 1 936 0
	ubfx	r10, r4, #16, #8
	eor	r0, r0, r9
	ldr	r9, [r1, #-976]
	.loc 1 937 0
	ubfx	r1, lr, #16, #8
	ldr	r6, [r6, #-2000]
	ldr	r8, [r8, #-3024]
	.loc 1 936 0
	add	r10, r3, r10, lsl #2
	.loc 1 937 0
	add	r1, r3, r1, lsl #2
	.loc 1 935 0
	ubfx	r4, r4, #8, #8
.LVL95:
	eor	r8, r8, r6
	ldr	r6, [r10, #-976]
	ldr	r10, [r1, #-976]
	add	r4, r3, r4, lsl #2
	ldr	r1, [r2, #80]
	.loc 1 936 0
	ubfx	lr, lr, #8, #8
.LVL96:
	ldr	fp, [fp, #-976]
	eor	r5, r5, r1
	ldr	r1, [r2, #92]
	ldr	r7, [r7, #-2000]
	eor	r5, r5, r9
	.loc 1 935 0
	ldr	r4, [r4, #48]
	eor	r0, r0, r1
	ldr	r1, [r2, #84]
	eor	fp, fp, r0
	.loc 1 938 0
	ldr	r0, [sp, #20]
	eor	r7, r7, ip
	eor	r8, r8, r1
	.loc 1 937 0
	ldr	r1, [sp, #16]
	ldr	ip, [r2, #88]
	.loc 1 936 0
	add	lr, r3, lr, lsl #2
	.loc 1 938 0
	ldr	r0, [r0, #48]
	eor	r8, r8, r6
	.loc 1 937 0
	ldr	r9, [r1, #48]
	eor	r7, r7, ip
	.loc 1 935 0
	eor	r1, r5, r4
	.loc 1 938 0
	eor	r0, r0, fp
	.loc 1 936 0
	ldr	lr, [lr, #48]
	eor	r7, r7, r10
	.loc 1 937 0
	eor	ip, r7, r9
	.loc 1 935 0
	mov	r4, r1
.LVL97:
	.loc 1 940 0
	uxtb	fp, r0
	.loc 1 936 0
	eor	r1, r8, lr
.LVL98:
	.loc 1 940 0
	mov	lr, r4, lsr #24
	.loc 1 941 0
	str	r4, [sp, #8]
	.loc 1 940 0
	ubfx	r9, ip, #8, #8
	.loc 1 941 0
	ubfx	r6, ip, #16, #8
	ubfx	r5, r0, #8, #8
	.loc 1 942 0
	mov	r4, ip, lsr #24
.LVL99:
	.loc 1 943 0
	uxtb	ip, ip
.LVL100:
	.loc 1 940 0
	add	lr, r3, lr, lsl #2
	add	fp, r3, fp, lsl #2
	.loc 1 941 0
	add	r5, r3, r5, lsl #2
	.loc 1 943 0
	add	ip, r3, ip, lsl #2
	.loc 1 941 0
	str	r5, [sp, #12]
	.loc 1 943 0
	str	ip, [sp, #24]
	.loc 1 942 0
	ubfx	r5, r0, #16, #8
	uxtb	ip, r1
	ldr	fp, [fp, #-2000]
	.loc 1 940 0
	ubfx	r10, r1, #16, #8
	.loc 1 942 0
	add	r4, r3, r4, lsl #2
	str	r4, [sp, #16]
.LVL101:
	.loc 1 941 0
	mov	r8, r1, lsr #24
	ldr	r4, [lr, #-3024]
	.loc 1 942 0
	add	lr, r3, ip, lsl #2
	.loc 1 943 0
	mov	ip, r0, lsr #24
	.loc 1 942 0
	add	r0, r3, r5, lsl #2
.LVL102:
	str	r0, [sp, #20]
	eor	r4, r4, fp
	ldr	r0, [r2, #96]
	.loc 1 940 0
	add	r10, r3, r10, lsl #2
	.loc 1 941 0
	ldrb	r7, [sp, #8]	@ zero_extendqisi2
	.loc 1 940 0
	add	r9, r3, r9, lsl #2
	eor	r4, r4, r0
	ldr	r0, [sp, #16]
	ldr	r10, [r10, #-976]
	.loc 1 941 0
	add	r8, r3, r8, lsl #2
	.loc 1 940 0
	ldr	r9, [r9, #48]
	.loc 1 941 0
	add	r7, r3, r7, lsl #2
	.loc 1 943 0
	ubfx	r1, r1, #8, #8
.LVL103:
	ldr	fp, [r0, #-3024]
	ldr	lr, [lr, #-2000]
	eor	r4, r4, r10
	.loc 1 940 0
	eor	r0, r4, r9
.LVL104:
	ldr	r5, [r8, #-3024]
	ldr	r9, [sp, #24]
	.loc 1 943 0
	add	r8, r3, r1, lsl #2
	ldr	r1, [r7, #-2000]
	add	ip, r3, ip, lsl #2
	.loc 1 941 0
	ldr	r7, [sp, #12]
	eor	fp, fp, lr
	add	r6, r3, r6, lsl #2
	ldr	lr, [r2, #100]
	eor	r5, r5, r1
	.loc 1 943 0
	ldr	r1, [sp, #8]
	ldr	r6, [r6, #-976]
	eor	r5, r5, lr
	.loc 1 941 0
	ldr	r7, [r7, #48]
	ldr	r4, [r2, #104]
	.loc 1 943 0
	str	r8, [sp, #28]
	ubfx	r8, r1, #16, #8
	ldr	r9, [r9, #-2000]
	.loc 1 942 0
	ubfx	r1, r1, #8, #8
	ldr	r10, [ip, #-3024]
	eor	fp, fp, r4
	ldr	lr, [sp, #20]
	add	r1, r3, r1, lsl #2
	.loc 1 943 0
	add	r8, r3, r8, lsl #2
	eor	ip, r5, r6
	.loc 1 941 0
	eor	ip, ip, r7
.LVL105:
	eor	r9, r9, r10
	ldr	r4, [lr, #-976]
	.loc 1 945 0
	mov	r10, r0, lsr #24
	ldr	r5, [r8, #-976]
	.loc 1 947 0
	uxtb	r7, ip
	eor	fp, fp, r4
	.loc 1 942 0
	ldr	r4, [r1, #48]
	.loc 1 943 0
	ldr	r8, [sp, #28]
	.loc 1 945 0
	add	r10, r3, r10, lsl #2
	.loc 1 942 0
	eor	r4, r4, fp
.LVL106:
	ldr	lr, [r2, #108]
	ldr	r10, [r10, #-3024]
	.loc 1 947 0
	add	r7, r3, r7, lsl #2
	mov	fp, r4, lsr #24
	.loc 1 943 0
	ldr	r6, [r8, #48]
	eor	r9, r9, lr
	.loc 1 946 0
	mov	r8, ip, lsr #24
	.loc 1 947 0
	add	fp, r3, fp, lsl #2
	str	fp, [sp, #12]
	.loc 1 945 0
	ubfx	fp, ip, #16, #8
	eor	r9, r9, r5
	.loc 1 943 0
	eor	lr, r9, r6
.LVL107:
	.loc 1 948 0
	ubfx	ip, ip, #8, #8
.LVL108:
	.loc 1 946 0
	uxtb	r6, r0
	.loc 1 945 0
	add	fp, r3, fp, lsl #2
	str	fp, [sp, #8]
.LVL109:
	.loc 1 948 0
	ubfx	fp, r0, #16, #8
	.loc 1 947 0
	ubfx	r0, r0, #8, #8
.LVL110:
	.loc 1 945 0
	uxtb	r5, lr
	.loc 1 948 0
	mov	r1, lr, lsr #24
	uxtb	r9, r4
	add	ip, r3, ip, lsl #2
	str	ip, [sp, #20]
	.loc 1 947 0
	add	ip, r3, r0, lsl #2
	ldr	r0, [sp, #12]
	.loc 1 945 0
	add	r5, r3, r5, lsl #2
	.loc 1 948 0
	add	r1, r3, r1, lsl #2
	add	r9, r3, r9, lsl #2
	.loc 1 947 0
	str	ip, [sp, #16]
	ldr	ip, [r0, #-3024]
	.loc 1 946 0
	add	r8, r3, r8, lsl #2
	ldr	r0, [sp, #8]
	add	r6, r3, r6, lsl #2
	ldr	r9, [r9, #-2000]
	.loc 1 948 0
	add	fp, r3, fp, lsl #2
	ldr	r5, [r5, #-2000]
	ldr	r1, [r1, #-3024]
	eor	r5, r5, r10
	.loc 1 946 0
	ubfx	r10, r4, #16, #8
	eor	r1, r1, r9
	ldr	r9, [r0, #-976]
	.loc 1 947 0
	ubfx	r0, lr, #16, #8
	ldr	r6, [r6, #-2000]
	ldr	r8, [r8, #-3024]
	.loc 1 946 0
	add	r10, r3, r10, lsl #2
	.loc 1 947 0
	add	r0, r3, r0, lsl #2
	ldr	fp, [fp, #-976]
	eor	r8, r8, r6
	ldr	r6, [r10, #-976]
	ldr	r10, [r0, #-976]
	.loc 1 945 0
	ubfx	r4, r4, #8, #8
.LVL111:
	ldr	r0, [r2, #112]
	.loc 1 946 0
	ubfx	lr, lr, #8, #8
.LVL112:
	ldr	r7, [r7, #-2000]
	.loc 1 945 0
	add	r4, r3, r4, lsl #2
	eor	r5, r5, r0
	ldr	r0, [r2, #124]
	ldr	r4, [r4, #48]
	eor	r7, r7, ip
	eor	r1, r1, r0
	ldr	r0, [r2, #116]
	eor	fp, fp, r1
	.loc 1 948 0
	ldr	r1, [sp, #20]
	ldr	ip, [r2, #120]
	eor	r8, r8, r0
	.loc 1 946 0
	add	lr, r3, lr, lsl #2
	eor	r5, r5, r9
	.loc 1 948 0
	ldr	r1, [r1, #48]
	eor	r8, r8, r6
	.loc 1 947 0
	ldr	r0, [sp, #16]
	eor	r7, r7, ip
	.loc 1 946 0
	ldr	lr, [lr, #48]
	.loc 1 948 0
	eor	r1, r1, fp
	eor	r7, r7, r10
	.loc 1 947 0
	ldr	r9, [r0, #48]
	.loc 1 945 0
	eor	r0, r5, r4
	.loc 1 950 0
	uxtb	r5, r1
	.loc 1 945 0
	mov	r4, r0
.LVL113:
	.loc 1 946 0
	eor	r0, r8, lr
.LVL114:
	.loc 1 950 0
	mov	r6, r4, lsr #24
	mov	lr, r4
	ubfx	r4, r0, #16, #8
.LVL115:
	.loc 1 947 0
	eor	ip, r7, r9
.LVL116:
	.loc 1 951 0
	str	lr, [sp, #8]
	.loc 1 950 0
	ubfx	fp, ip, #8, #8
	.loc 1 951 0
	ldrb	r9, [sp, #8]	@ zero_extendqisi2
	.loc 1 950 0
	add	r4, r3, r4, lsl #2
	.loc 1 951 0
	mov	r10, r0, lsr #24
	.loc 1 953 0
	uxtb	r8, ip
	.loc 1 952 0
	mov	r7, ip, lsr #24
	.loc 1 950 0
	add	r5, r3, r5, lsl #2
	add	r6, r3, r6, lsl #2
	.loc 1 951 0
	ubfx	ip, ip, #16, #8
.LVL117:
	ldr	r4, [r4, #-976]
	add	r10, r3, r10, lsl #2
	add	r9, r3, r9, lsl #2
	ldr	r6, [r6, #-3024]
	add	ip, r3, ip, lsl #2
	str	ip, [sp, #20]
	ldr	ip, [r5, #-2000]
	.loc 1 953 0
	mov	lr, r1, lsr #24
.LVL118:
	str	r4, [sp, #12]
	.loc 1 952 0
	add	r7, r3, r7, lsl #2
	ldr	r4, [r9, #-2000]
	eor	r6, r6, ip
	str	r7, [sp, #24]
	.loc 1 950 0
	add	fp, r3, fp, lsl #2
	ldr	ip, [r10, #-3024]
	.loc 1 952 0
	uxtb	r7, r0
	ldr	r9, [sp, #24]
	.loc 1 953 0
	ubfx	r0, r0, #8, #8
.LVL119:
	.loc 1 950 0
	ldr	fp, [fp, #48]
	.loc 1 953 0
	add	lr, r3, lr, lsl #2
	eor	r4, r4, ip
	ldr	ip, [sp, #8]
	add	r5, r3, r0, lsl #2
	.loc 1 952 0
	ubfx	r0, r1, #16, #8
	ldr	r10, [r9, #-3024]
	ubfx	r9, ip, #8, #8
	.loc 1 953 0
	str	r5, [sp, #28]
	.loc 1 952 0
	add	r0, r3, r0, lsl #2
	ldr	r5, [lr, #-3024]
	.loc 1 953 0
	ubfx	lr, ip, #16, #8
	ldr	ip, [sp, #20]
	add	r8, r3, r8, lsl #2
	.loc 1 950 0
	str	fp, [sp, #16]
	.loc 1 952 0
	add	r7, r3, r7, lsl #2
	ldr	fp, [r2, #128]
	.loc 1 951 0
	ubfx	r1, r1, #8, #8
.LVL120:
	ldr	r8, [r8, #-2000]
	.loc 1 952 0
	add	r9, r3, r9, lsl #2
	eor	r6, r6, fp
	ldr	fp, [ip, #-976]
	.loc 1 953 0
	add	ip, r3, lr, lsl #2
	ldr	lr, [r0, #-976]
	ldr	r0, [sp, #12]
	.loc 1 951 0
	add	r1, r3, r1, lsl #2
	ldr	r7, [r7, #-2000]
	eor	r5, r5, r8
	eor	r6, r6, r0
	ldr	r8, [ip, #-976]
	.loc 1 950 0
	ldr	r0, [sp, #16]
	eor	r7, r7, r10
	ldr	ip, [r2, #132]
	eor	r0, r6, r0
.LVL121:
	ldr	r10, [r2, #140]
	.loc 1 952 0
	ldr	r6, [r9, #48]
	eor	r4, r4, ip
	.loc 1 951 0
	ldr	ip, [r1, #48]
	eor	r5, r5, r10
	ldr	r9, [r2, #136]
	eor	r5, r5, r8
	.loc 1 953 0
	ldr	r1, [sp, #28]
	eor	r4, r4, fp
	eor	r7, r7, r9
	.loc 1 951 0
	eor	ip, ip, r4
.LVL122:
	eor	lr, lr, r7
	.loc 1 953 0
	ldr	r9, [r1, #48]
	.loc 1 952 0
	eor	lr, lr, r6
.LVL123:
	.loc 1 957 0
	uxtb	fp, ip
	.loc 1 956 0
	mov	r7, ip, lsr #24
	.loc 1 953 0
	eor	r1, r5, r9
.LVL124:
	.loc 1 955 0
	mov	r9, r0, lsr #24
	.loc 1 957 0
	mov	r5, lr, lsr #24
	.loc 1 958 0
	uxtb	r4, lr
	mov	r10, r1, lsr #24
	.loc 1 955 0
	uxtb	r8, r1
	.loc 1 957 0
	add	fp, r3, fp, lsl #2
	.loc 1 955 0
	add	r9, r3, r9, lsl #2
	.loc 1 958 0
	add	r10, r3, r10, lsl #2
	str	r10, [sp, #20]
	.loc 1 955 0
	ubfx	r10, lr, #8, #8
	.loc 1 957 0
	str	fp, [sp, #16]
	.loc 1 955 0
	add	r8, r3, r8, lsl #2
	.loc 1 956 0
	ubfx	lr, lr, #16, #8
.LVL125:
	.loc 1 955 0
	add	r10, r3, r10, lsl #2
	str	r10, [sp, #8]
.LVL126:
	ldr	r10, [sp, #16]
	.loc 1 956 0
	add	lr, r3, lr, lsl #2
	ldr	r9, [r9, #-3024]
	.loc 1 957 0
	add	r5, r3, r5, lsl #2
	.loc 1 956 0
	str	lr, [sp, #12]
	uxtb	r6, r0
	ldr	lr, [r8, #-2000]
	add	r7, r3, r7, lsl #2
	ldr	r10, [r10, #-2000]
	.loc 1 955 0
	ubfx	fp, ip, #16, #8
	ldr	r5, [r5, #-3024]
	eor	r9, r9, lr
	.loc 1 957 0
	ubfx	lr, r0, #8, #8
	.loc 1 956 0
	add	r6, r3, r6, lsl #2
	.loc 1 958 0
	ubfx	ip, ip, #8, #8
.LVL127:
	eor	r5, r5, r10
	.loc 1 957 0
	add	r10, r3, lr, lsl #2
	.loc 1 955 0
	ldr	lr, [sp, #8]
	ldr	r8, [r7, #-3024]
	.loc 1 958 0
	add	ip, r3, ip, lsl #2
	ldr	r6, [r6, #-2000]
	add	r4, r3, r4, lsl #2
	str	ip, [sp, #16]
	.loc 1 955 0
	add	fp, r3, fp, lsl #2
	ldr	ip, [sp, #20]
	eor	r8, r8, r6
	ldr	r6, [lr, #48]
	.loc 1 956 0
	ubfx	r7, r1, #8, #8
	ldr	lr, [sp, #12]
	.loc 1 957 0
	ubfx	r1, r1, #16, #8
.LVL128:
	ldr	ip, [ip, #-3024]
	.loc 1 958 0
	ubfx	r0, r0, #16, #8
.LVL129:
	ldr	r4, [r4, #-2000]
	.loc 1 956 0
	add	r7, r3, r7, lsl #2
	ldr	fp, [fp, #-976]
	.loc 1 957 0
	add	r1, r3, r1, lsl #2
	eor	r4, r4, ip
	ldr	ip, [lr, #-976]
	ldr	lr, [r2, #144]
	.loc 1 958 0
	add	r0, r3, r0, lsl #2
	.loc 1 956 0
	ldr	r7, [r7, #48]
	eor	r9, r9, lr
	ldr	r1, [r1, #-976]
	eor	r9, r9, fp
	.loc 1 957 0
	ldr	lr, [r10, #48]
	.loc 1 955 0
	eor	fp, r9, r6
.LVL130:
	ldr	r6, [r2, #148]
	ldr	r10, [r2, #152]
	eor	r8, r8, r6
	ldr	r6, [r2, #156]
	eor	r8, r8, ip
	.loc 1 959 0
	ldr	ip, [r2, #240]
	ldr	r0, [r0, #-976]
	eor	r4, r4, r6
	eor	r5, r5, r10
	cmp	ip, #10
	str	ip, [sp, #8]
	eor	r5, r5, r1
	.loc 1 958 0
	ldr	r6, [sp, #16]
	eor	r4, r4, r0
	.loc 1 956 0
	eor	r7, r7, r8
.LVL131:
	.loc 1 957 0
	eor	r5, r5, lr
.LVL132:
	.loc 1 958 0
	ldr	r6, [r6, #48]
	eor	r4, r4, r6
.LVL133:
	.loc 1 959 0
	bgt	.L46
.L44:
	.loc 1 1051 0
	mov	r0, fp, lsr #24
	.loc 1 1054 0
	uxtb	r3, r4
	.loc 1 1051 0
	movw	r1, #:lower16:.LANCHOR0
	.loc 1 1052 0
	ubfx	lr, r7, #16, #8
	.loc 1 1051 0
	movt	r1, #:upper16:.LANCHOR0
	add	r0, r1, r0, lsl #2
	ldr	r9, [sp, #8]
	.loc 1 1054 0
	add	r3, r1, r3, lsl #2
	.loc 1 1053 0
	ubfx	r6, r5, #8, #8
	.loc 1 1051 0
	ldr	ip, [r0, #40]
	.loc 1 1052 0
	add	lr, r1, lr, lsl #2
	.loc 1 1054 0
	ldrb	r3, [r3, #40]	@ zero_extendqisi2
	.loc 1 1053 0
	add	r6, r1, r6, lsl #2
	ldr	r0, [r2, r9, asl #4]
	.loc 1 1052 0
	ldr	lr, [lr, #40]
	.loc 1 1058 0
	mov	r8, r7, lsr #24
	.loc 1 1051 0
	and	ip, ip, #-16777216
	.loc 1 1056 0
	ldr	r10, [sp, #4]
	eor	ip, ip, r3
	.loc 1 1053 0
	ldr	r3, [r6, #40]
	.loc 1 1061 0
	uxtb	r6, fp
	eor	ip, ip, r0
	.loc 1 1058 0
	add	r8, r1, r8, lsl #2
	.loc 1 1052 0
	and	r0, lr, #16711680
	.loc 1 1059 0
	ubfx	lr, r5, #16, #8
	eor	r0, r0, ip
	.loc 1 1061 0
	add	r6, r1, r6, lsl #2
	.loc 1 1060 0
	ubfx	ip, r4, #8, #8
	.loc 1 1053 0
	and	r3, r3, #65280
	.loc 1 983 0
	add	r2, r2, r9, lsl #4
.LVL134:
	.loc 1 1050 0
	eor	r3, r3, r0
.LVL135:
	.loc 1 1058 0
	ldr	r8, [r8, #40]
	.loc 1 1059 0
	add	lr, r1, lr, lsl #2
	.loc 1 1061 0
	ldrb	r9, [r6, #40]	@ zero_extendqisi2
	.loc 1 1060 0
	add	ip, r1, ip, lsl #2
	.loc 1 1056 0
	strb	r3, [r10, #3]
	mov	r0, r3, lsr #8
	.loc 1 1058 0
	and	r6, r8, #-16777216
	.loc 1 1056 0
	strb	r0, [r10, #2]
	.loc 1 1065 0
	mov	r8, r5, lsr #24
	.loc 1 1056 0
	mov	r0, r3, lsr #16
	mov	r3, r3, lsr #24
.LVL136:
	strb	r0, [r10, #1]
	eor	r6, r6, r9
	strb	r3, [r10]
	.loc 1 1068 0
	uxtb	r10, r7
	ldr	r3, [r2, #4]
	.loc 1 1075 0
	uxtb	r5, r5
.LVL137:
	.loc 1 1059 0
	ldr	r0, [lr, #40]
	.loc 1 1068 0
	add	r10, r1, r10, lsl #2
	.loc 1 1060 0
	ldr	lr, [ip, #40]
	eor	r9, r6, r3
	.loc 1 1065 0
	add	ip, r1, r8, lsl #2
	.loc 1 1066 0
	ubfx	r6, r4, #16, #8
	.loc 1 1059 0
	and	r0, r0, #16711680
	.loc 1 1060 0
	and	r3, lr, #65280
	eor	r0, r0, r9
	.loc 1 1063 0
	ldr	lr, [sp, #4]
	.loc 1 1067 0
	ubfx	r8, fp, #8, #8
	.loc 1 1057 0
	eor	r3, r3, r0
.LVL138:
	.loc 1 1065 0
	ldr	r9, [ip, #40]
	.loc 1 1066 0
	add	r6, r1, r6, lsl #2
	.loc 1 1068 0
	ldrb	ip, [r10, #40]	@ zero_extendqisi2
	.loc 1 1067 0
	add	r8, r1, r8, lsl #2
	.loc 1 1063 0
	strb	r3, [lr, #7]
	mov	r0, r3, lsr #8
	.loc 1 1066 0
	ldr	r6, [r6, #40]
	.loc 1 1065 0
	and	r9, r9, #-16777216
	.loc 1 1063 0
	strb	r0, [lr, #6]
	.loc 1 1072 0
	mov	r4, r4, lsr #24
.LVL139:
	.loc 1 1063 0
	mov	r0, r3, lsr #16
	mov	r3, r3, lsr #24
.LVL140:
	strb	r0, [lr, #5]
	.loc 1 1075 0
	add	r5, r1, r5, lsl #2
	.loc 1 1063 0
	strb	r3, [lr, #4]
	eor	lr, r9, ip
	ldr	r10, [r2, #8]
	.loc 1 1072 0
	add	r4, r1, r4, lsl #2
	.loc 1 1067 0
	ldr	r3, [r8, #40]
	.loc 1 1066 0
	and	r0, r6, #16711680
	eor	lr, lr, r10
	.loc 1 1073 0
	ubfx	fp, fp, #16, #8
.LVL141:
	eor	lr, lr, r0
	.loc 1 1067 0
	and	r0, r3, #65280
	.loc 1 1064 0
	eor	r0, r0, lr
.LVL142:
	.loc 1 1072 0
	ldr	r4, [r4, #40]
	.loc 1 1075 0
	ldrb	lr, [r5, #40]	@ zero_extendqisi2
	.loc 1 1074 0
	ubfx	r7, r7, #8, #8
.LVL143:
	.loc 1 1070 0
	ldr	r5, [sp, #4]
	.loc 1 1073 0
	add	fp, r1, fp, lsl #2
	.loc 1 1074 0
	add	r7, r1, r7, lsl #2
	.loc 1 1072 0
	and	r4, r4, #-16777216
	.loc 1 1073 0
	ldr	r3, [fp, #40]
	.loc 1 1070 0
	mov	r1, r0, lsr #16
	strb	r0, [r5, #11]
	mov	ip, r0, lsr #8
	strb	r1, [r5, #9]
	mov	r0, r0, lsr #24
.LVL144:
	eor	r4, r4, lr
	strb	ip, [r5, #10]
	strb	r0, [r5, #8]
	.loc 1 1073 0
	and	r0, r3, #16711680
	ldr	lr, [r2, #12]
	.loc 1 1074 0
	ldr	r2, [r7, #40]
.LVL145:
	eor	r3, r4, lr
	and	r2, r2, #65280
	eor	r3, r3, r0
	.loc 1 1071 0
	eor	r3, r3, r2
.LVL146:
	.loc 1 1077 0
	strb	r3, [r5, #15]
	mov	r1, r3, lsr #8
	mov	r2, r3, lsr #16
	strb	r1, [r5, #14]
	mov	r3, r3, lsr #24
.LVL147:
	strb	r2, [r5, #13]
	strb	r3, [r5, #12]
.LVL148:
.L42:
	.loc 1 1083 0
	add	sp, sp, #36
	.cfi_remember_state
	.cfi_def_cfa_offset 36
	@ sp needed
	ldmfd	sp!, {r4, r5, r6, r7, r8, r9, r10, fp, pc}
.LVL149:
.L46:
	.cfi_restore_state
	.loc 1 961 0
	uxtb	r1, r4
	mov	r9, fp, lsr #24
	.loc 1 963 0
	uxtb	r8, r7
	mov	r10, r5, lsr #24
	.loc 1 961 0
	add	r1, r3, r1, lsl #2
	add	r9, r3, r9, lsl #2
	.loc 1 962 0
	mov	ip, r7, lsr #24
	uxtb	r6, fp
	ldr	r1, [r1, #-2000]
	.loc 1 963 0
	add	r8, r3, r8, lsl #2
	add	r10, r3, r10, lsl #2
	ldr	r9, [r9, #-3024]
	.loc 1 964 0
	mov	r0, r4, lsr #24
	uxtb	lr, r5
	str	r1, [sp, #12]
	.loc 1 962 0
	add	ip, r3, ip, lsl #2
	.loc 1 970 0
	ldr	r1, [sp, #8]
	.loc 1 962 0
	add	r6, r3, r6, lsl #2
	ldr	r8, [r8, #-2000]
	.loc 1 964 0
	add	r0, r3, r0, lsl #2
	.loc 1 970 0
	cmp	r1, #12
	ldr	r1, [sp, #12]
	ldr	r10, [r10, #-3024]
	.loc 1 964 0
	add	lr, r3, lr, lsl #2
	eor	r1, r1, r9
	.loc 1 961 0
	ubfx	r9, r7, #16, #8
	ldr	r6, [r6, #-2000]
	eor	r10, r10, r8
	ldr	ip, [ip, #-3024]
	.loc 1 962 0
	ubfx	r8, r5, #16, #8
	ldr	r0, [r0, #-3024]
	.loc 1 961 0
	add	r9, r3, r9, lsl #2
	ldr	lr, [lr, #-2000]
	eor	ip, ip, r6
	.loc 1 962 0
	add	r8, r3, r8, lsl #2
	str	ip, [sp, #12]
	.loc 1 963 0
	ubfx	ip, r4, #16, #8
	eor	lr, lr, r0
	ldr	r0, [r9, #-976]
	.loc 1 964 0
	ubfx	r9, fp, #16, #8
	ldr	r6, [r8, #-976]
	.loc 1 963 0
	add	ip, r3, ip, lsl #2
	ldr	r8, [r2, #160]
	.loc 1 964 0
	ubfx	r7, r7, #8, #8
.LVL150:
	.loc 1 961 0
	ubfx	r5, r5, #8, #8
.LVL151:
	.loc 1 964 0
	add	r9, r3, r9, lsl #2
	eor	r1, r1, r8
	add	r7, r3, r7, lsl #2
	ldr	r8, [ip, #-976]
	.loc 1 961 0
	add	r5, r3, r5, lsl #2
	ldr	ip, [r2, #172]
	eor	r0, r0, r1
	ldr	r9, [r9, #-976]
	.loc 1 963 0
	ubfx	fp, fp, #8, #8
.LVL152:
	.loc 1 961 0
	ldr	r1, [r5, #48]
	eor	lr, lr, ip
	.loc 1 964 0
	ldr	r7, [r7, #48]
	.loc 1 962 0
	ubfx	r4, r4, #8, #8
.LVL153:
	eor	lr, lr, r9
	.loc 1 961 0
	eor	r1, r1, r0
.LVL154:
	.loc 1 964 0
	eor	ip, lr, r7
	.loc 1 963 0
	add	fp, r3, fp, lsl #2
	ldr	r9, [r2, #164]
	.loc 1 962 0
	add	r4, r3, r4, lsl #2
	ldr	r0, [sp, #12]
	ldr	lr, [r2, #168]
	.loc 1 963 0
	ldr	r5, [fp, #48]
	eor	r0, r0, r9
	.loc 1 962 0
	ldr	r4, [r4, #48]
	eor	lr, lr, r10
	eor	r0, r0, r6
	.loc 1 966 0
	mov	fp, r1, lsr #24
	eor	lr, lr, r8
	.loc 1 962 0
	eor	r0, r0, r4
.LVL155:
	.loc 1 963 0
	eor	lr, lr, r5
.LVL156:
	.loc 1 966 0
	uxtb	r4, ip
	ubfx	r10, lr, #8, #8
	add	fp, r3, fp, lsl #2
	add	r3, r3, r4, lsl #2
	movw	r4, #:lower16:.LANCHOR1
	movt	r4, #:upper16:.LANCHOR1
	ldr	fp, [fp, #-3024]
	ubfx	r6, r0, #16, #8
	.loc 1 967 0
	mov	r9, r0, lsr #24
	uxtb	r8, r1
	ubfx	r7, lr, #16, #8
	ubfx	r5, ip, #8, #8
	.loc 1 966 0
	add	r10, r4, r10, lsl #2
	.loc 1 967 0
	add	r9, r4, r9, lsl #2
	.loc 1 966 0
	add	r6, r4, r6, lsl #2
	ldr	r10, [r10, #48]
	.loc 1 967 0
	add	r8, r4, r8, lsl #2
	add	r7, r4, r7, lsl #2
	add	r5, r4, r5, lsl #2
	.loc 1 968 0
	mov	r4, lr, lsr #24
	.loc 1 969 0
	uxtb	lr, lr
.LVL157:
	str	fp, [sp, #12]
	.loc 1 968 0
	movw	fp, #:lower16:.LANCHOR1
	movt	fp, #:upper16:.LANCHOR1
	.loc 1 969 0
	add	lr, fp, lr, lsl #2
	str	lr, [sp, #20]
	.loc 1 968 0
	uxtb	lr, r0
	.loc 1 966 0
	str	r10, [sp, #16]
	.loc 1 969 0
	ubfx	r0, r0, #8, #8
.LVL158:
	ldr	r10, [r9, #-3024]
	.loc 1 968 0
	ubfx	r9, ip, #16, #8
	.loc 1 969 0
	mov	ip, ip, lsr #24
.LVL159:
	.loc 1 968 0
	add	r4, fp, r4, lsl #2
	add	lr, fp, lr, lsl #2
	ldr	r3, [r3, #-2000]
	ldr	r6, [r6, #-976]
	add	r9, fp, r9, lsl #2
	ldr	r8, [r8, #-2000]
	.loc 1 969 0
	add	ip, fp, ip, lsl #2
	add	r0, fp, r0, lsl #2
	ldr	fp, [sp, #12]
	ldr	lr, [lr, #-2000]
	eor	r10, r10, r8
	ldr	r4, [r4, #-3024]
	eor	fp, fp, r3
	ldr	r3, [r2, #176]
	.loc 1 968 0
	movw	r8, #:lower16:.LANCHOR1
	eor	r4, r4, lr
	.loc 1 969 0
	ubfx	lr, r1, #16, #8
	eor	fp, fp, r3
	movw	r3, #:lower16:.LANCHOR1
	eor	fp, fp, r6
	movt	r3, #:upper16:.LANCHOR1
	ldr	r6, [sp, #20]
	add	r3, r3, lr, lsl #2
	.loc 1 966 0
	ldr	lr, [sp, #16]
	.loc 1 968 0
	ubfx	r1, r1, #8, #8
.LVL160:
	movt	r8, #:upper16:.LANCHOR1
	ldr	ip, [ip, #-3024]
	.loc 1 966 0
	eor	fp, fp, lr
.LVL161:
	ldr	lr, [r2, #184]
	.loc 1 968 0
	add	r1, r8, r1, lsl #2
	ldr	r6, [r6, #-2000]
	ldr	r8, [r2, #180]
	eor	r4, r4, lr
	ldr	r7, [r7, #-976]
	eor	r6, r6, ip
	ldr	lr, [r2, #188]
	eor	r10, r10, r8
	ldr	r9, [r9, #-976]
	eor	r7, r7, r10
	ldr	r8, [r3, #-976]
	eor	lr, lr, r6
	.loc 1 967 0
	ldr	r5, [r5, #48]
	eor	r9, r9, r4
	.loc 1 969 0
	ldr	r3, [r0, #48]
	eor	lr, lr, r8
	.loc 1 968 0
	ldr	r10, [r1, #48]
	.loc 1 967 0
	eor	r7, r7, r5
.LVL162:
	.loc 1 969 0
	eor	r4, lr, r3
	.loc 1 968 0
	eor	r5, r9, r10
.LVL163:
	.loc 1 970 0
	ble	.L44
	.loc 1 972 0
	mov	r9, fp, lsr #24
	uxtb	r8, r4
	movw	r3, #:lower16:.LANCHOR1
	.loc 1 975 0
	mov	r6, r4, lsr #24
	.loc 1 972 0
	movt	r3, #:upper16:.LANCHOR1
	.loc 1 975 0
	uxtb	lr, r5
	.loc 1 973 0
	mov	ip, r7, lsr #24
	.loc 1 974 0
	uxtb	r0, r7
	.loc 1 973 0
	uxtb	r1, fp
	.loc 1 972 0
	add	r9, r3, r9, lsl #2
	add	r8, r3, r8, lsl #2
	.loc 1 973 0
	add	ip, r3, ip, lsl #2
	add	r1, r3, r1, lsl #2
	ldr	r9, [r9, #-3024]
	.loc 1 975 0
	add	r6, r3, r6, lsl #2
	add	lr, r3, lr, lsl #2
	.loc 1 974 0
	add	r0, r3, r0, lsl #2
	ldr	r8, [r8, #-2000]
	mov	r3, r5, lsr #24
	movw	r10, #:lower16:.LANCHOR1
	movt	r10, #:upper16:.LANCHOR1
	ldr	r6, [r6, #-3024]
	eor	r8, r9, r8
	add	r3, r10, r3, lsl #2
	str	r8, [sp, #12]
	.loc 1 972 0
	ubfx	r9, r7, #16, #8
	ldr	r8, [ip, #-3024]
	.loc 1 975 0
	ubfx	r7, r7, #8, #8
.LVL164:
	ldr	ip, [r1, #-2000]
	.loc 1 972 0
	add	r9, r10, r9, lsl #2
	ldr	lr, [lr, #-2000]
	.loc 1 975 0
	add	r1, r10, r7, lsl #2
	ldr	r0, [r0, #-2000]
	ldr	r3, [r3, #-3024]
	eor	lr, lr, r6
	eor	r6, r8, ip
	.loc 1 973 0
	ubfx	ip, r5, #16, #8
	str	r6, [sp, #16]
	eor	r8, r3, r0
	.loc 1 975 0
	ubfx	r6, fp, #16, #8
	.loc 1 973 0
	add	ip, r10, ip, lsl #2
	.loc 1 974 0
	ubfx	r0, r4, #16, #8
	ubfx	fp, fp, #8, #8
.LVL165:
	.loc 1 972 0
	ubfx	r5, r5, #8, #8
.LVL166:
	.loc 1 975 0
	str	r1, [sp, #20]
	ldr	r7, [r2, #192]
	add	r3, r10, r6, lsl #2
	ldr	r1, [r9, #-976]
	.loc 1 974 0
	add	fp, r10, fp, lsl #2
	.loc 1 972 0
	add	r5, r10, r5, lsl #2
	.loc 1 974 0
	mov	r9, r10
	add	r0, r10, r0, lsl #2
	.loc 1 973 0
	ubfx	r4, r4, #8, #8
.LVL167:
	ldr	r10, [ip, #-976]
	ldr	ip, [sp, #12]
	add	r4, r9, r4, lsl #2
	ldr	r6, [r2, #204]
	eor	r9, ip, r7
	.loc 1 975 0
	ldr	ip, [sp, #20]
	ldr	r3, [r3, #-976]
	eor	lr, lr, r6
	ldr	r7, [r0, #-976]
	eor	r1, r1, r9
	ldr	ip, [ip, #48]
	eor	r3, r3, lr
	.loc 1 972 0
	ldr	r0, [r5, #48]
	.loc 1 975 0
	eor	r3, r3, ip
	ldr	ip, [r2, #200]
	ldr	r6, [sp, #16]
	.loc 1 972 0
	eor	r1, r1, r0
.LVL168:
	ldr	lr, [r2, #196]
	eor	ip, ip, r8
	.loc 1 974 0
	ldr	r5, [fp, #48]
	eor	ip, ip, r7
	.loc 1 973 0
	ldr	r4, [r4, #48]
	eor	r0, r6, lr
	.loc 1 974 0
	eor	ip, ip, r5
	eor	r0, r0, r10
	.loc 1 973 0
	eor	r0, r0, r4
.LVL169:
	.loc 1 977 0
	mov	lr, r1, lsr #24
	ubfx	r8, ip, #8, #8
	movw	r4, #:lower16:.LANCHOR1
	movt	r4, #:upper16:.LANCHOR1
	.loc 1 978 0
	ubfx	r5, ip, #16, #8
	.loc 1 977 0
	add	lr, r4, lr, lsl #2
	uxtb	r10, r3
	ubfx	r9, r0, #16, #8
	.loc 1 978 0
	mov	r7, r0, lsr #24
	uxtb	r6, r1
	.loc 1 977 0
	add	r8, r4, r8, lsl #2
	ldr	fp, [lr, #-3024]
	add	r10, r4, r10, lsl #2
	ldr	r8, [r8, #48]
	add	r9, r4, r9, lsl #2
	.loc 1 978 0
	add	r7, r4, r7, lsl #2
	add	r6, r4, r6, lsl #2
	.loc 1 979 0
	mov	lr, ip, lsr #24
	.loc 1 978 0
	add	r4, r4, r5, lsl #2
	.loc 1 980 0
	uxtb	r5, ip
	.loc 1 978 0
	str	r4, [sp, #16]
	ubfx	r4, r3, #8, #8
	movw	ip, #:lower16:.LANCHOR1
.LVL170:
	movt	ip, #:upper16:.LANCHOR1
	.loc 1 979 0
	add	lr, ip, lr, lsl #2
	.loc 1 978 0
	add	r4, ip, r4, lsl #2
	.loc 1 980 0
	add	ip, ip, r5, lsl #2
	str	ip, [sp, #20]
	.loc 1 979 0
	uxtb	ip, r0
	.loc 1 977 0
	str	r8, [sp, #12]
	.loc 1 979 0
	movw	r8, #:lower16:.LANCHOR1
	.loc 1 980 0
	ubfx	r0, r0, #8, #8
.LVL171:
	.loc 1 979 0
	movt	r8, #:upper16:.LANCHOR1
	add	ip, r8, ip, lsl #2
	ldr	r10, [r10, #-2000]
	ldr	r9, [r9, #-976]
	.loc 1 980 0
	add	r8, r8, r0, lsl #2
	ldr	r7, [r7, #-3024]
	eor	fp, fp, r10
	.loc 1 978 0
	ldr	r0, [r4, #48]
	ldr	ip, [ip, #-2000]
	ldr	r4, [lr, #-3024]
	.loc 1 979 0
	ubfx	lr, r3, #16, #8
	ldr	r6, [r6, #-2000]
	.loc 1 980 0
	mov	r3, r3, lsr #24
.LVL172:
	ldr	r10, [r2, #208]
	eor	ip, ip, r4
	ubfx	r4, r1, #16, #8
	.loc 1 979 0
	ubfx	r1, r1, #8, #8
.LVL173:
	eor	r7, r7, r6
	movw	r6, #:lower16:.LANCHOR1
	movt	r6, #:upper16:.LANCHOR1
	eor	fp, fp, r10
	add	lr, r6, lr, lsl #2
	.loc 1 980 0
	add	r10, r6, r4, lsl #2
	add	r3, r6, r3, lsl #2
	.loc 1 979 0
	add	r1, r6, r1, lsl #2
	ldr	r6, [r2, #212]
	eor	fp, fp, r9
	ldr	r5, [sp, #16]
	.loc 1 977 0
	ldr	r4, [sp, #12]
	eor	r7, r7, r6
	ldr	r6, [sp, #20]
	ldr	r5, [r5, #-976]
	eor	fp, fp, r4
.LVL174:
	ldr	r4, [r2, #216]
	ldr	lr, [lr, #-976]
	eor	r7, r7, r5
	ldr	r9, [r6, #-2000]
	eor	ip, ip, r4
	ldr	r3, [r3, #-3024]
	eor	ip, ip, lr
	ldr	r5, [r2, #220]
	.loc 1 978 0
	eor	r7, r7, r0
.LVL175:
	eor	r3, r3, r9
	ldr	lr, [r10, #-976]
	eor	r3, r3, r5
	.loc 1 980 0
	ldr	r4, [r8, #48]
	.loc 1 979 0
	ldr	r5, [r1, #48]
	eor	r3, r3, lr
	.loc 1 980 0
	eor	r4, r4, r3
	.loc 1 979 0
	eor	r5, r5, ip
.LVL176:
	b	.L44
	.cfi_endproc
.LFE27:
	.size	AES_encrypt, .-AES_encrypt
	.align	2
	.global	AES_decrypt
	.type	AES_decrypt, %function
AES_decrypt:
.LFB28:
	.loc 1 1090 0
	.cfi_startproc
	@ args = 0, pretend = 0, frame = 32
	@ frame_needed = 0, uses_anonymous_args = 0
.LVL177:
	cmp	r2, #0
	cmpne	r1, #0
	stmfd	sp!, {r4, r5, r6, r7, r8, r9, r10, fp, lr}
	.cfi_def_cfa_offset 36
	.cfi_offset 4, -36
	.cfi_offset 5, -32
	.cfi_offset 6, -28
	.cfi_offset 7, -24
	.cfi_offset 8, -20
	.cfi_offset 9, -16
	.cfi_offset 10, -12
	.cfi_offset 11, -8
	.cfi_offset 14, -4
	moveq	r3, #1
	movne	r3, #0
	.loc 1 1098 0
	cmp	r0, #0
	orreq	r3, r3, #1
	.loc 1 1090 0
	sub	sp, sp, #36
	.cfi_def_cfa_offset 72
	.loc 1 1098 0
	cmp	r3, #0
	mov	fp, r2
	str	r1, [sp, #8]
	str	r2, [sp]
	bne	.L47
.LVL178:
	ldr	ip, [fp]
	.loc 1 1111 0
	movw	r1, #:lower16:.LANCHOR1
.LVL179:
	.loc 1 1105 0
	ldrb	r2, [r0, #3]	@ zero_extendqisi2
.LVL180:
	.loc 1 1111 0
	mov	r4, r1
	.loc 1 1105 0
	ldrb	lr, [r0, #2]	@ zero_extendqisi2
	.loc 1 1111 0
	movt	r4, #:upper16:.LANCHOR1
	.loc 1 1106 0
	ldrb	r1, [r0, #7]	@ zero_extendqisi2
	eor	r2, r2, ip
	ldr	ip, [fp, #4]
	.loc 1 1111 0
	mov	r10, r4
	.loc 1 1106 0
	ldrb	r4, [r0, #6]	@ zero_extendqisi2
	eor	r2, r2, lr, asl #8
	eor	r1, r1, ip
	.loc 1 1108 0
	ldrb	lr, [r0, #15]	@ zero_extendqisi2
	ldr	ip, [fp, #12]
	.loc 1 1111 0
	movw	r3, #:lower16:.LANCHOR0
	.loc 1 1107 0
	ldrb	r5, [r0, #11]	@ zero_extendqisi2
	eor	r1, r1, r4, asl #8
	eor	lr, lr, ip
	ldrb	r4, [r0, #10]	@ zero_extendqisi2
	ldr	ip, [fp, #8]
	.loc 1 1111 0
	movt	r3, #:upper16:.LANCHOR0
	.loc 1 1108 0
	ldrb	r6, [r0, #14]	@ zero_extendqisi2
	eor	ip, ip, r5
	ldrb	r5, [r0, #13]	@ zero_extendqisi2
	eor	ip, ip, r4, asl #8
	.loc 1 1107 0
	ldrb	r4, [r0, #9]	@ zero_extendqisi2
	eor	lr, lr, r6, asl #8
	.loc 1 1105 0
	ldrb	r7, [r0, #1]	@ zero_extendqisi2
	.loc 1 1106 0
	ldrb	r6, [r0, #5]	@ zero_extendqisi2
	eor	lr, lr, r5, asl #16
	.loc 1 1108 0
	ldrb	r5, [r0, #12]	@ zero_extendqisi2
	eor	ip, ip, r4, asl #16
	.loc 1 1107 0
	ldrb	r4, [r0, #8]	@ zero_extendqisi2
	eor	r2, r2, r7, asl #16
	eor	r1, r1, r6, asl #16
	.loc 1 1105 0
	ldrb	r7, [r0]	@ zero_extendqisi2
	.loc 1 1106 0
	ldrb	r6, [r0, #4]	@ zero_extendqisi2
	.loc 1 1108 0
	eor	r0, lr, r5, asl #24
.LVL181:
	.loc 1 1107 0
	eor	ip, ip, r4, asl #24
	.loc 1 1111 0
	ubfx	r4, r0, #16, #8
	.loc 1 1112 0
	ubfx	r5, r0, #8, #8
	str	r5, [sp, #12]
	.loc 1 1105 0
	eor	r2, r2, r7, asl #24
.LVL182:
	.loc 1 1111 0
	add	r4, r3, r4, lsl #2
	str	r4, [sp, #4]
	.loc 1 1113 0
	mov	r5, ip, lsr #24
	.loc 1 1112 0
	ldr	r4, [sp, #12]
	.loc 1 1111 0
	mov	lr, r2, lsr #24
	.loc 1 1113 0
	str	r5, [sp, #20]
	.loc 1 1106 0
	eor	r1, r1, r6, asl #24
.LVL183:
	.loc 1 1111 0
	ubfx	r9, ip, #8, #8
	.loc 1 1112 0
	uxtb	r7, ip
	add	r5, r10, r4, lsl #2
	str	r5, [sp, #16]
	.loc 1 1113 0
	ldr	r5, [sp, #20]
	.loc 1 1111 0
	add	lr, r3, lr, lsl #2
	.loc 1 1114 0
	ubfx	ip, ip, #16, #8
.LVL184:
	.loc 1 1111 0
	uxtb	fp, r1
.LVL185:
	.loc 1 1112 0
	mov	r8, r1, lsr #24
	.loc 1 1111 0
	add	r9, r10, r9, lsl #2
	.loc 1 1113 0
	add	r4, r3, r5, lsl #2
	ldr	r5, [lr, #2088]
	.loc 1 1114 0
	add	lr, r3, ip, lsl #2
	ldr	ip, [sp, #4]
	.loc 1 1111 0
	add	fp, r3, fp, lsl #2
	.loc 1 1113 0
	str	r4, [sp, #20]
	uxtb	r4, r0
	.loc 1 1114 0
	mov	r0, r0, lsr #24
.LVL186:
	ldr	ip, [ip, #3112]
	.loc 1 1112 0
	add	r8, r3, r8, lsl #2
	ldr	fp, [fp, #1064]
	.loc 1 1114 0
	add	r0, r3, r0, lsl #2
	str	lr, [sp, #28]
	.loc 1 1112 0
	add	r7, r3, r7, lsl #2
	.loc 1 1114 0
	str	r0, [sp, #24]
	eor	r5, r5, fp
	str	ip, [sp, #4]
	.loc 1 1113 0
	add	r4, r3, r4, lsl #2
	ldr	fp, [sp]
	ubfx	r0, r1, #16, #8
	.loc 1 1111 0
	ldr	lr, [r9, #-4048]
	.loc 1 1112 0
	ubfx	r6, r2, #16, #8
	ldr	r9, [sp, #20]
	.loc 1 1113 0
	add	r0, r3, r0, lsl #2
	ldr	fp, [fp, #16]
	.loc 1 1112 0
	add	r6, r3, r6, lsl #2
	ldr	r7, [r7, #1064]
	.loc 1 1114 0
	ubfx	r1, r1, #8, #8
.LVL187:
	eor	r5, r5, fp
	ldr	fp, [sp]
	ldr	r8, [r8, #2088]
	add	r1, r10, r1, lsl #2
	ldr	r4, [r4, #1064]
	ldr	r9, [r9, #2088]
	eor	r8, r8, r7
	ldr	r7, [fp, #20]
	.loc 1 1111 0
	str	lr, [sp, #12]
	.loc 1 1114 0
	uxtb	lr, r2
	eor	r9, r9, r4
	eor	r8, r8, r7
	ldr	r4, [sp, #4]
	add	lr, r3, lr, lsl #2
	ldr	r7, [sp, #24]
	.loc 1 1113 0
	ubfx	r2, r2, #8, #8
.LVL188:
	eor	r5, r5, r4
	ldr	r4, [fp, #24]
	ldr	r0, [r0, #3112]
	add	r2, r10, r2, lsl #2
	ldr	fp, [r7, #2088]
	eor	r9, r9, r4
	ldr	r7, [lr, #1064]
	eor	r9, r9, r0
	ldr	lr, [sp]
	ldr	r0, [sp, #28]
	eor	fp, fp, r7
	ldr	r6, [r6, #3112]
	.loc 1 1112 0
	ldr	ip, [sp, #16]
	ldr	lr, [lr, #28]
	eor	r8, r8, r6
	ldr	r6, [r0, #3112]
	eor	r0, fp, lr
	.loc 1 1113 0
	ldr	lr, [r2, #-4048]
	.loc 1 1112 0
	ldr	ip, [ip, #-4048]
	eor	fp, r0, r6
	.loc 1 1111 0
	ldr	r2, [sp, #12]
	.loc 1 1113 0
	eor	lr, lr, r9
	.loc 1 1114 0
	ldr	r4, [r1, #-4048]
	.loc 1 1112 0
	eor	ip, ip, r8
	.loc 1 1111 0
	eor	r1, r5, r2
.LVL189:
	.loc 1 1118 0
	mov	r9, lr, lsr #24
	.loc 1 1114 0
	eor	r0, fp, r4
.LVL190:
	.loc 1 1116 0
	uxtb	r8, ip
	mov	r2, r1, lsr #24
	.loc 1 1117 0
	mov	r7, ip, lsr #24
	uxtb	r6, lr
	.loc 1 1119 0
	mov	r5, r0, lsr #24
	.loc 1 1118 0
	uxtb	r4, r0
	add	r9, r3, r9, lsl #2
	str	r9, [sp, #16]
	.loc 1 1116 0
	ubfx	r9, r0, #16, #8
	add	r2, r3, r2, lsl #2
	add	r8, r3, r8, lsl #2
	.loc 1 1117 0
	add	r7, r3, r7, lsl #2
	add	r6, r3, r6, lsl #2
	.loc 1 1119 0
	uxtb	fp, r1
	add	r5, r3, r5, lsl #2
	.loc 1 1118 0
	add	r4, r3, r4, lsl #2
	.loc 1 1119 0
	str	r5, [sp, #12]
	.loc 1 1117 0
	ubfx	r0, r0, #8, #8
.LVL191:
	.loc 1 1116 0
	mov	r5, r9
	ldr	r8, [r8, #1064]
	add	r5, r3, r5, lsl #2
	ldr	r2, [r2, #2088]
	.loc 1 1117 0
	add	r0, r10, r0, lsl #2
	.loc 1 1116 0
	str	r5, [sp, #4]
	.loc 1 1119 0
	add	fp, r3, fp, lsl #2
	ldr	r7, [r7, #2088]
	.loc 1 1117 0
	ubfx	r9, r1, #16, #8
	ldr	r6, [r6, #1064]
	.loc 1 1118 0
	ubfx	r1, r1, #8, #8
.LVL192:
	ldr	r5, [sp, #12]
	eor	r2, r2, r8
	.loc 1 1117 0
	str	r0, [sp, #12]
	.loc 1 1118 0
	add	r1, r10, r1, lsl #2
	ldr	r0, [r4, #1064]
	eor	r7, r7, r6
	ldr	r4, [sp, #16]
	.loc 1 1119 0
	ubfx	r6, lr, #16, #8
	.loc 1 1118 0
	str	r1, [sp, #20]
	.loc 1 1116 0
	ubfx	lr, lr, #8, #8
.LVL193:
	ldr	r1, [fp, #1064]
	.loc 1 1117 0
	add	r9, r3, r9, lsl #2
	ldr	r5, [r5, #2088]
	.loc 1 1116 0
	add	lr, r10, lr, lsl #2
	ldr	r4, [r4, #2088]
	.loc 1 1119 0
	add	r6, r3, r6, lsl #2
	eor	r5, r5, r1
	.loc 1 1118 0
	ubfx	r1, ip, #16, #8
	ldr	r8, [sp, #4]
	eor	r4, r4, r0
	ldr	r0, [sp]
	add	r1, r3, r1, lsl #2
	.loc 1 1119 0
	ubfx	ip, ip, #8, #8
.LVL194:
	str	r10, [sp, #4]
	ldr	fp, [r8, #3112]
	ldr	r8, [r1, #3112]
	add	ip, r10, ip, lsl #2
	ldr	r1, [r0, #32]
	ldr	r9, [r9, #3112]
	eor	r2, r2, r1
	mov	r1, r0
	ldr	r1, [r1, #44]
	eor	r2, r2, fp
	ldr	r0, [r0, #36]
	eor	r5, r5, r1
	ldr	r1, [sp]
	eor	r7, r7, r0
	.loc 1 1117 0
	ldr	r0, [sp, #12]
	mov	r10, r2
.LVL195:
	.loc 1 1116 0
	ldr	r2, [lr, #-4048]
	ldr	r6, [r6, #3112]
	eor	r7, r7, r9
	.loc 1 1117 0
	ldr	fp, [r0, #-4048]
	.loc 1 1116 0
	eor	r2, r2, r10
.LVL196:
	ldr	r0, [r1, #40]
	eor	r5, r5, r6
	.loc 1 1118 0
	ldr	r1, [sp, #20]
	.loc 1 1117 0
	eor	fp, fp, r7
.LVL197:
	eor	r0, r0, r4
	.loc 1 1124 0
	uxtb	r10, r2
	eor	r0, r0, r8
	str	r10, [sp, #16]
	.loc 1 1118 0
	ldr	lr, [r1, #-4048]
	.loc 1 1121 0
	mov	r4, r2, lsr #24
	.loc 1 1119 0
	ldr	r1, [ip, #-4048]
	.loc 1 1122 0
	mov	r9, fp, lsr #24
	.loc 1 1118 0
	eor	r0, r0, lr
.LVL198:
	.loc 1 1121 0
	ldr	r10, [sp, #4]
	.loc 1 1119 0
	eor	r1, r1, r5
.LVL199:
	.loc 1 1121 0
	ubfx	r5, r0, #8, #8
	uxtb	lr, fp
	.loc 1 1122 0
	uxtb	r8, r0
	.loc 1 1121 0
	add	r5, r10, r5, lsl #2
	str	r5, [sp, #12]
	.loc 1 1124 0
	ldr	r5, [sp, #16]
	.loc 1 1121 0
	add	r4, r3, r4, lsl #2
	add	lr, r3, lr, lsl #2
	ubfx	ip, r1, #16, #8
	.loc 1 1124 0
	mov	r7, r1, lsr #24
	.loc 1 1123 0
	uxtb	r6, r1
	.loc 1 1122 0
	add	r9, r3, r9, lsl #2
	.loc 1 1124 0
	add	r5, r3, r5, lsl #2
	ldr	r4, [r4, #2088]
	.loc 1 1122 0
	add	r8, r3, r8, lsl #2
	.loc 1 1124 0
	str	r5, [sp, #16]
	.loc 1 1122 0
	ubfx	r1, r1, #8, #8
.LVL200:
	ldr	lr, [lr, #1064]
	.loc 1 1121 0
	add	ip, r3, ip, lsl #2
	.loc 1 1122 0
	add	r1, r10, r1, lsl #2
	ldr	r8, [r8, #1064]
	str	r1, [sp, #20]
	eor	r4, r4, lr
	.loc 1 1121 0
	ldr	r1, [sp, #12]
	.loc 1 1123 0
	add	r6, r3, r6, lsl #2
	ldr	lr, [r9, #2088]
	mov	r5, r0, lsr #24
	ldr	ip, [ip, #3112]
	.loc 1 1124 0
	add	r7, r3, r7, lsl #2
	eor	r8, r8, lr
	ldr	lr, [sp, #16]
	.loc 1 1121 0
	ldr	r1, [r1, #-4048]
	.loc 1 1123 0
	add	r5, r3, r5, lsl #2
	str	ip, [sp, #4]
.LVL201:
	.loc 1 1124 0
	ubfx	r0, r0, #16, #8
.LVL202:
	ldr	ip, [r6, #1064]
	ldr	r6, [lr, #1064]
	add	r0, r3, r0, lsl #2
	ldr	lr, [sp]
	.loc 1 1121 0
	str	r1, [sp, #12]
	.loc 1 1122 0
	ubfx	r1, r2, #16, #8
	ldr	r5, [r5, #2088]
	.loc 1 1123 0
	ubfx	r2, r2, #8, #8
.LVL203:
	ldr	r9, [lr, #48]
	.loc 1 1122 0
	add	r1, r3, r1, lsl #2
	eor	r5, r5, ip
	ldr	ip, [sp, #4]
	ldr	lr, [r1, #3112]
	eor	r4, r4, r9
	ldr	r1, [sp]
	eor	r4, r4, ip
	ldr	r7, [r7, #2088]
	.loc 1 1123 0
	ubfx	r9, fp, #16, #8
	.loc 1 1121 0
	ldr	ip, [sp, #12]
	.loc 1 1124 0
	ubfx	fp, fp, #8, #8
.LVL204:
	str	lr, [sp, #16]
	eor	r7, r7, r6
	ldr	lr, [r1, #52]
	add	fp, r10, fp, lsl #2
	ldr	r6, [r1, #60]
	.loc 1 1121 0
	eor	r1, r4, ip
.LVL205:
	ldr	ip, [sp]
	.loc 1 1123 0
	add	r9, r3, r9, lsl #2
	add	r2, r10, r2, lsl #2
	ldr	r0, [r0, #3112]
	eor	r8, r8, lr
	.loc 1 1122 0
	ldr	lr, [sp, #20]
	ldr	ip, [ip, #56]
	eor	r7, r7, r6
	ldr	r9, [r9, #3112]
	eor	r0, r0, r7
	.loc 1 1124 0
	ldr	fp, [fp, #-4048]
	eor	r5, r5, ip
	.loc 1 1123 0
	ldr	r4, [r2, #-4048]
	eor	r5, r5, r9
	ldr	r2, [sp, #16]
	.loc 1 1124 0
	eor	r0, r0, fp
	.loc 1 1122 0
	ldr	lr, [lr, #-4048]
	.loc 1 1123 0
	eor	ip, r5, r4
	eor	r8, r8, r2
	.loc 1 1126 0
	mov	r9, r1, lsr #24
	.loc 1 1122 0
	eor	r2, r8, lr
.LVL206:
	.loc 1 1129 0
	mov	lr, r0, lsr #24
	.loc 1 1128 0
	mov	r5, ip, lsr #24
	uxtb	r4, r0
	.loc 1 1129 0
	add	lr, r3, lr, lsl #2
	.loc 1 1126 0
	add	r9, r3, r9, lsl #2
	.loc 1 1129 0
	str	lr, [sp, #16]
	.loc 1 1126 0
	ubfx	lr, r0, #16, #8
	.loc 1 1127 0
	mov	r7, r2, lsr #24
	uxtb	r6, ip
	.loc 1 1128 0
	add	r5, r3, r5, lsl #2
	add	r4, r3, r4, lsl #2
	ldr	r9, [r9, #2088]
	.loc 1 1126 0
	add	lr, r3, lr, lsl #2
	str	lr, [sp, #4]
	.loc 1 1129 0
	ubfx	lr, ip, #16, #8
	ldr	r4, [r4, #1064]
	.loc 1 1126 0
	uxtb	r8, r2
	.loc 1 1129 0
	uxtb	fp, r1
	ldr	r5, [r5, #2088]
	.loc 1 1127 0
	add	r7, r3, r7, lsl #2
	add	r6, r3, r6, lsl #2
	.loc 1 1129 0
	add	lr, r3, lr, lsl #2
	.loc 1 1126 0
	ubfx	ip, ip, #8, #8
.LVL207:
	.loc 1 1129 0
	str	lr, [sp, #20]
	add	fp, r3, fp, lsl #2
	ldr	lr, [sp, #16]
	eor	r5, r5, r4
	ldr	r6, [r6, #1064]
	.loc 1 1128 0
	ubfx	r4, r2, #16, #8
	ldr	r7, [r7, #2088]
	.loc 1 1126 0
	add	r8, r3, r8, lsl #2
	.loc 1 1127 0
	ubfx	r0, r0, #8, #8
.LVL208:
	.loc 1 1126 0
	add	ip, r10, ip, lsl #2
	str	ip, [sp, #12]
	eor	r7, r7, r6
	ldr	ip, [sp]
	.loc 1 1127 0
	add	r0, r10, r0, lsl #2
	ldr	r8, [r8, #1064]
	.loc 1 1128 0
	add	r4, r3, r4, lsl #2
	.loc 1 1127 0
	str	r0, [sp, #16]
	.loc 1 1129 0
	ubfx	r2, r2, #8, #8
.LVL209:
	ldr	r0, [fp, #1064]
	eor	r9, r9, r8
	ldr	r6, [sp, #4]
	add	r2, r10, r2, lsl #2
	ldr	lr, [lr, #2088]
	ldr	r8, [ip, #64]
	.loc 1 1127 0
	ubfx	ip, r1, #16, #8
	eor	lr, lr, r0
	ldr	r0, [r4, #3112]
	ldr	r4, [sp]
	eor	r9, r9, r8
	ldr	fp, [r6, #3112]
	.loc 1 1128 0
	ubfx	r1, r1, #8, #8
.LVL210:
	.loc 1 1126 0
	ldr	r8, [sp, #12]
	.loc 1 1127 0
	add	ip, r3, ip, lsl #2
	eor	fp, fp, r9
	ldr	r9, [r4, #68]
	ldr	r4, [r4, #72]
	.loc 1 1128 0
	add	r1, r10, r1, lsl #2
	ldr	r6, [sp, #20]
	eor	r7, r7, r9
	eor	r5, r5, r4
	ldr	r4, [sp]
	.loc 1 1127 0
	ldr	r9, [sp, #16]
	eor	r5, r5, r0
	ldr	ip, [ip, #3112]
	ldr	r4, [r4, #76]
	.loc 1 1128 0
	ldr	r1, [r1, #-4048]
	eor	r7, r7, ip
	.loc 1 1126 0
	ldr	r8, [r8, #-4048]
	eor	ip, lr, r4
	ldr	r6, [r6, #3112]
	.loc 1 1128 0
	eor	r5, r5, r1
	.loc 1 1126 0
	eor	r8, r8, fp
.LVL211:
	.loc 1 1127 0
	ldr	r9, [r9, #-4048]
	.loc 1 1129 0
	ldr	r2, [r2, #-4048]
	eor	ip, ip, r6
	.loc 1 1131 0
	mov	fp, r8, lsr #24
	.loc 1 1127 0
	eor	r6, r7, r9
.LVL212:
	.loc 1 1129 0
	eor	ip, ip, r2
.LVL213:
	.loc 1 1133 0
	mov	r9, r5, lsr #24
	.loc 1 1131 0
	add	fp, r3, fp, lsl #2
	.loc 1 1132 0
	mov	r2, r6, lsr #24
	.loc 1 1134 0
	mov	r0, ip, lsr #24
	.loc 1 1133 0
	uxtb	r4, ip
	add	r9, r3, r9, lsl #2
	str	r9, [sp, #16]
	.loc 1 1131 0
	ubfx	r9, ip, #16, #8
	.loc 1 1132 0
	ubfx	ip, ip, #8, #8
.LVL214:
	ldr	fp, [fp, #2088]
	.loc 1 1133 0
	add	r4, r3, r4, lsl #2
	.loc 1 1132 0
	add	ip, r10, ip, lsl #2
	str	ip, [sp, #12]
	ldr	ip, [sp, #16]
	uxtb	r7, r5
	.loc 1 1131 0
	uxtb	r1, r6
	ldr	r4, [r4, #1064]
	.loc 1 1132 0
	add	r2, r3, r2, lsl #2
	add	r7, r3, r7, lsl #2
	ldr	ip, [ip, #2088]
	.loc 1 1134 0
	uxtb	lr, r8
	str	fp, [sp, #4]
	.loc 1 1131 0
	add	r1, r3, r1, lsl #2
	.loc 1 1132 0
	ubfx	fp, r8, #16, #8
	eor	r4, r4, ip
	.loc 1 1133 0
	ubfx	r8, r8, #8, #8
.LVL215:
	ldr	ip, [sp]
	ldr	r7, [r7, #1064]
	.loc 1 1134 0
	add	r0, r3, r0, lsl #2
	ldr	r2, [r2, #2088]
	.loc 1 1133 0
	add	r8, r10, r8, lsl #2
	ldr	r1, [r1, #1064]
	.loc 1 1134 0
	add	lr, r3, lr, lsl #2
	.loc 1 1133 0
	str	r8, [sp, #20]
	eor	r2, r2, r7
	ldr	r8, [sp, #4]
	.loc 1 1132 0
	add	fp, r3, fp, lsl #2
	ldr	r7, [ip, #80]
	.loc 1 1131 0
	add	r9, r3, r9, lsl #2
	eor	r1, r1, r8
	ldr	lr, [lr, #1064]
	ldr	r0, [r0, #2088]
	eor	r1, r1, r7
	ldr	r7, [ip, #84]
	.loc 1 1134 0
	ubfx	r8, r5, #16, #8
	eor	r0, r0, lr
	ldr	fp, [fp, #3112]
	eor	r2, r2, r7
	.loc 1 1133 0
	ubfx	lr, r6, #16, #8
	mov	r7, ip
	ldr	ip, [ip, #92]
	ldr	r9, [r9, #3112]
	eor	fp, fp, r2
	eor	r0, r0, ip
	.loc 1 1132 0
	ldr	r2, [sp, #12]
	.loc 1 1133 0
	ldr	ip, [sp, #20]
	.loc 1 1134 0
	ubfx	r6, r6, #8, #8
.LVL216:
	.loc 1 1133 0
	add	lr, r3, lr, lsl #2
	eor	r1, r1, r9
	.loc 1 1131 0
	ubfx	r5, r5, #8, #8
.LVL217:
	ldr	r9, [r7, #88]
	.loc 1 1134 0
	add	r8, r3, r8, lsl #2
	ldr	lr, [lr, #3112]
	add	r6, r10, r6, lsl #2
	.loc 1 1133 0
	ldr	r7, [ip, #-4048]
	ldr	r8, [r8, #3112]
	.loc 1 1131 0
	add	r5, r10, r5, lsl #2
	.loc 1 1132 0
	ldr	r2, [r2, #-4048]
	eor	r4, r4, r9
	.loc 1 1134 0
	ldr	r6, [r6, #-4048]
	eor	r4, r4, lr
	.loc 1 1133 0
	eor	ip, r4, r7
	.loc 1 1132 0
	eor	r2, r2, fp
	.loc 1 1131 0
	ldr	r5, [r5, #-4048]
	eor	r0, r0, r8
	.loc 1 1134 0
	eor	r0, r0, r6
	.loc 1 1132 0
	str	r2, [sp, #4]
	.loc 1 1131 0
	eor	r1, r1, r5
.LVL218:
	.loc 1 1136 0
	ubfx	r4, r0, #16, #8
	.loc 1 1137 0
	mov	r8, r2, lsr #24
	.loc 1 1138 0
	mov	r2, ip, lsr #24
.LVL219:
	.loc 1 1136 0
	ldrb	fp, [sp, #4]	@ zero_extendqisi2
	mov	lr, r1, lsr #24
	add	r4, r3, r4, lsl #2
	str	r4, [sp, #12]
	.loc 1 1138 0
	add	r4, r3, r2, lsl #2
	.loc 1 1136 0
	ubfx	r9, ip, #8, #8
	.loc 1 1137 0
	uxtb	r7, ip
	ubfx	r5, r0, #8, #8
	.loc 1 1138 0
	mov	r2, r4
	.loc 1 1136 0
	add	lr, r3, lr, lsl #2
	.loc 1 1138 0
	uxtb	r4, r0
	.loc 1 1136 0
	add	fp, r3, fp, lsl #2
	.loc 1 1139 0
	ubfx	ip, ip, #16, #8
.LVL220:
	mov	r0, r0, lsr #24
.LVL221:
	ldr	lr, [lr, #2088]
	.loc 1 1137 0
	ubfx	r6, r1, #16, #8
	.loc 1 1139 0
	add	ip, r3, ip, lsl #2
	add	r0, r3, r0, lsl #2
	str	ip, [sp, #24]
	.loc 1 1138 0
	ubfx	ip, r1, #8, #8
	.loc 1 1139 0
	str	r0, [sp, #16]
	uxtb	r0, r1
	ldr	fp, [fp, #1064]
	.loc 1 1136 0
	add	r9, r10, r9, lsl #2
	.loc 1 1139 0
	add	r1, r3, r0, lsl #2
.LVL222:
	str	r1, [sp, #20]
	eor	lr, lr, fp
	ldr	r1, [sp, #12]
	ldr	fp, [sp]
	.loc 1 1137 0
	add	r8, r3, r8, lsl #2
	add	r7, r3, r7, lsl #2
	.loc 1 1136 0
	ldr	r9, [r9, #-4048]
	ldr	r0, [r1, #3112]
	.loc 1 1138 0
	add	r1, r10, ip, lsl #2
	str	r1, [sp, #12]
	add	r4, r3, r4, lsl #2
	ldr	r1, [fp, #96]
	.loc 1 1137 0
	add	r6, r3, r6, lsl #2
	ldr	ip, [r2, #2088]
	add	r5, r10, r5, lsl #2
	.loc 1 1138 0
	ldr	r2, [sp, #4]
	eor	lr, lr, r1
	eor	lr, lr, r0
	ldr	r0, [sp, #16]
	ldr	r7, [r7, #1064]
	ubfx	r1, r2, #16, #8
	ldr	r8, [r8, #2088]
	.loc 1 1139 0
	ubfx	r2, r2, #8, #8
	ldr	r6, [r6, #3112]
	eor	r8, r8, r7
	ldr	r7, [r4, #1064]
	.loc 1 1138 0
	add	r4, r3, r1, lsl #2
	.loc 1 1136 0
	eor	r1, lr, r9
.LVL223:
	ldr	r9, [r0, #2088]
	eor	ip, ip, r7
	ldr	r0, [sp, #20]
	.loc 1 1139 0
	add	r2, r10, r2, lsl #2
	ldr	r7, [fp, #100]
	ldr	lr, [fp, #104]
	ldr	fp, [r0, #1064]
	eor	r8, r8, r7
	ldr	r0, [sp]
	eor	r7, ip, lr
	eor	r9, r9, fp
	ldr	ip, [sp, #24]
	eor	r8, r8, r6
	.loc 1 1137 0
	ldr	r5, [r5, #-4048]
	ldr	r0, [r0, #108]
	ldr	r6, [ip, #3112]
	eor	r9, r9, r0
	.loc 1 1139 0
	ldr	r0, [r2, #-4048]
	.loc 1 1138 0
	ldr	r2, [sp, #12]
	eor	r9, r9, r6
	ldr	ip, [r4, #3112]
	.loc 1 1139 0
	eor	r0, r0, r9
	.loc 1 1141 0
	mov	r9, r1, lsr #24
	.loc 1 1144 0
	uxtb	r4, r1
	.loc 1 1138 0
	ldr	r2, [r2, #-4048]
	eor	r7, r7, ip
	.loc 1 1137 0
	eor	ip, r8, r5
.LVL224:
	.loc 1 1141 0
	add	r9, r3, r9, lsl #2
	.loc 1 1138 0
	eor	lr, r7, r2
.LVL225:
	.loc 1 1144 0
	mov	r6, r0, lsr #24
	.loc 1 1141 0
	uxtb	r2, ip
	.loc 1 1142 0
	mov	r8, ip, lsr #24
	.loc 1 1143 0
	mov	fp, lr, lsr #24
	.loc 1 1142 0
	uxtb	r7, lr
	.loc 1 1141 0
	add	r2, r3, r2, lsl #2
	.loc 1 1142 0
	add	r8, r3, r8, lsl #2
	.loc 1 1143 0
	add	fp, r3, fp, lsl #2
	str	fp, [sp, #20]
	.loc 1 1141 0
	ubfx	fp, r0, #16, #8
	.loc 1 1143 0
	uxtb	r5, r0
	.loc 1 1142 0
	add	r7, r3, r7, lsl #2
	ldr	r9, [r9, #2088]
	.loc 1 1141 0
	add	fp, r3, fp, lsl #2
	str	fp, [sp, #4]
.LVL226:
	.loc 1 1142 0
	ubfx	fp, r1, #16, #8
	.loc 1 1143 0
	ubfx	r1, r1, #8, #8
.LVL227:
	ldr	r2, [r2, #1064]
	.loc 1 1144 0
	add	r6, r3, r6, lsl #2
	ldr	r8, [r8, #2088]
	.loc 1 1143 0
	add	r1, r10, r1, lsl #2
	.loc 1 1142 0
	str	fp, [sp, #12]
	.loc 1 1143 0
	add	r5, r3, r5, lsl #2
	str	r1, [sp, #24]
	.loc 1 1144 0
	add	r4, r3, r4, lsl #2
	ldr	r1, [sp, #20]
	.loc 1 1142 0
	ubfx	r0, r0, #8, #8
.LVL228:
	ldr	fp, [r7, #1064]
	eor	r2, r2, r9
	ldr	r7, [sp, #12]
	add	r0, r10, r0, lsl #2
	ldr	r4, [r4, #1064]
	eor	r8, r8, fp
	str	r0, [sp, #16]
	ldr	r6, [r6, #2088]
	add	r7, r3, r7, lsl #2
	ldr	r0, [r1, #2088]
	.loc 1 1143 0
	ubfx	r1, ip, #16, #8
	ldr	r5, [r5, #1064]
	eor	r6, r6, r4
	.loc 1 1142 0
	str	r7, [sp, #12]
	.loc 1 1143 0
	add	r1, r3, r1, lsl #2
	ldr	r4, [sp, #12]
	eor	r5, r5, r0
	ldr	r0, [sp]
	.loc 1 1144 0
	ubfx	r7, lr, #16, #8
	ldr	fp, [sp, #4]
	.loc 1 1141 0
	ubfx	lr, lr, #8, #8
.LVL229:
	ldr	r9, [r4, #3112]
	.loc 1 1144 0
	ubfx	ip, ip, #8, #8
.LVL230:
	ldr	r4, [r1, #3112]
	.loc 1 1141 0
	add	lr, r10, lr, lsl #2
	ldr	r1, [r0, #112]
	.loc 1 1144 0
	add	ip, r10, ip, lsl #2
	ldr	fp, [fp, #3112]
	add	r7, r3, r7, lsl #2
	eor	r2, r2, r1
	ldr	r1, [r0, #116]
	str	r10, [sp, #4]
	mov	r10, r0
	eor	r8, r8, r1
	ldr	r7, [r7, #3112]
	eor	r1, r8, r9
	.loc 1 1142 0
	ldr	r8, [sp, #16]
	ldr	r9, [r10, #124]
	eor	r2, r2, fp
	ldr	r0, [r0, #120]
	ldr	fp, [r8, #-4048]
	eor	r6, r6, r9
	.loc 1 1143 0
	ldr	r8, [sp, #24]
	eor	r6, r6, r7
	.loc 1 1144 0
	ldr	ip, [ip, #-4048]
	.loc 1 1142 0
	eor	fp, fp, r1
	.loc 1 1141 0
	ldr	lr, [lr, #-4048]
	eor	r5, r5, r0
	.loc 1 1144 0
	eor	r1, r6, ip
	.loc 1 1143 0
	ldr	r8, [r8, #-4048]
	.loc 1 1141 0
	eor	r2, r2, lr
.LVL231:
	eor	r5, r5, r4
	.loc 1 1146 0
	ubfx	ip, r1, #16, #8
	.loc 1 1143 0
	eor	r0, r5, r8
.LVL232:
	.loc 1 1149 0
	uxtb	r10, r2
	.loc 1 1146 0
	ubfx	r5, r0, #8, #8
	.loc 1 1149 0
	mov	r7, r1, lsr #24
	.loc 1 1148 0
	uxtb	r6, r1
	.loc 1 1149 0
	str	r10, [sp, #16]
	.loc 1 1146 0
	add	ip, r3, ip, lsl #2
	ldr	r10, [sp, #4]
	.loc 1 1147 0
	ubfx	r1, r1, #8, #8
.LVL233:
	.loc 1 1146 0
	mov	r4, r2, lsr #24
	uxtb	lr, fp
	add	r5, r10, r5, lsl #2
	.loc 1 1147 0
	add	r1, r10, r1, lsl #2
	.loc 1 1146 0
	str	r5, [sp, #12]
	.loc 1 1147 0
	mov	r9, fp, lsr #24
	.loc 1 1149 0
	ldr	r5, [sp, #16]
	.loc 1 1147 0
	uxtb	r8, r0
	ldr	ip, [ip, #3112]
	.loc 1 1146 0
	add	r4, r3, r4, lsl #2
	.loc 1 1147 0
	str	r1, [sp, #20]
	.loc 1 1146 0
	add	lr, r3, lr, lsl #2
	ldr	r1, [sp, #12]
	.loc 1 1147 0
	add	r9, r3, r9, lsl #2
	str	ip, [sp, #4]
	add	r8, r3, r8, lsl #2
	ldr	lr, [lr, #1064]
	.loc 1 1149 0
	add	r5, r3, r5, lsl #2
	.loc 1 1146 0
	ldr	ip, [r1, #-4048]
	.loc 1 1148 0
	add	r6, r3, r6, lsl #2
	ldr	r4, [r4, #2088]
	.loc 1 1147 0
	ubfx	r1, r2, #16, #8
	.loc 1 1149 0
	str	r5, [sp, #16]
	.loc 1 1148 0
	mov	r5, r0, lsr #24
	.loc 1 1146 0
	str	ip, [sp, #12]
	eor	r4, r4, lr
	ldr	ip, [r8, #1064]
	.loc 1 1148 0
	add	r5, r3, r5, lsl #2
	ldr	lr, [r9, #2088]
	.loc 1 1147 0
	add	r1, r3, r1, lsl #2
	ldr	r5, [r5, #2088]
	.loc 1 1149 0
	add	r7, r3, r7, lsl #2
	eor	ip, ip, lr
	ldr	lr, [sp, #16]
	ldr	r6, [r6, #1064]
	ubfx	r0, r0, #16, #8
.LVL234:
	ldr	r7, [r7, #2088]
	.loc 1 1148 0
	ubfx	r2, r2, #8, #8
.LVL235:
	ldr	r8, [lr, #1064]
	eor	r6, r6, r5
	ldr	lr, [sp]
	.loc 1 1149 0
	add	r0, r3, r0, lsl #2
	ldr	r5, [sp]
	eor	r7, r7, r8
	ldr	r8, [r0, #3112]
	.loc 1 1148 0
	add	r2, r10, r2, lsl #2
	ldr	r9, [lr, #128]
	ldr	lr, [r1, #3112]
	ldr	r1, [r5, #132]
	eor	r4, r4, r9
	ubfx	r9, fp, #16, #8
	.loc 1 1149 0
	ubfx	fp, fp, #8, #8
.LVL236:
	ldr	r0, [sp, #4]
	eor	ip, ip, r1
	.loc 1 1147 0
	ldr	r1, [sp, #20]
	.loc 1 1149 0
	add	fp, r10, fp, lsl #2
	str	lr, [sp, #16]
	.loc 1 1148 0
	add	r9, r3, r9, lsl #2
	.loc 1 1146 0
	ldr	lr, [sp, #12]
	eor	r4, r4, r0
	ldr	r0, [r5, #140]
	ldr	r5, [r5, #136]
	eor	lr, r4, lr
.LVL237:
	ldr	r9, [r9, #3112]
	eor	r7, r7, r0
	.loc 1 1147 0
	ldr	r1, [r1, #-4048]
	eor	r6, r6, r5
	.loc 1 1148 0
	ldr	r4, [r2, #-4048]
	eor	r0, r7, r8
	.loc 1 1149 0
	ldr	fp, [fp, #-4048]
	eor	r6, r6, r9
	ldr	r2, [sp, #16]
	.loc 1 1151 0
	mov	r9, lr, lsr #24
	.loc 1 1149 0
	eor	r0, r0, fp
	eor	ip, ip, r2
	.loc 1 1151 0
	add	r9, r3, r9, lsl #2
	.loc 1 1147 0
	eor	r2, ip, r1
.LVL238:
	.loc 1 1148 0
	eor	r1, r6, r4
.LVL239:
	.loc 1 1154 0
	uxtb	r4, lr
	.loc 1 1153 0
	uxtb	ip, r0
	.loc 1 1151 0
	uxtb	r8, r2
	.loc 1 1152 0
	uxtb	r6, r1
	.loc 1 1154 0
	add	r4, r3, r4, lsl #2
	str	r4, [sp, #24]
	.loc 1 1151 0
	ubfx	r4, r0, #16, #8
	.loc 1 1153 0
	mov	r5, r1, lsr #24
	.loc 1 1154 0
	mov	fp, r0, lsr #24
	.loc 1 1153 0
	add	ip, r3, ip, lsl #2
	.loc 1 1152 0
	ubfx	r0, r0, #8, #8
.LVL240:
	.loc 1 1153 0
	str	ip, [sp, #16]
	.loc 1 1151 0
	mov	ip, r4
	ubfx	r4, r1, #8, #8
	.loc 1 1154 0
	ubfx	r1, r1, #16, #8
.LVL241:
	.loc 1 1151 0
	add	r8, r3, r8, lsl #2
	.loc 1 1152 0
	add	r6, r3, r6, lsl #2
	add	r0, r10, r0, lsl #2
	.loc 1 1154 0
	add	r1, r3, r1, lsl #2
	str	r1, [sp, #28]
	.loc 1 1152 0
	ubfx	r1, lr, #16, #8
	.loc 1 1153 0
	ubfx	lr, lr, #8, #8
.LVL242:
	.loc 1 1151 0
	add	ip, r3, ip, lsl #2
	str	ip, [sp, #4]
	add	ip, r10, r4, lsl #2
	ldr	r4, [r8, #1064]
	.loc 1 1153 0
	movw	r8, #:lower16:.LANCHOR1
	.loc 1 1152 0
	mov	r10, r0
	mov	r7, r2, lsr #24
	ldr	r0, [r9, #2088]
	.loc 1 1153 0
	movt	r8, #:upper16:.LANCHOR1
	add	lr, r8, lr, lsl #2
	str	lr, [sp, #20]
	.loc 1 1154 0
	movw	r9, #:lower16:.LANCHOR1
	ldr	lr, [r6, #1064]
	.loc 1 1153 0
	ubfx	r6, r2, #16, #8
	.loc 1 1154 0
	ubfx	r2, r2, #8, #8
.LVL243:
	.loc 1 1151 0
	str	ip, [sp, #12]
	ldr	ip, [sp, #16]
	eor	r0, r0, r4
	.loc 1 1153 0
	add	r5, r3, r5, lsl #2
	ldr	r4, [sp]
	.loc 1 1154 0
	movt	r9, #:upper16:.LANCHOR1
	add	r9, r9, r2, lsl #2
	ldr	r2, [sp, #24]
	add	fp, r3, fp, lsl #2
	ldr	ip, [ip, #1064]
	.loc 1 1152 0
	add	r1, r3, r1, lsl #2
	ldr	r5, [r5, #2088]
	add	r7, r3, r7, lsl #2
	ldr	r8, [fp, #2088]
	.loc 1 1153 0
	add	r6, r3, r6, lsl #2
	ldr	fp, [r4, #144]
	eor	r5, r5, ip
	ldr	r2, [r2, #1064]
	ldr	r4, [sp, #4]
	eor	r0, r0, fp
	.loc 1 1151 0
	ldr	ip, [sp, #12]
	eor	r8, r8, r2
	ldr	r2, [r1, #3112]
	.loc 1 1154 0
	mov	fp, r3
	.loc 1 1152 0
	ldr	r1, [r10, #-4048]
	ldr	r10, [sp]
	ldr	r7, [r7, #2088]
	ldr	r4, [r4, #3112]
	.loc 1 1151 0
	ldr	ip, [ip, #-4048]
	eor	lr, lr, r7
	eor	r0, r0, r4
	ldr	r7, [r10, #148]
	.loc 1 1153 0
	ldr	r4, [sp, #20]
	.loc 1 1151 0
	eor	r0, r0, ip
	ldr	ip, [r10, #152]
	eor	lr, lr, r7
	str	r0, [sp, #4]
.LVL244:
	eor	lr, lr, r2
	ldr	r0, [r6, #3112]
.LVL245:
	eor	r5, r5, ip
	.loc 1 1153 0
	ldr	r4, [r4, #-4048]
	.loc 1 1152 0
	eor	lr, lr, r1
	ldr	ip, [r10, #156]
	eor	r5, r5, r0
	ldr	r2, [sp, #28]
.LVL246:
	eor	r8, r8, ip
	.loc 1 1154 0
	ldr	r0, [r9, #-4048]
	.loc 1 1153 0
	eor	ip, r5, r4
.LVL247:
	ldr	r6, [r2, #3112]
	.loc 1 1155 0
	ldr	r2, [r10, #240]
	eor	r8, r8, r6
	cmp	r2, #10
	.loc 1 1154 0
	eor	r8, r8, r0
.LVL248:
	.loc 1 1155 0
	str	r2, [sp, #12]
	bgt	.L51
.L49:
	.loc 1 1247 0
	ldr	r7, [sp, #4]
	.loc 1 1250 0
	uxtb	r3, lr
	.loc 1 1247 0
	movw	r0, #:lower16:.LANCHOR1
	.loc 1 1248 0
	ubfx	r2, r8, #16, #8
	.loc 1 1247 0
	movt	r0, #:upper16:.LANCHOR1
	.loc 1 1249 0
	ubfx	r4, ip, #8, #8
	.loc 1 1247 0
	mov	r1, r7, lsr #24
	.loc 1 1250 0
	add	r3, r0, r3, lsl #2
	ldr	r9, [sp, #12]
	.loc 1 1249 0
	add	r4, r0, r4, lsl #2
	.loc 1 1247 0
	add	r1, r0, r1, lsl #2
	ldr	r10, [sp]
	.loc 1 1248 0
	add	r2, r0, r2, lsl #2
	.loc 1 1254 0
	mov	r6, lr, lsr #24
	.loc 1 1247 0
	ldr	r0, [r1, #1072]
	.loc 1 1257 0
	uxtb	r5, ip
	.loc 1 1250 0
	ldrb	r1, [r3, #1072]	@ zero_extendqisi2
	.loc 1 1247 0
	and	r3, r0, #-16777216
	.loc 1 1248 0
	ldr	r2, [r2, #1072]
	eor	r0, r3, r1
	ldr	r1, [r10, r9, asl #4]
	.loc 1 1249 0
	ldr	r3, [r4, #1072]
	.loc 1 1248 0
	and	r2, r2, #16711680
	eor	r1, r1, r0
	.loc 1 1254 0
	movw	r0, #:lower16:.LANCHOR1
	eor	r1, r1, r2
	movt	r0, #:upper16:.LANCHOR1
	.loc 1 1255 0
	ubfx	r4, r7, #16, #8
	.loc 1 1254 0
	add	r6, r0, r6, lsl #2
	.loc 1 1249 0
	and	r3, r3, #65280
	.loc 1 1257 0
	movw	r2, #:lower16:.LANCHOR1
	.loc 1 1246 0
	eor	r3, r3, r1
	.loc 1 1257 0
	movt	r2, #:upper16:.LANCHOR1
	.loc 1 1256 0
	ubfx	r0, r8, #8, #8
	.loc 1 1257 0
	add	r5, r2, r5, lsl #2
	.loc 1 1255 0
	movw	r1, #:lower16:.LANCHOR1
	.loc 1 1179 0
	add	r2, r10, r9, lsl #4
.LVL249:
	.loc 1 1252 0
	ldr	r10, [sp, #8]
	.loc 1 1255 0
	movt	r1, #:upper16:.LANCHOR1
	.loc 1 1254 0
	ldr	r6, [r6, #1072]
	.loc 1 1255 0
	add	r4, r1, r4, lsl #2
	.loc 1 1257 0
	ldrb	r7, [r5, #1072]	@ zero_extendqisi2
	.loc 1 1256 0
	add	r0, r1, r0, lsl #2
	.loc 1 1252 0
	strb	r3, [r10, #3]
	mov	r1, r3, lsr #8
	.loc 1 1255 0
	ldr	fp, [r4, #1072]
	.loc 1 1254 0
	and	r5, r6, #-16777216
	.loc 1 1252 0
	strb	r1, [r10, #2]
	mov	r1, r3, lsr #16
	mov	r3, r3, lsr #24
.LVL250:
	strb	r1, [r10, #1]
	strb	r3, [r10]
	.loc 1 1264 0
	uxtb	r4, r8
	ldr	r9, [r2, #4]
	.loc 1 1261 0
	mov	r6, ip, lsr #24
	.loc 1 1256 0
	ldr	r0, [r0, #1072]
	eor	r5, r5, r7
	eor	r7, r5, r9
	.loc 1 1255 0
	and	r3, fp, #16711680
	.loc 1 1261 0
	movw	r1, #:lower16:.LANCHOR1
	.loc 1 1264 0
	movw	r9, #:lower16:.LANCHOR1
	movt	r9, #:upper16:.LANCHOR1
	.loc 1 1261 0
	movt	r1, #:upper16:.LANCHOR1
	add	r6, r1, r6, lsl #2
	eor	r1, r7, r3
	.loc 1 1256 0
	and	r3, r0, #65280
	.loc 1 1264 0
	add	r0, r9, r4, lsl #2
	.loc 1 1263 0
	ldr	r4, [sp, #4]
	.loc 1 1262 0
	ubfx	r5, lr, #16, #8
	.loc 1 1253 0
	eor	r3, r3, r1
.LVL251:
	.loc 1 1261 0
	ldr	r6, [r6, #1072]
	.loc 1 1263 0
	ubfx	r4, r4, #8, #8
	.loc 1 1262 0
	mov	r1, r9
	add	r5, r9, r5, lsl #2
	.loc 1 1264 0
	ldrb	r9, [r0, #1072]	@ zero_extendqisi2
	.loc 1 1259 0
	strb	r3, [r10, #7]
	.loc 1 1263 0
	add	r4, r1, r4, lsl #2
	.loc 1 1261 0
	and	r7, r6, #-16777216
	.loc 1 1259 0
	mov	r1, r3, lsr #8
	strb	r1, [r10, #6]
	mov	r1, r3, lsr #16
	mov	r3, r3, lsr #24
.LVL252:
	strb	r1, [r10, #5]
	strb	r3, [r10, #4]
	mov	fp, r10
	ldr	r0, [r2, #8]
	.loc 1 1268 0
	mov	r8, r8, lsr #24
.LVL253:
	.loc 1 1271 0
	ldrb	r10, [sp, #4]	@ zero_extendqisi2
	eor	r7, r7, r9
	.loc 1 1262 0
	ldr	r6, [r5, #1072]
	eor	r1, r7, r0
	.loc 1 1268 0
	movw	r0, #:lower16:.LANCHOR1
	.loc 1 1263 0
	ldr	r3, [r4, #1072]
	.loc 1 1268 0
	movt	r0, #:upper16:.LANCHOR1
	add	r8, r0, r8, lsl #2
	.loc 1 1269 0
	ubfx	ip, ip, #16, #8
.LVL254:
	.loc 1 1262 0
	and	r6, r6, #16711680
	.loc 1 1270 0
	ubfx	lr, lr, #8, #8
.LVL255:
	.loc 1 1271 0
	add	r10, r0, r10, lsl #2
	.loc 1 1263 0
	and	r3, r3, #65280
	.loc 1 1268 0
	ldr	r4, [r8, #1072]
	eor	r1, r1, r6
	.loc 1 1269 0
	add	ip, r0, ip, lsl #2
	.loc 1 1260 0
	eor	r1, r1, r3
.LVL256:
	.loc 1 1270 0
	add	lr, r0, lr, lsl #2
	.loc 1 1271 0
	ldrb	r0, [r10, #1072]	@ zero_extendqisi2
	.loc 1 1268 0
	and	r4, r4, #-16777216
	.loc 1 1269 0
	ldr	r3, [ip, #1072]
	.loc 1 1266 0
	mov	r5, r1, lsr #8
	mov	ip, r1, lsr #16
	strb	r1, [fp, #11]
	strb	r5, [fp, #10]
	mov	r1, r1, lsr #24
.LVL257:
	strb	ip, [fp, #9]
	eor	ip, r4, r0
	strb	r1, [fp, #8]
	.loc 1 1269 0
	and	r1, r3, #16711680
	ldr	r0, [r2, #12]
	.loc 1 1270 0
	ldr	r2, [lr, #1072]
.LVL258:
	eor	r3, ip, r0
	and	r2, r2, #65280
	eor	r3, r3, r1
	.loc 1 1267 0
	eor	r3, r3, r2
.LVL259:
	.loc 1 1273 0
	strb	r3, [fp, #15]
	mov	r1, r3, lsr #8
	mov	r2, r3, lsr #16
	strb	r1, [fp, #14]
	mov	r3, r3, lsr #24
.LVL260:
	strb	r2, [fp, #13]
	strb	r3, [fp, #12]
.LVL261:
.L47:
	.loc 1 1274 0
	add	sp, sp, #36
	.cfi_remember_state
	.cfi_def_cfa_offset 36
.LVL262:
	@ sp needed
	ldmfd	sp!, {r4, r5, r6, r7, r8, r9, r10, fp, pc}
.LVL263:
.L51:
	.cfi_restore_state
	.loc 1 1157 0
	ldr	r10, [sp, #4]
.LVL264:
	uxtb	r7, lr
	.loc 1 1160 0
	mov	r2, r8, lsr #24
	.loc 1 1159 0
	uxtb	r5, r8
	.loc 1 1157 0
	add	r7, r3, r7, lsl #2
	.loc 1 1159 0
	mov	r0, ip, lsr #24
	.loc 1 1157 0
	mov	r9, r10, lsr #24
	.loc 1 1160 0
	add	r2, r3, r2, lsl #2
	ldr	r7, [r7, #1064]
	uxtb	r4, r10
	.loc 1 1157 0
	add	r9, r3, r9, lsl #2
	.loc 1 1160 0
	str	r2, [sp, #16]
	.loc 1 1166 0
	ldr	r2, [sp, #12]
	.loc 1 1158 0
	mov	r6, lr, lsr #24
	ldr	r9, [r9, #2088]
	uxtb	r1, ip
	.loc 1 1166 0
	cmp	r2, #12
	.loc 1 1160 0
	add	r4, r3, r4, lsl #2
	eor	r2, r9, r7
	str	r2, [sp, #4]
.LVL265:
	ldr	r2, [sp, #16]
	.loc 1 1159 0
	add	r5, r3, r5, lsl #2
	add	r0, r3, r0, lsl #2
	ldr	r4, [r4, #1064]
	.loc 1 1158 0
	add	r6, r3, r6, lsl #2
	add	r1, r3, r1, lsl #2
	ldr	r9, [r2, #2088]
	.loc 1 1157 0
	ubfx	r7, r8, #16, #8
	.loc 1 1158 0
	ubfx	r8, r8, #8, #8
.LVL266:
	ldr	r2, [r5, #1064]
	ldr	r5, [r0, #2088]
	movw	r0, #:lower16:.LANCHOR1
	ldr	r1, [r1, #1064]
	.loc 1 1157 0
	add	r7, r3, r7, lsl #2
	ldr	r6, [r6, #2088]
	.loc 1 1158 0
	movt	r0, #:upper16:.LANCHOR1
	add	r8, r0, r8, lsl #2
	eor	r0, r9, r4
	.loc 1 1160 0
	ubfx	r9, ip, #16, #8
	eor	r4, r5, r2
	str	r0, [sp, #20]
	eor	r6, r6, r1
	.loc 1 1159 0
	ubfx	r0, r10, #8, #8
	ldr	r1, [r7, #3112]
	.loc 1 1160 0
	add	r9, r3, r9, lsl #2
	.loc 1 1158 0
	ubfx	r7, r10, #16, #8
	mov	r10, r4
	.loc 1 1159 0
	movw	r4, #:lower16:.LANCHOR1
	.loc 1 1158 0
	add	r7, r3, r7, lsl #2
	.loc 1 1157 0
	ubfx	ip, ip, #8, #8
.LVL267:
	.loc 1 1159 0
	movt	r4, #:upper16:.LANCHOR1
	add	r4, r4, r0, lsl #2
	str	r4, [sp, #16]
	ubfx	r2, lr, #16, #8
	ldr	r4, [r9, #3112]
	.loc 1 1157 0
	movw	r0, #:lower16:.LANCHOR1
	ldr	r9, [sp]
	.loc 1 1160 0
	ubfx	lr, lr, #8, #8
.LVL268:
	.loc 1 1157 0
	movt	r0, #:upper16:.LANCHOR1
	add	ip, r0, ip, lsl #2
	ldr	r0, [r7, #3112]
	.loc 1 1160 0
	movw	r7, #:lower16:.LANCHOR1
	ldr	r5, [sp, #4]
	movt	r7, #:upper16:.LANCHOR1
	add	lr, r7, lr, lsl #2
	ldr	r7, [r9, #160]
	.loc 1 1159 0
	add	r2, r3, r2, lsl #2
	eor	r7, r5, r7
	.loc 1 1160 0
	ldr	lr, [lr, #-4048]
	eor	r7, r7, r1
	ldr	r1, [r9, #164]
	.loc 1 1157 0
	ldr	r9, [ip, #-4048]
	eor	r6, r6, r1
	.loc 1 1159 0
	ldr	r1, [sp, #16]
	.loc 1 1157 0
	eor	r7, r7, r9
.LVL269:
	ldr	r5, [r2, #3112]
	.loc 1 1158 0
	ldr	r2, [r8, #-4048]
	.loc 1 1159 0
	ldr	ip, [r1, #-4048]
	eor	r1, r6, r0
	ldr	r6, [sp]
	.loc 1 1158 0
	eor	r1, r1, r2
.LVL270:
	.loc 1 1162 0
	mov	r8, r7, lsr #24
	ldr	r2, [sp, #20]
	uxtb	r9, r1
	ldr	r0, [r6, #172]
	add	r8, r3, r8, lsl #2
	add	r3, r3, r9, lsl #2
	eor	r0, r0, r2
	ldr	r2, [r6, #168]
	eor	r0, r0, r4
	ldr	r8, [r8, #2088]
	.loc 1 1160 0
	eor	r0, r0, lr
	eor	r2, r2, r10
	eor	r2, r2, r5
	.loc 1 1163 0
	ubfx	r9, r0, #8, #8
	.loc 1 1159 0
	eor	r2, r2, ip
.LVL271:
	.loc 1 1162 0
	ubfx	r6, r0, #16, #8
	.loc 1 1163 0
	ubfx	ip, r7, #16, #8
	.loc 1 1162 0
	movw	r10, #:lower16:.LANCHOR1
	str	r8, [sp, #4]
	movt	r10, #:upper16:.LANCHOR1
	ubfx	r5, r2, #8, #8
	.loc 1 1163 0
	add	r9, r10, r9, lsl #2
	ldr	r3, [r3, #1064]
	mov	r4, r1, lsr #24
	.loc 1 1162 0
	add	r6, fp, r6, lsl #2
	.loc 1 1163 0
	add	ip, fp, ip, lsl #2
	.loc 1 1162 0
	add	r5, r10, r5, lsl #2
	.loc 1 1163 0
	mov	r10, r9
	.loc 1 1164 0
	mov	r9, r2, lsr #24
	.loc 1 1163 0
	uxtb	lr, r2
	add	r4, fp, r4, lsl #2
	.loc 1 1165 0
	ubfx	r2, r2, #16, #8
.LVL272:
	.loc 1 1164 0
	uxtb	r8, r0
	str	r3, [sp, #16]
	.loc 1 1165 0
	mov	r0, r0, lsr #24
.LVL273:
	ldr	r3, [r6, #3112]
	ldr	r6, [ip, #3112]
	.loc 1 1164 0
	add	r9, fp, r9, lsl #2
	.loc 1 1163 0
	ldr	ip, [r10, #-4048]
	.loc 1 1164 0
	add	r8, fp, r8, lsl #2
	.loc 1 1165 0
	add	r0, fp, r0, lsl #2
	str	r0, [sp, #20]
	ldr	r0, [r4, #2088]
	add	r4, fp, r2, lsl #2
	.loc 1 1164 0
	ubfx	r2, r1, #16, #8
	.loc 1 1165 0
	ubfx	r1, r1, #8, #8
.LVL274:
	.loc 1 1163 0
	mov	r10, ip
	ldr	ip, [r9, #2088]
	.loc 1 1165 0
	movw	r9, #:lower16:.LANCHOR1
	str	r4, [sp, #24]
	movt	r9, #:upper16:.LANCHOR1
	ldr	r4, [r8, #1064]
	add	r1, r9, r1, lsl #2
	ldr	r8, [sp, #4]
	ldr	r9, [sp, #16]
	.loc 1 1163 0
	add	lr, fp, lr, lsl #2
	eor	ip, ip, r4
	.loc 1 1162 0
	ldr	r5, [r5, #-4048]
	eor	r8, r8, r9
	ldr	r9, [sp]
	ldr	lr, [lr, #1064]
	.loc 1 1164 0
	add	r2, fp, r2, lsl #2
	.loc 1 1165 0
	ldr	r1, [r1, #-4048]
	ldr	r9, [r9, #176]
	eor	r0, r0, lr
	uxtb	lr, r7
	.loc 1 1164 0
	ubfx	r7, r7, #8, #8
.LVL275:
	eor	r4, r8, r9
	eor	r3, r3, r4
	ldr	r4, [sp]
	.loc 1 1165 0
	add	r9, fp, lr, lsl #2
	.loc 1 1164 0
	movw	lr, #:lower16:.LANCHOR1
	.loc 1 1162 0
	eor	r3, r3, r5
	.loc 1 1164 0
	movt	lr, #:upper16:.LANCHOR1
	mov	r5, r4
	add	r7, lr, r7, lsl #2
	.loc 1 1162 0
	str	r3, [sp, #4]
.LVL276:
	ldr	lr, [r4, #180]
	ldr	r3, [r2, #3112]
.LVL277:
	ldr	r4, [r4, #184]
	eor	r0, r0, lr
	ldr	r2, [sp, #20]
	eor	r0, r0, r6
	eor	ip, ip, r4
	ldr	r4, [sp, #24]
	ldr	r9, [r9, #1064]
	eor	ip, ip, r3
	ldr	r2, [r2, #2088]
	.loc 1 1163 0
	eor	lr, r0, r10
.LVL278:
	ldr	r8, [r5, #188]
	ldr	r3, [r4, #3112]
	eor	r2, r2, r9
	eor	r2, r2, r8
	.loc 1 1164 0
	ldr	r5, [r7, #-4048]
	eor	r8, r2, r3
	.loc 1 1165 0
	eor	r8, r8, r1
	.loc 1 1164 0
	eor	ip, ip, r5
.LVL279:
	.loc 1 1166 0
	ble	.L49
	.loc 1 1168 0
	ldr	r10, [sp, #4]
	uxtb	r6, lr
	.loc 1 1171 0
	mov	r0, r8, lsr #24
	.loc 1 1170 0
	uxtb	r1, r8
	.loc 1 1168 0
	add	r6, fp, r6, lsl #2
	.loc 1 1170 0
	mov	r3, ip, lsr #24
	.loc 1 1168 0
	mov	r7, r10, lsr #24
	.loc 1 1171 0
	uxtb	r2, r10
	add	r0, fp, r0, lsl #2
	ldr	r6, [r6, #1064]
	.loc 1 1168 0
	add	r7, fp, r7, lsl #2
	.loc 1 1171 0
	add	r2, fp, r2, lsl #2
	.loc 1 1169 0
	mov	r5, lr, lsr #24
	uxtb	r4, ip
	ldr	r7, [r7, #2088]
	.loc 1 1170 0
	add	r1, fp, r1, lsl #2
	add	r3, fp, r3, lsl #2
	.loc 1 1169 0
	add	r5, fp, r5, lsl #2
	eor	r6, r7, r6
	str	r6, [sp, #4]
.LVL280:
	ldr	r6, [r0, #2088]
	.loc 1 1168 0
	ubfx	r0, r8, #16, #8
	.loc 1 1169 0
	ubfx	r8, r8, #8, #8
.LVL281:
	ldr	r7, [r2, #1064]
	movw	r2, #:lower16:.LANCHOR1
	.loc 1 1168 0
	add	r0, fp, r0, lsl #2
	.loc 1 1169 0
	movt	r2, #:upper16:.LANCHOR1
	add	r9, r2, r8, lsl #2
	ldr	r2, [sp]
	add	r4, fp, r4, lsl #2
	ldr	r1, [r1, #1064]
	ldr	r3, [r3, #2088]
	ldr	r8, [r2, #192]
	ldr	r2, [r0, #3112]
	eor	r0, r6, r7
	.loc 1 1170 0
	ubfx	r6, r10, #8, #8
	eor	r7, r3, r1
	ldr	r4, [r4, #1064]
	movw	r1, #:lower16:.LANCHOR1
	ldr	r5, [r5, #2088]
	movt	r1, #:upper16:.LANCHOR1
	add	r1, r1, r6, lsl #2
	str	r0, [sp, #16]
	eor	r5, r5, r4
	.loc 1 1171 0
	ubfx	r4, ip, #16, #8
	.loc 1 1168 0
	ubfx	ip, ip, #8, #8
.LVL282:
	.loc 1 1169 0
	ubfx	r0, r10, #16, #8
	.loc 1 1170 0
	mov	r10, r1
.LVL283:
	.loc 1 1168 0
	movw	r1, #:lower16:.LANCHOR1
	movt	r1, #:upper16:.LANCHOR1
	add	ip, r1, ip, lsl #2
	.loc 1 1170 0
	ubfx	r1, lr, #16, #8
	ldr	r6, [sp, #4]
	.loc 1 1171 0
	add	r4, fp, r4, lsl #2
	ubfx	lr, lr, #8, #8
.LVL284:
	.loc 1 1170 0
	add	r1, fp, r1, lsl #2
	eor	r6, r6, r8
	.loc 1 1169 0
	add	r3, fp, r0, lsl #2
	ldr	r0, [r4, #3112]
	ldr	r8, [r1, #3112]
	.loc 1 1171 0
	movw	r4, #:lower16:.LANCHOR1
	ldr	r1, [sp]
	movt	r4, #:upper16:.LANCHOR1
	add	lr, r4, lr, lsl #2
	ldr	r3, [r3, #3112]
	eor	r6, r6, r2
	.loc 1 1168 0
	ldr	r2, [ip, #-4048]
	ldr	r4, [r1, #196]
	.loc 1 1169 0
	ldr	ip, [r9, #-4048]
	.loc 1 1168 0
	eor	r2, r2, r6
.LVL285:
	eor	r5, r5, r4
	ldr	r4, [sp]
	eor	r3, r3, r5
	.loc 1 1171 0
	ldr	lr, [lr, #-4048]
	.loc 1 1169 0
	eor	r3, r3, ip
.LVL286:
	ldr	ip, [sp, #16]
	ldr	r1, [r4, #204]
	ldr	r4, [r4, #200]
	.loc 1 1174 0
	mov	r5, r3, lsr #24
	eor	r1, r1, ip
	.loc 1 1173 0
	mov	ip, r2, lsr #24
	eor	r1, r1, r0
	.loc 1 1170 0
	ldr	r9, [r10, #-4048]
	.loc 1 1171 0
	eor	r1, r1, lr
	eor	r4, r4, r7
	.loc 1 1173 0
	add	ip, fp, ip, lsl #2
	ubfx	r7, r1, #16, #8
	eor	r0, r4, r8
	uxtb	r8, r3
	.loc 1 1170 0
	eor	r0, r0, r9
.LVL287:
	ldr	ip, [ip, #2088]
	.loc 1 1173 0
	add	r7, fp, r7, lsl #2
	ubfx	r6, r0, #8, #8
	movw	lr, #:lower16:.LANCHOR1
	.loc 1 1174 0
	uxtb	r4, r0
	ldr	r7, [r7, #3112]
	mov	r10, ip
	.loc 1 1173 0
	add	r8, fp, r8, lsl #2
	.loc 1 1175 0
	mov	ip, r0, lsr #24
	.loc 1 1173 0
	movt	lr, #:upper16:.LANCHOR1
	.loc 1 1176 0
	ubfx	r0, r0, #16, #8
.LVL288:
	.loc 1 1173 0
	add	r6, lr, r6, lsl #2
	.loc 1 1174 0
	ubfx	lr, r1, #8, #8
	.loc 1 1175 0
	str	ip, [sp, #4]
	.loc 1 1174 0
	movw	ip, #:lower16:.LANCHOR1
	.loc 1 1176 0
	add	r0, fp, r0, lsl #2
	.loc 1 1174 0
	ubfx	r9, r2, #16, #8
	movt	ip, #:upper16:.LANCHOR1
	ldr	r8, [r8, #1064]
	add	lr, ip, lr, lsl #2
	.loc 1 1175 0
	ldr	ip, [sp, #4]
	str	r7, [sp, #4]
	.loc 1 1174 0
	add	r9, fp, r9, lsl #2
	.loc 1 1176 0
	str	r0, [sp, #20]
	.loc 1 1175 0
	uxtb	r0, r1
	.loc 1 1173 0
	ldr	r6, [r6, #-4048]
	.loc 1 1176 0
	mov	r1, r1, lsr #24
.LVL289:
	.loc 1 1175 0
	add	r0, fp, r0, lsl #2
	ldr	r7, [r9, #3112]
	.loc 1 1174 0
	ldr	r9, [lr, #-4048]
	.loc 1 1175 0
	ubfx	lr, r3, #16, #8
	.loc 1 1173 0
	str	r6, [sp, #16]
	.loc 1 1176 0
	add	r6, fp, r1, lsl #2
	ldr	r1, [r0, #1064]
	uxtb	r0, r2
	.loc 1 1175 0
	add	ip, fp, ip, lsl #2
	add	lr, fp, lr, lsl #2
	.loc 1 1174 0
	add	r5, fp, r5, lsl #2
	add	r4, fp, r4, lsl #2
	.loc 1 1176 0
	add	fp, fp, r0, lsl #2
	ldr	r0, [sp]
	ldr	ip, [ip, #2088]
	ubfx	r3, r3, #8, #8
.LVL290:
	ldr	r4, [r4, #1064]
	.loc 1 1175 0
	ubfx	r2, r2, #8, #8
.LVL291:
	ldr	r5, [r5, #2088]
	eor	r1, r1, ip
	ldr	ip, [r0, #208]
	eor	r8, r8, r10
	eor	r5, r5, r4
	.loc 1 1176 0
	movw	r4, #:lower16:.LANCHOR1
	movt	r4, #:upper16:.LANCHOR1
	eor	r8, r8, ip
	add	r3, r4, r3, lsl #2
	.loc 1 1175 0
	add	r2, r4, r2, lsl #2
	mov	ip, r0
	ldr	r4, [r0, #212]
	ldr	r0, [sp, #4]
	ldr	ip, [ip, #216]
	eor	r5, r5, r4
	eor	r8, r8, r0
	ldr	r0, [lr, #3112]
	eor	r1, r1, ip
	ldr	ip, [sp]
	eor	r1, r1, r0
	ldr	r0, [sp, #20]
	ldr	r6, [r6, #2088]
	eor	r5, r5, r7
	ldr	fp, [fp, #1064]
	.loc 1 1174 0
	eor	lr, r5, r9
	ldr	ip, [ip, #220]
	ldr	r0, [r0, #3112]
	eor	r6, r6, fp
	eor	r6, r6, ip
	.loc 1 1173 0
	ldr	r10, [sp, #16]
	.loc 1 1176 0
	ldr	r3, [r3, #-4048]
	eor	r6, r6, r0
	.loc 1 1175 0
	ldr	r2, [r2, #-4048]
	.loc 1 1173 0
	eor	r8, r8, r10
	str	r8, [sp, #4]
.LVL292:
	.loc 1 1176 0
	eor	r8, r6, r3
.LVL293:
	.loc 1 1175 0
	eor	ip, r1, r2
.LVL294:
	b	.L49
	.cfi_endproc
.LFE28:
	.size	AES_decrypt, .-AES_decrypt
	.section	.rodata
	.align	2
.LANCHOR0 = . + 0
.LANCHOR1 = . + 8184
	.type	rcon, %object
	.size	rcon, 40
rcon:
	.word	16777216
	.word	33554432
	.word	67108864
	.word	134217728
	.word	268435456
	.word	536870912
	.word	1073741824
	.word	-2147483648
	.word	452984832
	.word	905969664
	.type	Te4, %object
	.size	Te4, 1024
Te4:
	.word	1667457891
	.word	2088533116
	.word	2004318071
	.word	2071690107
	.word	-218959118
	.word	1802201963
	.word	1869573999
	.word	-976894523
	.word	808464432
	.word	16843009
	.word	1734829927
	.word	724249387
	.word	-16843010
	.word	-673720361
	.word	-1414812757
	.word	1987475062
	.word	-892679478
	.word	-2105376126
	.word	-909522487
	.word	2105376125
	.word	-84215046
	.word	1499027801
	.word	1195853639
	.word	-252645136
	.word	-1381126739
	.word	-724249388
	.word	-1566399838
	.word	-1347440721
	.word	-1667457892
	.word	-1532713820
	.word	1920103026
	.word	-1061109568
	.word	-1212696649
	.word	-33686019
	.word	-1819044973
	.word	640034342
	.word	909522486
	.word	1061109567
	.word	-134744073
	.word	-858993460
	.word	875836468
	.word	-1515870811
	.word	-437918235
	.word	-235802127
	.word	1903260017
	.word	-656877352
	.word	825307441
	.word	353703189
	.word	67372036
	.word	-943208505
	.word	589505315
	.word	-1010580541
	.word	404232216
	.word	-1768515946
	.word	84215045
	.word	-1701143910
	.word	117901063
	.word	303174162
	.word	-2139062144
	.word	-488447262
	.word	-336860181
	.word	656877351
	.word	-1296911694
	.word	1970632053
	.word	151587081
	.word	-2088533117
	.word	741092396
	.word	437918234
	.word	454761243
	.word	1852730990
	.word	1515870810
	.word	-1600085856
	.word	1381126738
	.word	993737531
	.word	-690563370
	.word	-1280068685
	.word	690563369
	.word	-471604253
	.word	791621423
	.word	-2071690108
	.word	1397969747
	.word	-774778415
	.word	0
	.word	-303174163
	.word	538976288
	.word	-50529028
	.word	-1313754703
	.word	1532713819
	.word	1785358954
	.word	-875836469
	.word	-1094795586
	.word	960051513
	.word	1246382666
	.word	1280068684
	.word	1482184792
	.word	-808464433
	.word	-791621424
	.word	-269488145
	.word	-1431655766
	.word	-67372037
	.word	1128481603
	.word	1296911693
	.word	858993459
	.word	-2054847099
	.word	1162167621
	.word	-101058055
	.word	33686018
	.word	2139062143
	.word	1347440720
	.word	1010580540
	.word	-1616928865
	.word	-1465341784
	.word	1364283729
	.word	-1549556829
	.word	1077952576
	.word	-1886417009
	.word	-1835887982
	.word	-1650614883
	.word	943208504
	.word	-168430091
	.word	-1128481604
	.word	-1229539658
	.word	-623191334
	.word	555819297
	.word	269488144
	.word	-1
	.word	-202116109
	.word	-757935406
	.word	-842150451
	.word	202116108
	.word	320017171
	.word	-320017172
	.word	1600085855
	.word	-1751672937
	.word	1145324612
	.word	387389207
	.word	-993737532
	.word	-1482184793
	.word	2122219134
	.word	1027423549
	.word	1684300900
	.word	1566399837
	.word	421075225
	.word	1936946035
	.word	1616928864
	.word	-2122219135
	.word	1330597711
	.word	-589505316
	.word	572662306
	.word	707406378
	.word	-1869574000
	.word	-2004318072
	.word	1179010630
	.word	-286331154
	.word	-1195853640
	.word	336860180
	.word	-555819298
	.word	1583242846
	.word	185273099
	.word	-606348325
	.word	-522133280
	.word	842150450
	.word	976894522
	.word	168430090
	.word	1229539657
	.word	101058054
	.word	606348324
	.word	1549556828
	.word	-1027423550
	.word	-741092397
	.word	-1397969748
	.word	1650614882
	.word	-1852730991
	.word	-1785358955
	.word	-454761244
	.word	2038004089
	.word	-404232217
	.word	-926365496
	.word	926365495
	.word	1835887981
	.word	-1920103027
	.word	-707406379
	.word	1313754702
	.word	-1448498775
	.word	1819044972
	.word	1448498774
	.word	-185273100
	.word	-353703190
	.word	1701143909
	.word	2054847098
	.word	-1364283730
	.word	134744072
	.word	-1162167622
	.word	2021161080
	.word	623191333
	.word	774778414
	.word	471604252
	.word	-1499027802
	.word	-1263225676
	.word	-960051514
	.word	-387389208
	.word	-572662307
	.word	1953789044
	.word	522133279
	.word	1263225675
	.word	-1111638595
	.word	-1953789045
	.word	-1970632054
	.word	1886417008
	.word	1044266558
	.word	-1246382667
	.word	1717986918
	.word	1212696648
	.word	50529027
	.word	-151587082
	.word	235802126
	.word	1633771873
	.word	892679477
	.word	1465341783
	.word	-1179010631
	.word	-2038004090
	.word	-1044266559
	.word	488447261
	.word	-1633771874
	.word	-505290271
	.word	-117901064
	.word	-1734829928
	.word	286331153
	.word	1768515945
	.word	-640034343
	.word	-1903260018
	.word	-1802201964
	.word	-1684300901
	.word	505290270
	.word	-2021161081
	.word	-370546199
	.word	-825307442
	.word	1431655765
	.word	673720360
	.word	-538976289
	.word	-1936946036
	.word	-1583242847
	.word	-1987475063
	.word	218959117
	.word	-1077952577
	.word	-421075226
	.word	1111638594
	.word	1751672936
	.word	1094795585
	.word	-1717986919
	.word	757935405
	.word	252645135
	.word	-1330597712
	.word	1414812756
	.word	-1145324613
	.word	370546198
	.type	Td3, %object
	.size	Td3, 1024
Td3:
	.word	-190361519
	.word	1097159550
	.word	396673818
	.word	660510266
	.word	-1418998981
	.word	-1656360673
	.word	-94852180
	.word	-486304949
	.word	821712160
	.word	1986918061
	.word	-864644728
	.word	38544885
	.word	-438830001
	.word	718002117
	.word	893681702
	.word	1654886325
	.word	-1319482914
	.word	-1172609243
	.word	-368142267
	.word	-20913827
	.word	796197571
	.word	1290801793
	.word	1184342925
	.word	-738605461
	.word	-1889540349
	.word	-1835231979
	.word	1836772287
	.word	1381620373
	.word	-1098699308
	.word	1948373848
	.word	-529979063
	.word	-909622130
	.word	-1031181707
	.word	-1904641804
	.word	1480485785
	.word	-1183720153
	.word	-514869570
	.word	-2001922064
	.word	548169417
	.word	-835013507
	.word	-548792221
	.word	439452389
	.word	1362321559
	.word	1400849762
	.word	1685577905
	.word	1806599355
	.word	-2120213250
	.word	137073913
	.word	1214797936
	.word	1174215055
	.word	-563312748
	.word	2079897426
	.word	1943217067
	.word	1258480242
	.word	529487843
	.word	1437280870
	.word	-349698126
	.word	-1245576401
	.word	-981755258
	.word	923313619
	.word	679998000
	.word	-1079659997
	.word	57326082
	.word	377642221
	.word	-820237430
	.word	2041877159
	.word	133361907
	.word	1776460110
	.word	-621490843
	.word	96392454
	.word	878845905
	.word	-1493267772
	.word	777231668
	.word	-212492126
	.word	-1964953083
	.word	-152341084
	.word	-2081670901
	.word	1626319424
	.word	1906247262
	.word	1846563261
	.word	562755902
	.word	-586793578
	.word	1040559837
	.word	-423803315
	.word	1418573201
	.word	-1000536719
	.word	114585348
	.word	1343618912
	.word	-1728371687
	.word	-1108764714
	.word	1078185097
	.word	-643926169
	.word	-398279248
	.word	-1987344377
	.word	425408743
	.word	-923870343
	.word	2081048481
	.word	1108339068
	.word	-2078357000
	.word	0
	.word	-2138668279
	.word	736970802
	.word	292596766
	.word	1517440620
	.word	251657213
	.word	-2059905521
	.word	-1361764803
	.word	758720310
	.word	265905162
	.word	1554391400
	.word	1532285339
	.word	908999204
	.word	174567692
	.word	1474760595
	.word	-292105548
	.word	-1684955621
	.word	-1060810880
	.word	-601841055
	.word	2001430874
	.word	303699484
	.word	-1816524062
	.word	-1607801408
	.word	585122620
	.word	454499602
	.word	151849742
	.word	-1949848078
	.word	-1230456531
	.word	514443284
	.word	-249985705
	.word	1963412655
	.word	-1713521682
	.word	2137062819
	.word	19308535
	.word	1928707164
	.word	1715193156
	.word	-75615141
	.word	1126790795
	.word	600235211
	.word	-302225226
	.word	-453942344
	.word	836553431
	.word	1669664834
	.word	-1759363053
	.word	-971956092
	.word	1243905413
	.word	-1153566510
	.word	-114159186
	.word	698445255
	.word	-1641067747
	.word	-1305414692
	.word	-2041385971
	.word	-1042034569
	.word	-1290376149
	.word	1891211689
	.word	-1807156719
	.word	-379313593
	.word	-57883480
	.word	-264299872
	.word	2100090966
	.word	865136418
	.word	1229899655
	.word	953270745
	.word	-895287668
	.word	-737462632
	.word	-176042074
	.word	2061379749
	.word	-1215420710
	.word	-1379949505
	.word	983426092
	.word	2022837584
	.word	1607244650
	.word	2118541908
	.word	-1928084746
	.word	-658970480
	.word	972512814
	.word	-1011878526
	.word	1568718495
	.word	-795640727
	.word	-718427793
	.word	621982671
	.word	-1399243832
	.word	410887952
	.word	-1671205144
	.word	1002142683
	.word	645401037
	.word	1494807662
	.word	-1699282452
	.word	1335535747
	.word	-1787927066
	.word	-1671510
	.word	-1127282655
	.word	367585007
	.word	-409216582
	.word	1865862730
	.word	-1626745622
	.word	-1333995991
	.word	-1531793615
	.word	1059270954
	.word	-1517014842
	.word	-1570324427
	.word	1320957812
	.word	-2100648196
	.word	-1865371424
	.word	-1479011021
	.word	77089521
	.word	-321194175
	.word	-850391425
	.word	-1846137065
	.word	1305906550
	.word	-273658557
	.word	-1437772596
	.word	-1778065436
	.word	-776608866
	.word	1787304780
	.word	740276417
	.word	1699839814
	.word	1592394909
	.word	-1942659839
	.word	-2022411270
	.word	188821243
	.word	1729977011
	.word	-606973294
	.word	274084841
	.word	-699985043
	.word	-681472870
	.word	-1593017801
	.word	-132870567
	.word	322734571
	.word	-1457000754
	.word	1640576439
	.word	484830689
	.word	1202797690
	.word	-757114468
	.word	-227328171
	.word	349075736
	.word	-952647821
	.word	-137500077
	.word	-39167137
	.word	1030690015
	.word	1155237496
	.word	-1342996022
	.word	1757691577
	.word	607398968
	.word	-1556062270
	.word	499347990
	.word	-500888388
	.word	1011452712
	.word	227885567
	.word	-1476300487
	.word	213114376
	.word	-1260086056
	.word	1455525988
	.word	-880516741
	.word	850817237
	.word	1817998408
	.word	-1202240816
	.type	Td0, %object
	.size	Td0, 1024
Td0:
	.word	1374988112
	.word	2118214995
	.word	437757123
	.word	975658646
	.word	1001089995
	.word	530400753
	.word	-1392879445
	.word	1273168787
	.word	540080725
	.word	-1384747530
	.word	-1999866223
	.word	-184398811
	.word	1340463100
	.word	-987051049
	.word	641025152
	.word	-1251826801
	.word	-558802359
	.word	632953703
	.word	1172967064
	.word	1576976609
	.word	-1020300030
	.word	-2125664238
	.word	-1924753501
	.word	1809054150
	.word	59727847
	.word	361929877
	.word	-1083344149
	.word	-1789765158
	.word	-725712083
	.word	1484005843
	.word	1239443753
	.word	-1899378620
	.word	1975683434
	.word	-191989384
	.word	-1722270101
	.word	666464733
	.word	-1092530250
	.word	-259478249
	.word	-920605594
	.word	2110667444
	.word	1675577880
	.word	-451268222
	.word	-1756286112
	.word	1649639237
	.word	-1318815776
	.word	-1150570876
	.word	-25059300
	.word	-116905068
	.word	1883793496
	.word	-1891238631
	.word	-1797362553
	.word	1383856311
	.word	-1418472669
	.word	1917518562
	.word	-484470953
	.word	1716890410
	.word	-1293211641
	.word	800440835
	.word	-2033878118
	.word	-751368027
	.word	807962610
	.word	599762354
	.word	33778362
	.word	-317291940
	.word	-1966138325
	.word	-1485196142
	.word	-217582864
	.word	1315562145
	.word	1708848333
	.word	101039829
	.word	-785096161
	.word	-995688822
	.word	875451293
	.word	-1561111136
	.word	92987698
	.word	-1527321739
	.word	193195065
	.word	1080094634
	.word	1584504582
	.word	-1116860335
	.word	1042385657
	.word	-1763899843
	.word	-583137874
	.word	1306967366
	.word	-1856729675
	.word	1908694277
	.word	67556463
	.word	1615861247
	.word	429456164
	.word	-692196969
	.word	-1992277044
	.word	1742315127
	.word	-1326955843
	.word	126454664
	.word	-417768648
	.word	2043211483
	.word	-1585706425
	.word	2084704233
	.word	-125559095
	.word	0
	.word	159417987
	.word	841739592
	.word	504459436
	.word	1817866830
	.word	-49348613
	.word	260388950
	.word	1034867998
	.word	908933415
	.word	168810852
	.word	1750902305
	.word	-1688513327
	.word	607530554
	.word	202008497
	.word	-1822955761
	.word	-1259432238
	.word	463180190
	.word	-2134850225
	.word	1641816226
	.word	1517767529
	.word	470948374
	.word	-493635062
	.word	-1063245083
	.word	1008918595
	.word	303765277
	.word	235474187
	.word	-225720403
	.word	766945465
	.word	337553864
	.word	1475418501
	.word	-1351284916
	.word	-291906117
	.word	-1551933187
	.word	-150919521
	.word	1551037884
	.word	1147550661
	.word	1543208500
	.word	-1958532746
	.word	-886847780
	.word	-1225917336
	.word	-1192955549
	.word	-684598070
	.word	1113818384
	.word	328671808
	.word	-2067394272
	.word	-2058738563
	.word	-759480840
	.word	-1359400431
	.word	-953573011
	.word	496906059
	.word	-592301837
	.word	226906860
	.word	2009195472
	.word	733156972
	.word	-1452230247
	.word	294930682
	.word	1206477858
	.word	-1459843900
	.word	-1594867942
	.word	1451044056
	.word	573804783
	.word	-2025238841
	.word	-650587711
	.word	-1932877058
	.word	-1730933962
	.word	-1493859889
	.word	-1518674392
	.word	-625504730
	.word	1068351396
	.word	742039012
	.word	1350078989
	.word	1784663195
	.word	1417561698
	.word	-158526526
	.word	-1864845080
	.word	775550814
	.word	-2101104651
	.word	-1621262146
	.word	1775276924
	.word	1876241833
	.word	-819653965
	.word	-928212677
	.word	270040487
	.word	-392404114
	.word	-616842373
	.word	-853116919
	.word	1851332852
	.word	-325404927
	.word	-2091935064
	.word	-426414491
	.word	-1426069890
	.word	566021896
	.word	-283776794
	.word	-1159226407
	.word	1248802510
	.word	-358676012
	.word	699432150
	.word	832877231
	.word	708780849
	.word	-962227152
	.word	899835584
	.word	1951317047
	.word	-58537306
	.word	-527380304
	.word	866637845
	.word	-251357110
	.word	1106041591
	.word	2144161806
	.word	395441711
	.word	1984812685
	.word	1139781709
	.word	-861254316
	.word	-459930401
	.word	-1630423581
	.word	1282050075
	.word	-1054072904
	.word	1181045119
	.word	-1654724092
	.word	25965917
	.word	-91786125
	.word	-83148498
	.word	-1285087910
	.word	-1831087534
	.word	-384805325
	.word	1842759443
	.word	-1697160820
	.word	933301370
	.word	1509430414
	.word	-351060855
	.word	-827774994
	.word	-1218328267
	.word	-518199827
	.word	2051518780
	.word	-1663901863
	.word	1441952575
	.word	404016761
	.word	1942435775
	.word	1408749034
	.word	1610459739
	.word	-549621996
	.word	2017778566
	.word	-894438527
	.word	-1184316354
	.word	941896748
	.word	-1029488545
	.word	371049330
	.word	-1126030068
	.word	675039627
	.word	-15887039
	.word	967311729
	.word	135050206
	.word	-659233636
	.word	1683407248
	.word	2076935265
	.word	-718096784
	.word	1215061108
	.word	-793225406
	.type	Td1, %object
	.size	Td1, 1024
Td1:
	.word	1347548327
	.word	1400783205
	.word	-1021700188
	.word	-1774573730
	.word	-885281941
	.word	-249586363
	.word	-1414727080
	.word	-1823743229
	.word	1428173050
	.word	-156404115
	.word	-1853305738
	.word	636813900
	.word	-61872681
	.word	-674944309
	.word	-2144979644
	.word	-1883938141
	.word	1239331162
	.word	1730525723
	.word	-1740248562
	.word	-513933632
	.word	46346101
	.word	310463728
	.word	-1551022441
	.word	-966011911
	.word	-419197089
	.word	-1793748324
	.word	-339776134
	.word	-627748263
	.word	768917123
	.word	-749177823
	.word	692707433
	.word	1150208456
	.word	1786102409
	.word	2029293177
	.word	1805211710
	.word	-584599183
	.word	-1229004465
	.word	401639597
	.word	1724457132
	.word	-1266823622
	.word	409198410
	.word	-2098914767
	.word	1620529459
	.word	1164071807
	.word	-525245321
	.word	-2068091986
	.word	486441376
	.word	-1795618773
	.word	1483753576
	.word	428819965
	.word	-2020286868
	.word	-1219331080
	.word	598438867
	.word	-495826174
	.word	1474502543
	.word	711349675
	.word	129166120
	.word	53458370
	.word	-1702443653
	.word	-1512884472
	.word	-231724921
	.word	-1306280027
	.word	-1174273174
	.word	1559041666
	.word	730517276
	.word	-1834518092
	.word	-252508174
	.word	-1588696606
	.word	-848962828
	.word	-721025602
	.word	533804130
	.word	-1966823682
	.word	-1657524653
	.word	-1599933611
	.word	839224033
	.word	1973745387
	.word	957055980
	.word	-1438621457
	.word	106852767
	.word	1371368976
	.word	-113368694
	.word	1033297158
	.word	-1361232379
	.word	1179510461
	.word	-1248766835
	.word	91341917
	.word	1862534868
	.word	-10465259
	.word	605657339
	.word	-1747534359
	.word	-863420349
	.word	2003294622
	.word	-1112479678
	.word	-2012771957
	.word	954669403
	.word	-612775698
	.word	1201765386
	.word	-377732593
	.word	-906460130
	.word	0
	.word	-2096529274
	.word	1211247597
	.word	-1407315600
	.word	1315723890
	.word	-67301633
	.word	1443857720
	.word	507358933
	.word	657861945
	.word	1678381017
	.word	560487590
	.word	-778347692
	.word	975451694
	.word	-1324610969
	.word	261314535
	.word	-759894378
	.word	-1642357871
	.word	1333838021
	.word	-1570644960
	.word	1767536459
	.word	370938394
	.word	182621114
	.word	-440360918
	.word	1128014560
	.word	487725847
	.word	185469197
	.word	-1376613433
	.word	-1188186456
	.word	-938205527
	.word	-2057834215
	.word	1286567175
	.word	-1141990947
	.word	-39616672
	.word	-1611202266
	.word	-1134791947
	.word	-985373125
	.word	878443390
	.word	1988838185
	.word	-590666810
	.word	1756818940
	.word	1673061617
	.word	-891866660
	.word	272786309
	.word	1075025698
	.word	545572369
	.word	2105887268
	.word	-120407235
	.word	296679730
	.word	1841768865
	.word	1260232239
	.word	-203640272
	.word	-334657966
	.word	-797457949
	.word	1814803222
	.word	-1716948807
	.word	-99511224
	.word	575138148
	.word	-995558260
	.word	446754879
	.word	-665420500
	.word	-282971248
	.word	-947435186
	.word	-1042728751
	.word	-24327518
	.word	915985419
	.word	-811141759
	.word	681933534
	.word	651868046
	.word	-1539330625
	.word	-466863459
	.word	223377554
	.word	-1687527476
	.word	1649704518
	.word	-1024029421
	.word	-393160520
	.word	1580087799
	.word	-175979601
	.word	-1096852096
	.word	2087309459
	.word	-1452288723
	.word	-1278270190
	.word	1003007129
	.word	-1492117379
	.word	1860738147
	.word	2077965243
	.word	164439672
	.word	-194094824
	.word	32283319
	.word	-1467789414
	.word	1709610350
	.word	2125135846
	.word	136428751
	.word	-420538904
	.word	-642062437
	.word	-833982666
	.word	-722821367
	.word	-701910916
	.word	-1355701070
	.word	824852259
	.word	818324884
	.word	-1070226842
	.word	930369212
	.word	-1493400886
	.word	-1327460144
	.word	355706840
	.word	1257309336
	.word	-146674470
	.word	243256656
	.word	790073846
	.word	-1921626666
	.word	1296297904
	.word	1422699085
	.word	-538667516
	.word	-476130891
	.word	457992840
	.word	-1195299809
	.word	2135319889
	.word	77422314
	.word	1560382517
	.word	1945798516
	.word	788204353
	.word	1521706781
	.word	1385356242
	.word	870912086
	.word	325965383
	.word	-1936009375
	.word	2050466060
	.word	-1906706412
	.word	-1981082820
	.word	-288446169
	.word	901210569
	.word	-304014107
	.word	1014646705
	.word	1503449823
	.word	1062597235
	.word	2031621326
	.word	-1082931401
	.word	-363595827
	.word	1533017514
	.word	350174575
	.word	-2038938405
	.word	-2117423117
	.word	1052338372
	.word	741876788
	.word	1606591296
	.word	1914052035
	.word	213705253
	.word	-1960297399
	.word	1107234197
	.word	1899603969
	.word	-569897805
	.word	-1663519516
	.word	-1872472383
	.word	1635502980
	.word	1893020342
	.word	1950903388
	.word	1120974935
	.type	Td2, %object
	.size	Td2, 1024
Td2:
	.word	-1487908364
	.word	1699970625
	.word	-1530717673
	.word	1586903591
	.word	1808481195
	.word	1173430173
	.word	1487645946
	.word	59984867
	.word	-95084496
	.word	1844882806
	.word	1989249228
	.word	1277555970
	.word	-671330331
	.word	-875051734
	.word	1149249077
	.word	-1550863006
	.word	1514790577
	.word	459744698
	.word	244860394
	.word	-1058972162
	.word	1963115311
	.word	-267222708
	.word	-1750889146
	.word	-104436781
	.word	1608975247
	.word	-1667951214
	.word	2062270317
	.word	1507497298
	.word	-2094148418
	.word	567498868
	.word	1764313568
	.word	-935031095
	.word	-1989511742
	.word	2037970062
	.word	1047239000
	.word	1910319033
	.word	1337376481
	.word	-1390940024
	.word	-1402549984
	.word	984907214
	.word	1243112415
	.word	830661914
	.word	861968209
	.word	2135253587
	.word	2011214180
	.word	-1367032981
	.word	-1608712575
	.word	731183368
	.word	1750626376
	.word	-48656571
	.word	1820824798
	.word	-122203525
	.word	-752637069
	.word	48394827
	.word	-1890065633
	.word	-1423284651
	.word	671593195
	.word	-1039978571
	.word	2073724613
	.word	145085239
	.word	-2014171096
	.word	-1515052097
	.word	1790575107
	.word	-2107839210
	.word	472615631
	.word	-1265457287
	.word	-219090169
	.word	-492745111
	.word	-187865638
	.word	-1093335547
	.word	1646252340
	.word	-24460122
	.word	1402811438
	.word	1436590835
	.word	-516815478
	.word	-344611594
	.word	-331805821
	.word	-274055072
	.word	-1626972559
	.word	273792366
	.word	-1963377119
	.word	104699613
	.word	95345982
	.word	-1119466010
	.word	-1917480620
	.word	1560637892
	.word	-730921978
	.word	369057872
	.word	-81520232
	.word	-375925059
	.word	1137477952
	.word	-1636341799
	.word	1119727848
	.word	-1954019447
	.word	1530455833
	.word	-287606328
	.word	172466556
	.word	266959938
	.word	516552836
	.word	0
	.word	-2038232704
	.word	-314035669
	.word	1890328081
	.word	1917742170
	.word	-262898
	.word	945164165
	.word	-719438418
	.word	958871085
	.word	-647755249
	.word	-1507760036
	.word	1423022939
	.word	775562294
	.word	1739656202
	.word	-418409641
	.word	-1764576018
	.word	-1851909221
	.word	-984645440
	.word	547512796
	.word	1265195639
	.word	437656594
	.word	-1173691757
	.word	719700128
	.word	-532464606
	.word	387781147
	.word	218828297
	.word	-944901493
	.word	-1464259146
	.word	-1446505442
	.word	428169201
	.word	122466165
	.word	-574886247
	.word	1627235199
	.word	648017665
	.word	-172204942
	.word	1002783846
	.word	2117360635
	.word	695634755
	.word	-958608605
	.word	-60246291
	.word	-245122844
	.word	-590686415
	.word	-2062531997
	.word	574624663
	.word	287343814
	.word	612205898
	.word	1039717051
	.word	840019705
	.word	-1586641111
	.word	793451934
	.word	821288114
	.word	1391201670
	.word	-472877119
	.word	376187827
	.word	-1181111952
	.word	1224348052
	.word	1679968233
	.word	-1933268740
	.word	1058709744
	.word	752375421
	.word	-1863376333
	.word	1321699145
	.word	-775825096
	.word	-1560376118
	.word	188127444
	.word	-2117097739
	.word	-567761542
	.word	-1910056265
	.word	-1079754835
	.word	-1645990854
	.word	-1844621192
	.word	-862229921
	.word	1180849278
	.word	331544205
	.word	-1192718120
	.word	-144822727
	.word	-1342864701
	.word	-2134991011
	.word	-1820562992
	.word	766078933
	.word	313773861
	.word	-1724135252
	.word	2108100632
	.word	1668212892
	.word	-1149510853
	.word	2013908262
	.word	418672217
	.word	-1224610662
	.word	-1700232369
	.word	1852171925
	.word	-427906305
	.word	-821550660
	.word	-387518699
	.word	-1680229657
	.word	919489135
	.word	164948639
	.word	2094410160
	.word	-1297141340
	.word	590424639
	.word	-1808742747
	.word	1723872674
	.word	-1137216434
	.word	-895026046
	.word	-793714544
	.word	-669699161
	.word	-1739919100
	.word	-621329940
	.word	1343127501
	.word	-164685935
	.word	-695372211
	.word	-1337113617
	.word	1297403050
	.word	81781910
	.word	-1243373871
	.word	-2011476886
	.word	532201772
	.word	1367295589
	.word	-368796322
	.word	895287692
	.word	1953757831
	.word	1093597963
	.word	492483431
	.word	-766340389
	.word	1446242576
	.word	1192455638
	.word	1636604631
	.word	209336225
	.word	344873464
	.word	1015671571
	.word	669961897
	.word	-919226527
	.word	-437395172
	.word	-1321436601
	.word	-547775278
	.word	1933530610
	.word	-830924780
	.word	935293895
	.word	-840281097
	.word	-1436852227
	.word	1863638845
	.word	-611944380
	.word	-209597777
	.word	-1002522264
	.word	875313188
	.word	1080017571
	.word	-1015933411
	.word	621591778
	.word	1233856572
	.word	-1790836979
	.word	24197544
	.word	-1277294580
	.word	-459482956
	.word	-1047501738
	.word	-2073986101
	.word	-1234119374
	.word	1551124588
	.word	1463996600
	.type	Te0, %object
	.size	Te0, 1024
Te0:
	.word	-966564955
	.word	-126059388
	.word	-294160487
	.word	-159679603
	.word	-855539
	.word	-697603139
	.word	-563122255
	.word	-1849309868
	.word	1613770832
	.word	33620227
	.word	-832084055
	.word	1445669757
	.word	-402719207
	.word	-1244145822
	.word	1303096294
	.word	-327780710
	.word	-1882535355
	.word	528646813
	.word	-1983264448
	.word	-92439161
	.word	-268764651
	.word	-1302767125
	.word	-1907931191
	.word	-68095989
	.word	1101901292
	.word	-1277897625
	.word	1604494077
	.word	1169141738
	.word	597466303
	.word	1403299063
	.word	-462261610
	.word	-1681866661
	.word	1974974402
	.word	-503448292
	.word	1033081774
	.word	1277568618
	.word	1815492186
	.word	2118074177
	.word	-168298750
	.word	-2083730353
	.word	1748251740
	.word	1369810420
	.word	-773462732
	.word	-101584632
	.word	-495881837
	.word	-1411852173
	.word	1647391059
	.word	706024767
	.word	134480908
	.word	-1782069422
	.word	1176707941
	.word	-1648114850
	.word	806885416
	.word	932615841
	.word	168101135
	.word	798661301
	.word	235341577
	.word	605164086
	.word	461406363
	.word	-538779075
	.word	-840176858
	.word	1311188841
	.word	2142417613
	.word	-361400929
	.word	302582043
	.word	495158174
	.word	1479289972
	.word	874125870
	.word	907746093
	.word	-596742478
	.word	-1269146898
	.word	1537253627
	.word	-1538108682
	.word	1983593293
	.word	-1210657183
	.word	2108928974
	.word	1378429307
	.word	-572267714
	.word	1580150641
	.word	327451799
	.word	-1504488459
	.word	-1177431704
	.word	0
	.word	-1041371860
	.word	1075847264
	.word	-469959649
	.word	2041688520
	.word	-1235526675
	.word	-731223362
	.word	-1916023994
	.word	1740553945
	.word	1916352843
	.word	-1807070498
	.word	-1739830060
	.word	-1336387352
	.word	-2049978550
	.word	-1143943061
	.word	-974131414
	.word	1336584933
	.word	-302253290
	.word	-2042412091
	.word	-1706209833
	.word	1714631509
	.word	293963156
	.word	-1975171633
	.word	-369493744
	.word	67240454
	.word	-25198719
	.word	-1605349136
	.word	2017213508
	.word	631218106
	.word	1269344483
	.word	-1571728909
	.word	1571005438
	.word	-2143272768
	.word	93294474
	.word	1066570413
	.word	563977660
	.word	1882732616
	.word	-235539196
	.word	1673313503
	.word	2008463041
	.word	-1344611723
	.word	1109467491
	.word	537923632
	.word	-436207846
	.word	-34344178
	.word	-1076702611
	.word	-2117218996
	.word	403442708
	.word	638784309
	.word	-1007883217
	.word	-1101045791
	.word	899127202
	.word	-2008791860
	.word	773265209
	.word	-1815821225
	.word	1437050866
	.word	-58818942
	.word	2050833735
	.word	-932944724
	.word	-1168286233
	.word	840505643
	.word	-428641387
	.word	-1067425632
	.word	427917720
	.word	-1638969391
	.word	-1545806721
	.word	1143087718
	.word	1412049534
	.word	999329963
	.word	193497219
	.word	-1941551414
	.word	-940642775
	.word	1807268051
	.word	672404540
	.word	-1478566279
	.word	-1134666014
	.word	369822493
	.word	-1378100362
	.word	-606019525
	.word	1681011286
	.word	1949973070
	.word	336202270
	.word	-1840690725
	.word	201721354
	.word	1210328172
	.word	-1201906460
	.word	-1614626211
	.word	-1110191250
	.word	1135389935
	.word	-1000185178
	.word	965841320
	.word	831886756
	.word	-739974089
	.word	-226920053
	.word	-706222286
	.word	-1949775805
	.word	1849112409
	.word	-630362697
	.word	26054028
	.word	-1311386268
	.word	-1672589614
	.word	1235855840
	.word	-663982924
	.word	-1403627782
	.word	-202050553
	.word	-806688219
	.word	-899324497
	.word	-193299826
	.word	1202630377
	.word	268961816
	.word	1874508501
	.word	-260540280
	.word	1243948399
	.word	1546530418
	.word	941366308
	.word	1470539505
	.word	1941222599
	.word	-1748580783
	.word	-873928669
	.word	-1579295364
	.word	-395021156
	.word	1042226977
	.word	-1773450275
	.word	1639824860
	.word	227249030
	.word	260737669
	.word	-529502064
	.word	2084453954
	.word	1907733956
	.word	-865704278
	.word	-1874310952
	.word	100860677
	.word	-134810111
	.word	470683154
	.word	-1033805405
	.word	1781871967
	.word	-1370007559
	.word	1773779408
	.word	394692241
	.word	-1715355304
	.word	974986535
	.word	664706745
	.word	-639508168
	.word	-336005101
	.word	731420851
	.word	571543859
	.word	-764843589
	.word	-1445340816
	.word	126783113
	.word	865375399
	.word	765172662
	.word	1008606754
	.word	361203602
	.word	-907417312
	.word	-2016489911
	.word	-1437248001
	.word	1344809080
	.word	-1512054918
	.word	59542671
	.word	1503764984
	.word	160008576
	.word	437062935
	.word	1707065306
	.word	-672733647
	.word	-2076032314
	.word	-798463816
	.word	-2109652541
	.word	697932208
	.word	1512910199
	.word	504303377
	.word	2075177163
	.word	-1470868228
	.word	1841019862
	.word	739644986
	.type	Te3, %object
	.size	Te3, 1024
Te3:
	.word	1667474886
	.word	2088535288
	.word	2004326894
	.word	2071694838
	.word	-219017729
	.word	1802223062
	.word	1869591006
	.word	-976923503
	.word	808472672
	.word	16843522
	.word	1734846926
	.word	724270422
	.word	-16901657
	.word	-673750347
	.word	-1414797747
	.word	1987484396
	.word	-892713585
	.word	-2105369313
	.word	-909557623
	.word	2105378810
	.word	-84273681
	.word	1499065266
	.word	1195886990
	.word	-252703749
	.word	-1381110719
	.word	-724277325
	.word	-1566376609
	.word	-1347425723
	.word	-1667449053
	.word	-1532692653
	.word	1920112356
	.word	-1061135461
	.word	-1212693899
	.word	-33743647
	.word	-1819038147
	.word	640051788
	.word	909531756
	.word	1061110142
	.word	-134806795
	.word	-859025533
	.word	875846760
	.word	-1515850671
	.word	-437963567
	.word	-235861767
	.word	1903268834
	.word	-656903253
	.word	825316194
	.word	353713962
	.word	67374088
	.word	-943238507
	.word	589522246
	.word	-1010606435
	.word	404236336
	.word	-1768513225
	.word	84217610
	.word	-1701137105
	.word	117901582
	.word	303183396
	.word	-2139055333
	.word	-488489505
	.word	-336910643
	.word	656894286
	.word	-1296904833
	.word	1970642922
	.word	151591698
	.word	-2088526307
	.word	741110872
	.word	437923380
	.word	454765878
	.word	1852748508
	.word	1515908788
	.word	-1600062629
	.word	1381168804
	.word	993742198
	.word	-690593353
	.word	-1280061827
	.word	690584402
	.word	-471646499
	.word	791638366
	.word	-2071685357
	.word	1398011302
	.word	-774805319
	.word	0
	.word	-303223615
	.word	538992704
	.word	-50585629
	.word	-1313748871
	.word	1532751286
	.word	1785380564
	.word	-875870579
	.word	-1094788761
	.word	960056178
	.word	1246420628
	.word	1280103576
	.word	1482221744
	.word	-808498555
	.word	-791647301
	.word	-269538619
	.word	-1431640753
	.word	-67430675
	.word	1128514950
	.word	1296947098
	.word	859002214
	.word	-2054843375
	.word	1162203018
	.word	-101117719
	.word	33687044
	.word	2139062782
	.word	1347481760
	.word	1010582648
	.word	-1616922075
	.word	-1465326773
	.word	1364325282
	.word	-1549533603
	.word	1077985408
	.word	-1886418427
	.word	-1835881153
	.word	-1650607071
	.word	943212656
	.word	-168491791
	.word	-1128472733
	.word	-1229536905
	.word	-623217233
	.word	555836226
	.word	269496352
	.word	-58651
	.word	-202174723
	.word	-757961281
	.word	-842183551
	.word	202118168
	.word	320025894
	.word	-320065597
	.word	1600119230
	.word	-1751670219
	.word	1145359496
	.word	387397934
	.word	-993765485
	.word	-1482165675
	.word	2122220284
	.word	1027426170
	.word	1684319432
	.word	1566435258
	.word	421079858
	.word	1936954854
	.word	1616945344
	.word	-2122213351
	.word	1330631070
	.word	-589529181
	.word	572679748
	.word	707427924
	.word	-1869567173
	.word	-2004319477
	.word	1179044492
	.word	-286381625
	.word	-1195846805
	.word	336870440
	.word	-555845209
	.word	1583276732
	.word	185277718
	.word	-606374227
	.word	-522175525
	.word	842159716
	.word	976899700
	.word	168435220
	.word	1229577106
	.word	101059084
	.word	606366792
	.word	1549591736
	.word	-1027449441
	.word	-741118275
	.word	-1397952701
	.word	1650632388
	.word	-1852725191
	.word	-1785355215
	.word	-454805549
	.word	2038008818
	.word	-404278571
	.word	-926399605
	.word	926374254
	.word	1835907034
	.word	-1920103423
	.word	-707435343
	.word	1313788572
	.word	-1448484791
	.word	1819063512
	.word	1448540844
	.word	-185333773
	.word	-353753649
	.word	1701162954
	.word	2054852340
	.word	-1364268729
	.word	134748176
	.word	-1162160785
	.word	2021165296
	.word	623210314
	.word	774795868
	.word	471606328
	.word	-1499008681
	.word	-1263220877
	.word	-960081513
	.word	-387439669
	.word	-572687199
	.word	1953799400
	.word	522133822
	.word	1263263126
	.word	-1111630751
	.word	-1953790451
	.word	-1970633457
	.word	1886425312
	.word	1044267644
	.word	-1246378895
	.word	1718004428
	.word	1212733584
	.word	50529542
	.word	-151649801
	.word	235803164
	.word	1633788866
	.word	892690282
	.word	1465383342
	.word	-1179004823
	.word	-2038001385
	.word	-1044293479
	.word	488449850
	.word	-1633765081
	.word	-505333543
	.word	-117959701
	.word	-1734823125
	.word	286339874
	.word	1768537042
	.word	-640061271
	.word	-1903261433
	.word	-1802197197
	.word	-1684294099
	.word	505291324
	.word	-2021158379
	.word	-370597687
	.word	-825341561
	.word	1431699370
	.word	673740880
	.word	-539002203
	.word	-1936945405
	.word	-1583220647
	.word	-1987477495
	.word	218961690
	.word	-1077945755
	.word	-421121577
	.word	1111672452
	.word	1751693520
	.word	1094828930
	.word	-1717981143
	.word	757954394
	.word	252645662
	.word	-1330590853
	.word	1414855848
	.word	-1145317779
	.word	370555436
	.type	Te1, %object
	.size	Te1, 1024
Te1:
	.word	-1513725085
	.word	-2064089988
	.word	-1712425097
	.word	-1913226373
	.word	234877682
	.word	-1110021269
	.word	-1310822545
	.word	1418839493
	.word	1348481072
	.word	50462977
	.word	-1446090905
	.word	2102799147
	.word	434634494
	.word	1656084439
	.word	-431117397
	.word	-1695779210
	.word	1167051466
	.word	-1658879358
	.word	1082771913
	.word	-2013627011
	.word	368048890
	.word	-340633255
	.word	-913422521
	.word	201060592
	.word	-331240019
	.word	1739838676
	.word	-44064094
	.word	-364531793
	.word	-1088185188
	.word	-145513308
	.word	-1763413390
	.word	1536934080
	.word	-1032472649
	.word	484572669
	.word	-1371696237
	.word	1783375398
	.word	1517041206
	.word	1098792767
	.word	49674231
	.word	1334037708
	.word	1550332980
	.word	-195975771
	.word	886171109
	.word	150598129
	.word	-1813876367
	.word	1940642008
	.word	1398944049
	.word	1059722517
	.word	201851908
	.word	1385547719
	.word	1699095331
	.word	1587397571
	.word	674240536
	.word	-1590192490
	.word	252314885
	.word	-1255171430
	.word	151914247
	.word	908333586
	.word	-1692696448
	.word	1038082786
	.word	651029483
	.word	1766729511
	.word	-847269198
	.word	-1612024459
	.word	454166793
	.word	-1642232957
	.word	1951935532
	.word	775166490
	.word	758520603
	.word	-1294176658
	.word	-290170278
	.word	-77881184
	.word	-157003182
	.word	1299594043
	.word	1639438038
	.word	-830622797
	.word	2068982057
	.word	1054729187
	.word	1901997871
	.word	-1760328572
	.word	-173649069
	.word	1757008337
	.word	0
	.word	750906861
	.word	1614815264
	.word	535035132
	.word	-931548751
	.word	-306816165
	.word	-1093375382
	.word	1183697867
	.word	-647512386
	.word	1265776953
	.word	-560706998
	.word	-728216500
	.word	-391096232
	.word	1250283471
	.word	1807470800
	.word	717615087
	.word	-447763798
	.word	384695291
	.word	-981056701
	.word	-677753523
	.word	1432761139
	.word	-1810791035
	.word	-813021883
	.word	283769337
	.word	100925954
	.word	-2114027649
	.word	-257929136
	.word	1148730428
	.word	-1171939425
	.word	-481580888
	.word	-207466159
	.word	-27417693
	.word	-1065336768
	.word	-1979347057
	.word	-1388342638
	.word	-1138647651
	.word	1215313976
	.word	82966005
	.word	-547111748
	.word	-1049119050
	.word	1974459098
	.word	1665278241
	.word	807407632
	.word	451280895
	.word	251524083
	.word	1841287890
	.word	1283575245
	.word	337120268
	.word	891687699
	.word	801369324
	.word	-507617441
	.word	-1573546089
	.word	-863484860
	.word	959321879
	.word	1469301956
	.word	-229267545
	.word	-2097381762
	.word	1199193405
	.word	-1396153244
	.word	-407216803
	.word	724703513
	.word	-1780059277
	.word	-1598005152
	.word	-1743158911
	.word	-778154161
	.word	2141445340
	.word	1715741218
	.word	2119445034
	.word	-1422159728
	.word	-2096396152
	.word	-896776634
	.word	700968686
	.word	-747915080
	.word	1009259540
	.word	2041044702
	.word	-490971554
	.word	487983883
	.word	1991105499
	.word	1004265696
	.word	1449407026
	.word	1316239930
	.word	504629770
	.word	-611169975
	.word	168560134
	.word	1816667172
	.word	-457679780
	.word	1570751170
	.word	1857934291
	.word	-280777556
	.word	-1497079198
	.word	-1472622191
	.word	-1540254315
	.word	936633572
	.word	-1947043463
	.word	852879335
	.word	1133234376
	.word	1500395319
	.word	-1210421907
	.word	-1946055283
	.word	1689376213
	.word	-761508274
	.word	-532043351
	.word	-1260884884
	.word	-89369002
	.word	133428468
	.word	634383082
	.word	-1345690267
	.word	-1896580486
	.word	-381178194
	.word	403703816
	.word	-714097990
	.word	-1997506440
	.word	1867130149
	.word	1918643758
	.word	607656988
	.word	-245913946
	.word	-948718412
	.word	1368901318
	.word	600565992
	.word	2090982877
	.word	-1662487436
	.word	557719327
	.word	-577352885
	.word	-597574211
	.word	-2045932661
	.word	-2062579062
	.word	-1864339344
	.word	1115438654
	.word	-999180875
	.word	-1429445018
	.word	-661632952
	.word	84280067
	.word	33027830
	.word	303828494
	.word	-1547542175
	.word	1600795957
	.word	-106014889
	.word	-798377543
	.word	-1860729210
	.word	1486471617
	.word	658119965
	.word	-1188585826
	.word	953803233
	.word	334231800
	.word	-1288988520
	.word	857870609
	.word	-1143838359
	.word	1890179545
	.word	-1995993458
	.word	-1489791852
	.word	-1238525029
	.word	574365214
	.word	-1844082809
	.word	550103529
	.word	1233637070
	.word	-5614251
	.word	2018519080
	.word	2057691103
	.word	-1895592820
	.word	-128343647
	.word	-2146858615
	.word	387583245
	.word	-630865985
	.word	836232934
	.word	-964410814
	.word	-1194301336
	.word	-1014873791
	.word	-1339450983
	.word	2002398509
	.word	287182607
	.word	-881086288
	.word	-56077228
	.word	-697451589
	.word	975967766
	.type	Te2, %object
	.size	Te2, 1024
Te2:
	.word	1671808611
	.word	2089089148
	.word	2006576759
	.word	2072901243
	.word	-233963534
	.word	1807603307
	.word	1873927791
	.word	-984313403
	.word	810573872
	.word	16974337
	.word	1739181671
	.word	729634347
	.word	-31856642
	.word	-681396777
	.word	-1410970197
	.word	1989864566
	.word	-901410870
	.word	-2103631998
	.word	-918517303
	.word	2106063485
	.word	-99225606
	.word	1508618841
	.word	1204391495
	.word	-267650064
	.word	-1377025619
	.word	-731401260
	.word	-1560453214
	.word	-1343601233
	.word	-1665195108
	.word	-1527295068
	.word	1922491506
	.word	-1067738176
	.word	-1211992649
	.word	-48438787
	.word	-1817297517
	.word	644500518
	.word	911895606
	.word	1061256767
	.word	-150800905
	.word	-867204148
	.word	878471220
	.word	-1510714971
	.word	-449523227
	.word	-251069967
	.word	1905517169
	.word	-663508008
	.word	827548209
	.word	356461077
	.word	67897348
	.word	-950889017
	.word	593839651
	.word	-1017209405
	.word	405286936
	.word	-1767819370
	.word	84871685
	.word	-1699401830
	.word	118033927
	.word	305538066
	.word	-2137318528
	.word	-499261470
	.word	-349778453
	.word	661212711
	.word	-1295155278
	.word	1973414517
	.word	152769033
	.word	-2086789757
	.word	745822252
	.word	439235610
	.word	455947803
	.word	1857215598
	.word	1525593178
	.word	-1594139744
	.word	1391895634
	.word	994932283
	.word	-698239018
	.word	-1278313037
	.word	695947817
	.word	-482419229
	.word	795958831
	.word	-2070473852
	.word	1408607827
	.word	-781665839
	.word	0
	.word	-315833875
	.word	543178784
	.word	-65018884
	.word	-1312261711
	.word	1542305371
	.word	1790891114
	.word	-884568629
	.word	-1093048386
	.word	961245753
	.word	1256100938
	.word	1289001036
	.word	1491644504
	.word	-817199665
	.word	-798245936
	.word	-282409489
	.word	-1427812438
	.word	-82383365
	.word	1137018435
	.word	1305975373
	.word	861234739
	.word	-2053893755
	.word	1171229253
	.word	-116332039
	.word	33948674
	.word	2139225727
	.word	1357946960
	.word	1011120188
	.word	-1615190625
	.word	-1461498968
	.word	1374921297
	.word	-1543610973
	.word	1086357568
	.word	-1886780017
	.word	-1834139758
	.word	-1648615011
	.word	944271416
	.word	-184225291
	.word	-1126210628
	.word	-1228834890
	.word	-629821478
	.word	560153121
	.word	271589392
	.word	-15014401
	.word	-217121293
	.word	-764559406
	.word	-850624051
	.word	202643468
	.word	322250259
	.word	-332413972
	.word	1608629855
	.word	-1750977129
	.word	1154254916
	.word	389623319
	.word	-1000893500
	.word	-1477290585
	.word	2122513534
	.word	1028094525
	.word	1689045092
	.word	1575467613
	.word	422261273
	.word	1939203699
	.word	1621147744
	.word	-2120738431
	.word	1339137615
	.word	-595614756
	.word	577127458
	.word	712922154
	.word	-1867826288
	.word	-2004677752
	.word	1187679302
	.word	-299251730
	.word	-1194103880
	.word	339486740
	.word	-562452514
	.word	1591917662
	.word	186455563
	.word	-612979237
	.word	-532948000
	.word	844522546
	.word	978220090
	.word	169743370
	.word	1239126601
	.word	101321734
	.word	611076132
	.word	1558493276
	.word	-1034051646
	.word	-747717165
	.word	-1393605716
	.word	1655096418
	.word	-1851246191
	.word	-1784401515
	.word	-466103324
	.word	2039214713
	.word	-416098841
	.word	-935097400
	.word	928607799
	.word	1840765549
	.word	-1920204403
	.word	-714821163
	.word	1322425422
	.word	-1444918871
	.word	1823791212
	.word	1459268694
	.word	-200805388
	.word	-366620694
	.word	1706019429
	.word	2056189050
	.word	-1360443474
	.word	135794696
	.word	-1160417350
	.word	2022240376
	.word	628050469
	.word	779246638
	.word	472135708
	.word	-1494132826
	.word	-1261997132
	.word	-967731258
	.word	-400307224
	.word	-579034659
	.word	1956440180
	.word	522272287
	.word	1272813131
	.word	-1109630531
	.word	-1954148981
	.word	-1970991222
	.word	1888542832
	.word	1044544574
	.word	-1245417035
	.word	1722469478
	.word	1222152264
	.word	50660867
	.word	-167643146
	.word	236067854
	.word	1638122081
	.word	895445557
	.word	1475980887
	.word	-1177523783
	.word	-2037311610
	.word	-1051158079
	.word	489110045
	.word	-1632032866
	.word	-516367903
	.word	-132912136
	.word	-1733088360
	.word	288563729
	.word	1773916777
	.word	-646927911
	.word	-1903622258
	.word	-1800981612
	.word	-1682559589
	.word	505560094
	.word	-2020469369
	.word	-383727127
	.word	-834041906
	.word	1442818645
	.word	678973480
	.word	-545610273
	.word	-1936784500
	.word	-1577559647
	.word	-1988097655
	.word	219617805
	.word	-1076206145
	.word	-432941082
	.word	1120306242
	.word	1756942440
	.word	1103331905
	.word	-1716508263
	.word	762796589
	.word	252780047
	.word	-1328841808
	.word	1425844308
	.word	-1143575109
	.word	372911126
	.type	Td4, %object
	.size	Td4, 1024
Td4:
	.word	1381126738
	.word	151587081
	.word	1785358954
	.word	-707406379
	.word	808464432
	.word	909522486
	.word	-1515870811
	.word	943208504
	.word	-1077952577
	.word	1077952576
	.word	-1549556829
	.word	-1633771874
	.word	-2122219135
	.word	-202116109
	.word	-673720361
	.word	-67372037
	.word	2088533116
	.word	-471604253
	.word	960051513
	.word	-2105376126
	.word	-1684300901
	.word	791621423
	.word	-1
	.word	-2021161081
	.word	875836468
	.word	-1903260018
	.word	1128481603
	.word	1145324612
	.word	-993737532
	.word	-555819298
	.word	-370546199
	.word	-875836469
	.word	1414812756
	.word	2071690107
	.word	-1802201964
	.word	842150450
	.word	-1499027802
	.word	-1027423550
	.word	589505315
	.word	1027423549
	.word	-286331154
	.word	1280068684
	.word	-1785358955
	.word	185273099
	.word	1111638594
	.word	-84215046
	.word	-1010580541
	.word	1313754702
	.word	134744072
	.word	774778414
	.word	-1583242847
	.word	1717986918
	.word	673720360
	.word	-640034343
	.word	606348324
	.word	-1296911694
	.word	1987475062
	.word	1532713819
	.word	-1566399838
	.word	1229539657
	.word	1835887981
	.word	-1953789045
	.word	-774778415
	.word	623191333
	.word	1920103026
	.word	-117901064
	.word	-151587082
	.word	1684300900
	.word	-2038004090
	.word	1751672936
	.word	-1734829928
	.word	370546198
	.word	-724249388
	.word	-1532713820
	.word	1549556828
	.word	-858993460
	.word	1566399837
	.word	1701143909
	.word	-1229539658
	.word	-1835887982
	.word	1819044972
	.word	1886417008
	.word	1212696648
	.word	1347440720
	.word	-33686019
	.word	-303174163
	.word	-1179010631
	.word	-623191334
	.word	1583242846
	.word	353703189
	.word	1179010630
	.word	1465341783
	.word	-1482184793
	.word	-1920103027
	.word	-1650614883
	.word	-2071690108
	.word	-1869574000
	.word	-656877352
	.word	-1414812757
	.word	0
	.word	-1936946036
	.word	-1128481604
	.word	-741092397
	.word	168430090
	.word	-134744073
	.word	-454761244
	.word	1482184792
	.word	84215045
	.word	-1195853640
	.word	-1280068685
	.word	1162167621
	.word	101058054
	.word	-791621424
	.word	741092396
	.word	505290270
	.word	-1886417009
	.word	-892679478
	.word	1061109567
	.word	252645135
	.word	33686018
	.word	-1044266559
	.word	-1347440721
	.word	-1111638595
	.word	50529027
	.word	16843009
	.word	320017171
	.word	-1970632054
	.word	1802201963
	.word	976894522
	.word	-1852730991
	.word	286331153
	.word	1094795585
	.word	1330597711
	.word	1734829927
	.word	-589505316
	.word	-353703190
	.word	-1751672937
	.word	-218959118
	.word	-808464433
	.word	-825307442
	.word	-252645136
	.word	-1263225676
	.word	-421075226
	.word	1936946035
	.word	-1768515946
	.word	-1397969748
	.word	1953789044
	.word	572662306
	.word	-404232217
	.word	-1381126739
	.word	892679477
	.word	-2054847099
	.word	-488447262
	.word	-101058055
	.word	926365495
	.word	-387389208
	.word	471604252
	.word	1970632053
	.word	-538976289
	.word	1852730990
	.word	1195853639
	.word	-235802127
	.word	437918234
	.word	1903260017
	.word	488447261
	.word	690563369
	.word	-976894523
	.word	-1987475063
	.word	1869573999
	.word	-1212696649
	.word	1650614882
	.word	235802126
	.word	-1431655766
	.word	404232216
	.word	-1094795586
	.word	454761243
	.word	-50529028
	.word	1448498774
	.word	1044266558
	.word	1263225675
	.word	-960051514
	.word	-757935406
	.word	2038004089
	.word	538976288
	.word	-1701143910
	.word	-606348325
	.word	-1061109568
	.word	-16843010
	.word	2021161080
	.word	-842150451
	.word	1515870810
	.word	-185273100
	.word	522133279
	.word	-572662307
	.word	-1465341784
	.word	858993459
	.word	-2004318072
	.word	117901063
	.word	-943208505
	.word	825307441
	.word	-1313754703
	.word	303174162
	.word	269488144
	.word	1499027801
	.word	656877351
	.word	-2139062144
	.word	-320017172
	.word	1600085855
	.word	1616928864
	.word	1364283729
	.word	2139062143
	.word	-1448498775
	.word	421075225
	.word	-1246382667
	.word	1246382666
	.word	218959117
	.word	757935405
	.word	-437918235
	.word	2054847098
	.word	-1616928865
	.word	-1819044973
	.word	-909522487
	.word	-1667457892
	.word	-269488145
	.word	-1600085856
	.word	-522133280
	.word	993737531
	.word	1296911693
	.word	-1364283730
	.word	707406378
	.word	-168430091
	.word	-1330597712
	.word	-926365496
	.word	-336860181
	.word	-1145324613
	.word	1010580540
	.word	-2088533117
	.word	1397969747
	.word	-1717986919
	.word	1633771873
	.word	387389207
	.word	724249387
	.word	67372036
	.word	2122219134
	.word	-1162167622
	.word	2004318071
	.word	-690563370
	.word	640034342
	.word	-505290271
	.word	1768515945
	.word	336860180
	.word	1667457891
	.word	1431655765
	.word	555819297
	.word	202116108
	.word	2105376125
	.text
.Letext0:
	.file 2 "/usr/lib/gcc/arm-linux-gnueabihf/4.9/include/stddef.h"
	.file 3 "/usr/include/arm-linux-gnueabihf/bits/types.h"
	.file 4 "/usr/include/libio.h"
	.file 5 "aes.h"
	.file 6 "aes_locl.h"
	.file 7 "/usr/include/stdio.h"
	.section	.note.GNU-stack,"",%progbits
