	.arch armv7-a
	.eabi_attribute 27, 3
	.eabi_attribute 28, 1
	.fpu vfpv3-d16
	.eabi_attribute 20, 1
	.eabi_attribute 21, 1
	.eabi_attribute 23, 3
	.eabi_attribute 24, 1
	.eabi_attribute 25, 1
	.eabi_attribute 26, 2
	.eabi_attribute 30, 2
	.eabi_attribute 34, 1
	.eabi_attribute 18, 4
	.file	"encrypt.c"
	.text
.Ltext0:
	.cfi_sections	.debug_frame
	.align	2
	.global	mac
	.type	mac, %function
mac:
.LFB67:
	.file 1 "encrypt.c"
	.loc 1 168 0
	.cfi_startproc
	@ args = 8, pretend = 0, frame = 152
	@ frame_needed = 0, uses_anonymous_args = 0
.LVL0:
	stmfd	sp!, {r4, r5, r6, r7, r8, r9, sl, fp, lr}
.LCFI0:
	.cfi_def_cfa_offset 36
	.cfi_offset 4, -36
	.cfi_offset 5, -32
	.cfi_offset 6, -28
	.cfi_offset 7, -24
	.cfi_offset 8, -20
	.cfi_offset 9, -16
	.cfi_offset 10, -12
	.cfi_offset 11, -8
	.cfi_offset 14, -4
	sub	sp, sp, #156
.LCFI1:
	.cfi_def_cfa_offset 192
	.loc 1 169 0
	mov	ip, #0
	.loc 1 168 0
	ldr	lr, [sp, #192]
	str	r0, [sp, #76]
	str	r1, [sp, #72]
.LBB192:
.LBB193:
.LBB194:
.LBB195:
	.loc 1 89 0
	ldrb	r4, [lr, #2]	@ zero_extendqisi2
	.loc 1 90 0
	ldrb	r0, [lr, #3]	@ zero_extendqisi2
.LVL1:
	.loc 1 88 0
	ldrb	r1, [lr, #1]	@ zero_extendqisi2
.LVL2:
	.loc 1 91 0
	ldrb	r8, [lr, #4]	@ zero_extendqisi2
	.loc 1 89 0
	mov	r5, r4, lsr #7
.LBE195:
.LBE194:
.LBE193:
.LBE192:
	.loc 1 168 0
	strd	r2, [sp, #56]
.LBB240:
.LBB228:
.LBB205:
.LBB196:
	.loc 1 92 0
	ldrb	r2, [lr, #5]	@ zero_extendqisi2
.LVL3:
	.loc 1 88 0
	mov	r7, r1, lsr #7
	.loc 1 93 0
	ldrb	r3, [lr, #6]	@ zero_extendqisi2
	.loc 1 89 0
	orr	r1, r5, r1, asl #1
	strb	r1, [sp, #129]
	.loc 1 90 0
	mov	r1, r0, lsr #7
	.loc 1 94 0
	ldrb	r6, [lr, #7]	@ zero_extendqisi2
	.loc 1 90 0
	orr	r1, r1, r4, asl #1
	strb	r1, [sp, #130]
	.loc 1 91 0
	mov	r1, r8, lsr #7
	.loc 1 95 0
	ldrb	r5, [lr, #8]	@ zero_extendqisi2
	.loc 1 91 0
	orr	r1, r1, r0, asl #1
	strb	r1, [sp, #131]
	.loc 1 92 0
	mov	r1, r2, lsr #7
	.loc 1 96 0
	ldrb	r4, [lr, #9]	@ zero_extendqisi2
	.loc 1 92 0
	orr	r8, r1, r8, asl #1
	strb	r8, [sp, #132]
	.loc 1 93 0
	mov	r8, r3, lsr #7
	.loc 1 97 0
	ldrb	r0, [lr, #10]	@ zero_extendqisi2
	.loc 1 93 0
	orr	r8, r8, r2, asl #1
	strb	r8, [sp, #133]
	.loc 1 94 0
	mov	r8, r6, lsr #7
	.loc 1 98 0
	ldrb	r1, [lr, #11]	@ zero_extendqisi2
	.loc 1 94 0
	orr	r8, r8, r3, asl #1
	strb	r8, [sp, #134]
	.loc 1 95 0
	mov	r8, r5, lsr #7
	.loc 1 99 0
	ldrb	r2, [lr, #12]	@ zero_extendqisi2
	.loc 1 95 0
	orr	r6, r8, r6, asl #1
	strb	r6, [sp, #135]
	.loc 1 96 0
	mov	r6, r4, lsr #7
	.loc 1 100 0
	ldrb	r3, [lr, #13]	@ zero_extendqisi2
	.loc 1 96 0
	orr	r5, r6, r5, asl #1
.LBE196:
.LBE205:
	.loc 1 119 0
	ldrb	r6, [lr, #0]	@ zero_extendqisi2
.LBE228:
.LBE240:
	.loc 1 168 0
	movw	r8, #:lower16:__stack_chk_guard
.LBB241:
.LBB229:
.LBB206:
.LBB197:
	.loc 1 96 0
	strb	r5, [sp, #136]
	.loc 1 97 0
	mov	r5, r0, lsr #7
	orr	r4, r5, r4, asl #1
.LBE197:
.LBE206:
.LBE229:
.LBE241:
	.loc 1 168 0
	movt	r8, #:upper16:__stack_chk_guard
.LBB242:
.LBB230:
.LBB207:
.LBB198:
	.loc 1 97 0
	strb	r4, [sp, #137]
	.loc 1 98 0
	mov	r4, r1, lsr #7
	orr	r0, r4, r0, asl #1
	strb	r0, [sp, #138]
	.loc 1 99 0
	mov	r0, r2, lsr #7
.LBE198:
.LBE207:
.LBE230:
.LBE242:
	.loc 1 168 0
	ldr	r5, [r8, #0]
.LBB243:
.LBB231:
.LBB208:
.LBB199:
	.loc 1 88 0
	orr	r7, r7, r6, asl #1
	.loc 1 99 0
	orr	r1, r0, r1, asl #1
.LBE199:
.LBE208:
.LBE231:
.LBE243:
	.loc 1 169 0
	str	ip, [sp, #112]
.LBB244:
.LBB232:
.LBB209:
.LBB200:
	.loc 1 100 0
	mov	r0, r3, lsr #7
.LBE200:
.LBE209:
.LBE232:
.LBE244:
	.loc 1 169 0
	str	ip, [sp, #116]
.LBB245:
.LBB233:
.LBB210:
.LBB201:
	.loc 1 100 0
	orr	r2, r0, r2, asl #1
	.loc 1 99 0
	strb	r1, [sp, #139]
.LBE201:
.LBE210:
	.loc 1 121 0
	tst	r6, #128
.LBB211:
.LBB202:
	.loc 1 88 0
	strb	r7, [sp, #128]
	.loc 1 102 0
	ldrb	r1, [lr, #15]	@ zero_extendqisi2
	.loc 1 100 0
	strb	r2, [sp, #140]
	.loc 1 101 0
	ldrb	r2, [lr, #14]	@ zero_extendqisi2
	.loc 1 104 0
	mov	r0, r1, asl #1
.LBE202:
.LBE211:
.LBE233:
.LBE245:
	.loc 1 169 0
	str	ip, [sp, #120]
	str	ip, [sp, #124]
.LVL4:
.LBB246:
.LBB234:
.LBB212:
.LBB203:
	.loc 1 102 0
	mov	r1, r1, lsr #7
	.loc 1 101 0
	mov	ip, r2, lsr #7
	.loc 1 102 0
	orr	r2, r1, r2, asl #1
	.loc 1 101 0
	orr	r3, ip, r3, asl #1
	strb	r3, [sp, #141]
	.loc 1 104 0
	uxtb	r3, r0
	strb	r3, [sp, #143]
.LBE203:
.LBE212:
	.loc 1 122 0
	eorne	r3, r3, #120
.LBB213:
.LBB204:
	.loc 1 102 0
	strb	r2, [sp, #142]
.LBE204:
.LBE213:
.LBB214:
.LBB215:
	.loc 1 48 0
	ldr	r0, [lr, #12]
.LBE215:
.LBE214:
	.loc 1 122 0
	mvnne	r3, r3
	strneb	r3, [sp, #143]
.LBB222:
.LBB216:
	.loc 1 48 0
	ldr	r3, [sp, #140]
	.loc 1 47 0
	ldr	r2, [sp, #136]
	.loc 1 48 0
	eor	r3, r0, r3
	.loc 1 47 0
	ldr	r1, [lr, #8]
	.loc 1 45 0
	ldr	r0, [lr, #0]
.LBE216:
.LBE222:
.LBE234:
.LBE246:
.LBB247:
.LBB248:
.LBB249:
.LBB250:
	.loc 1 100 0
	ubfx	r4, r3, #8, #8
	.loc 1 102 0
	mov	r7, r3, lsr #24
.LBE250:
.LBE249:
.LBE248:
.LBE247:
.LBB290:
.LBB235:
.LBB223:
.LBB217:
	.loc 1 46 0
	ldr	ip, [lr, #4]
.LBE217:
.LBE223:
.LBE235:
.LBE290:
	.loc 1 168 0
	str	r5, [sp, #148]
.LBB291:
.LBB281:
.LBB262:
.LBB251:
	.loc 1 101 0
	ubfx	r5, r3, #16, #8
.LBE251:
.LBE262:
.LBE281:
.LBE291:
.LBB292:
.LBB236:
.LBB224:
.LBB218:
	.loc 1 46 0
	ldr	lr, [sp, #132]
.LVL5:
	.loc 1 47 0
	eor	r2, r1, r2
.LBE218:
.LBE224:
.LBE236:
.LBE292:
.LBB293:
.LBB282:
.LBB263:
.LBB252:
	.loc 1 104 0
	mov	r6, r7, asl #1
.LVL6:
.LBE252:
.LBE263:
.LBE282:
.LBE293:
.LBB294:
.LBB237:
.LBB225:
.LBB219:
	.loc 1 45 0
	ldr	r1, [sp, #128]
.LBE219:
.LBE225:
.LBE237:
.LBE294:
.LBB295:
.LBB283:
.LBB264:
.LBB253:
	.loc 1 102 0
	mov	r7, r7, lsr #7
.LBE253:
.LBE264:
.LBE283:
.LBE295:
.LBB296:
.LBB238:
.LBB226:
.LBB220:
	.loc 1 46 0
	eor	ip, ip, lr
.LBE220:
.LBE226:
.LBE238:
.LBE296:
.LBB297:
.LBB284:
.LBB265:
.LBB254:
	.loc 1 102 0
	orr	r7, r7, r5, asl #1
	.loc 1 99 0
	uxtb	lr, r3
	.loc 1 101 0
	mov	r5, r5, lsr #7
.LBE254:
.LBE265:
.LBE284:
.LBE297:
.LBB298:
.LBB239:
.LBB227:
.LBB221:
	.loc 1 45 0
	eor	r1, r0, r1
.LBE221:
.LBE227:
.LBE239:
.LBE298:
.LBB299:
.LBB285:
.LBB266:
.LBB255:
	.loc 1 101 0
	orr	r5, r5, r4, asl #1
	.loc 1 98 0
	mov	r0, r2, lsr #24
	.loc 1 100 0
	mov	r4, r4, lsr #7
	.loc 1 102 0
	strb	r7, [sp, #142]
	.loc 1 100 0
	orr	r4, r4, lr, asl #1
	.loc 1 97 0
	ubfx	r7, r2, #16, #8
	.loc 1 99 0
	mov	lr, lr, lsr #7
	.loc 1 101 0
	strb	r5, [sp, #141]
	.loc 1 99 0
	orr	lr, lr, r0, asl #1
	.loc 1 96 0
	ubfx	r5, r2, #8, #8
	.loc 1 98 0
	mov	r0, r0, lsr #7
	.loc 1 100 0
	strb	r4, [sp, #140]
	.loc 1 98 0
	orr	r0, r0, r7, asl #1
	.loc 1 95 0
	uxtb	r4, r2
	.loc 1 97 0
	mov	r7, r7, lsr #7
	.loc 1 99 0
	strb	lr, [sp, #139]
	.loc 1 97 0
	orr	r7, r7, r5, asl #1
	.loc 1 94 0
	mov	lr, ip, lsr #24
	.loc 1 96 0
	mov	r5, r5, lsr #7
	.loc 1 98 0
	strb	r0, [sp, #138]
	.loc 1 96 0
	orr	r5, r5, r4, asl #1
	.loc 1 93 0
	ubfx	r0, ip, #16, #8
	.loc 1 95 0
	mov	r4, r4, lsr #7
	.loc 1 97 0
	strb	r7, [sp, #137]
	.loc 1 95 0
	orr	r4, r4, lr, asl #1
	.loc 1 92 0
	ubfx	r7, ip, #8, #8
	.loc 1 94 0
	mov	lr, lr, lsr #7
	.loc 1 96 0
	strb	r5, [sp, #136]
	.loc 1 94 0
	orr	lr, lr, r0, asl #1
	.loc 1 91 0
	uxtb	r5, ip
	.loc 1 93 0
	mov	r0, r0, lsr #7
	.loc 1 95 0
	strb	r4, [sp, #135]
	.loc 1 93 0
	orr	r0, r0, r7, asl #1
	.loc 1 92 0
	mov	r7, r7, lsr #7
	.loc 1 90 0
	mov	r4, r1, lsr #24
	.loc 1 92 0
	orr	r7, r7, r5, asl #1
	strb	r7, [sp, #132]
.LBE255:
.LBE266:
	.loc 1 119 0
	uxtb	r7, r1
.LVL7:
	.loc 1 121 0
	movs	fp, r7, lsr #7
.LBB267:
.LBB256:
	.loc 1 104 0
	uxtb	r6, r6
.LBE256:
.LBE267:
.LBE285:
.LBE299:
	.loc 1 168 0
	ldr	sl, [sp, #196]
.LBB300:
.LBB286:
.LBB268:
.LBB257:
	.loc 1 91 0
	mov	r5, r5, lsr #7
	.loc 1 94 0
	strb	lr, [sp, #134]
	.loc 1 89 0
	ubfx	lr, r1, #16, #8
	.loc 1 104 0
	strb	r6, [sp, #143]
	.loc 1 91 0
	orr	r5, r5, r4, asl #1
.LBE257:
.LBE268:
	.loc 1 122 0
	eorne	r6, r6, #120
.LBB269:
.LBB258:
	.loc 1 93 0
	strb	r0, [sp, #133]
	.loc 1 90 0
	mov	r4, r4, lsr #7
	.loc 1 88 0
	ubfx	r0, r1, #8, #8
	.loc 1 90 0
	orr	r4, r4, lr, asl #1
	.loc 1 89 0
	mov	lr, lr, lsr #7
	orr	lr, lr, r0, asl #1
.LBE258:
.LBE269:
	.loc 1 122 0
	mvnne	r6, r6
.LBE286:
.LBE300:
	.loc 1 168 0
	str	sl, [sp, #68]
.LBB301:
.LBB287:
.LBB270:
.LBB259:
	.loc 1 88 0
	mov	r0, r0, lsr #7
	.loc 1 91 0
	strb	r5, [sp, #131]
	.loc 1 88 0
	orr	r7, r0, r7, asl #1
.LVL8:
	.loc 1 90 0
	strb	r4, [sp, #130]
.LVL9:
.LBE259:
.LBE270:
	.loc 1 122 0
	strneb	r6, [sp, #143]
.LBB271:
.LBB260:
	.loc 1 89 0
	strb	lr, [sp, #129]
.LBE260:
.LBE271:
.LBB272:
.LBB273:
	.loc 1 48 0
	ldr	lr, [sp, #140]
	.loc 1 47 0
	ldr	r0, [sp, #136]
	.loc 1 48 0
	eor	r3, r3, lr
.LBE273:
.LBE272:
.LBB277:
.LBB261:
	.loc 1 88 0
	strb	r7, [sp, #128]
.LBE261:
.LBE277:
.LBB278:
.LBB274:
	.loc 1 47 0
	eor	r2, r2, r0
	.loc 1 45 0
	ldr	r0, [sp, #128]
.LBE274:
.LBE278:
.LBE287:
.LBE301:
.LBB302:
.LBB303:
.LBB304:
.LBB305:
	.loc 1 102 0
	mov	r7, r3, lsr #24
.LBE305:
.LBE304:
.LBE303:
.LBE302:
.LBB332:
.LBB288:
.LBB279:
.LBB275:
	.loc 1 46 0
	ldr	lr, [sp, #132]
	.loc 1 45 0
	eor	r1, r1, r0
.LVL10:
.LBE275:
.LBE279:
.LBE288:
.LBE332:
.LBB333:
.LBB326:
.LBB312:
.LBB306:
	.loc 1 101 0
	ubfx	r0, r3, #16, #8
	.loc 1 100 0
	ubfx	r5, r3, #8, #8
	.loc 1 104 0
	mov	r6, r7, asl #1
	.loc 1 102 0
	mov	r7, r7, lsr #7
	.loc 1 99 0
	uxtb	r4, r3
	.loc 1 102 0
	orr	r7, r7, r0, asl #1
	.loc 1 101 0
	mov	r0, r0, lsr #7
.LBE306:
.LBE312:
.LBE326:
.LBE333:
.LBB334:
.LBB289:
.LBB280:
.LBB276:
	.loc 1 46 0
	eor	ip, ip, lr
.LBE276:
.LBE280:
.LBE289:
.LBE334:
.LBB335:
.LBB327:
.LBB313:
.LBB307:
	.loc 1 101 0
	orr	r0, r0, r5, asl #1
	.loc 1 98 0
	mov	lr, r2, lsr #24
	.loc 1 100 0
	mov	r5, r5, lsr #7
	orr	r5, r5, r4, asl #1
	.loc 1 101 0
	strb	r0, [sp, #141]
	.loc 1 99 0
	mov	r4, r4, lsr #7
	.loc 1 97 0
	ubfx	r0, r2, #16, #8
	.loc 1 99 0
	orr	r4, r4, lr, asl #1
	.loc 1 102 0
	strb	r7, [sp, #142]
	.loc 1 98 0
	mov	lr, lr, lsr #7
	.loc 1 96 0
	ubfx	r7, r2, #8, #8
	.loc 1 98 0
	orr	lr, lr, r0, asl #1
	.loc 1 100 0
	strb	r5, [sp, #140]
	.loc 1 97 0
	mov	r0, r0, lsr #7
	.loc 1 95 0
	uxtb	r5, r2
	.loc 1 97 0
	orr	r0, r0, r7, asl #1
	.loc 1 99 0
	strb	r4, [sp, #139]
	.loc 1 96 0
	mov	r7, r7, lsr #7
	.loc 1 94 0
	mov	r4, ip, lsr #24
	.loc 1 96 0
	orr	r7, r7, r5, asl #1
	.loc 1 98 0
	strb	lr, [sp, #138]
	.loc 1 95 0
	mov	r5, r5, lsr #7
	.loc 1 93 0
	ubfx	lr, ip, #16, #8
	.loc 1 95 0
	orr	r5, r5, r4, asl #1
	.loc 1 97 0
	strb	r0, [sp, #137]
	.loc 1 94 0
	mov	r4, r4, lsr #7
	.loc 1 92 0
	ubfx	r0, ip, #8, #8
	.loc 1 94 0
	orr	r4, r4, lr, asl #1
	.loc 1 96 0
	strb	r7, [sp, #136]
	.loc 1 93 0
	mov	lr, lr, lsr #7
	.loc 1 91 0
	uxtb	r7, ip
	.loc 1 93 0
	orr	lr, lr, r0, asl #1
	.loc 1 95 0
	strb	r5, [sp, #135]
	.loc 1 92 0
	mov	r0, r0, lsr #7
	.loc 1 90 0
	mov	r5, r1, lsr #24
	.loc 1 92 0
	orr	r0, r0, r7, asl #1
	.loc 1 94 0
	strb	r4, [sp, #134]
	.loc 1 91 0
	mov	r7, r7, lsr #7
	.loc 1 89 0
	ubfx	r4, r1, #16, #8
	.loc 1 93 0
	strb	lr, [sp, #133]
	.loc 1 91 0
	orr	r7, r7, r5, asl #1
	.loc 1 88 0
	ubfx	lr, r1, #8, #8
	.loc 1 90 0
	mov	r5, r5, lsr #7
	orr	r5, r5, r4, asl #1
	.loc 1 92 0
	strb	r0, [sp, #132]
	.loc 1 89 0
	mov	r4, r4, lsr #7
.LBE307:
.LBE313:
	.loc 1 119 0
	uxtb	r0, r1
.LVL11:
.LBB314:
.LBB308:
	.loc 1 89 0
	orr	r4, r4, lr, asl #1
	.loc 1 88 0
	mov	lr, lr, lsr #7
.LBE308:
.LBE314:
	.loc 1 121 0
	movs	r8, r0, lsr #7
.LBB315:
.LBB309:
	.loc 1 104 0
	uxtb	r6, r6
	.loc 1 88 0
	orr	r0, lr, r0, asl #1
.LVL12:
	.loc 1 90 0
	strb	r5, [sp, #130]
	.loc 1 89 0
	strb	r4, [sp, #129]
.LBE309:
.LBE315:
.LBE327:
.LBE335:
	.loc 1 176 0
	mov	r5, #0
.LBB336:
.LBB328:
.LBB316:
.LBB310:
	.loc 1 88 0
	strb	r0, [sp, #128]
.LBE310:
.LBE316:
.LBE328:
.LBE336:
	.loc 1 176 0
	mov	r4, #16
.LBB337:
.LBB329:
.LBB317:
.LBB311:
	.loc 1 91 0
	strb	r7, [sp, #131]
	.loc 1 104 0
	strb	r6, [sp, #143]
.LBE311:
.LBE317:
	.loc 1 122 0
	eorne	r6, r6, #120
.LBB318:
.LBB319:
	.loc 1 45 0
	ldr	lr, [sp, #128]
	.loc 1 46 0
	ldr	r0, [sp, #132]
.LBE319:
.LBE318:
	.loc 1 122 0
	mvnne	r6, r6
.LBE329:
.LBE337:
	.loc 1 176 0
	ldrd	sl, [sp, #56]
.LBB338:
.LBB330:
.LBB323:
.LBB320:
	.loc 1 45 0
	eor	r1, r1, lr
.LVL13:
.LBE320:
.LBE323:
	.loc 1 122 0
	strneb	r6, [sp, #143]
.LVL14:
.LBB324:
.LBB321:
	.loc 1 46 0
	eor	ip, ip, r0
	.loc 1 47 0
	ldr	lr, [sp, #136]
.LBE321:
.LBE324:
.LBE330:
.LBE338:
	.loc 1 176 0
	cmp	r5, fp
	it eq
	cmpeq	r4, sl
.LBB339:
.LBB331:
.LBB325:
.LBB322:
	.loc 1 48 0
	ldr	r0, [sp, #140]
	.loc 1 47 0
	eor	r2, r2, lr
	.loc 1 45 0
	str	r1, [sp, #80]
	.loc 1 48 0
	eor	r3, r3, r0
	.loc 1 46 0
	str	ip, [sp, #84]
	.loc 1 47 0
	str	r2, [sp, #88]
	.loc 1 48 0
	str	r3, [sp, #92]
.LBE322:
.LBE325:
.LBE331:
.LBE339:
	.loc 1 176 0
	bcs	.L48
	mov	r4, sl
	mov	r5, fp
	ldrb	r6, [sp, #85]	@ zero_extendqisi2
	strd	r4, [sp, #48]
	ldrb	r5, [sp, #84]	@ zero_extendqisi2
	ldrb	r4, [sp, #86]	@ zero_extendqisi2
	str	r6, [sp, #44]
	str	r5, [sp, #36]
	ldrb	r6, [sp, #88]	@ zero_extendqisi2
	ldrb	r5, [sp, #87]	@ zero_extendqisi2
	str	r4, [sp, #64]
	str	r6, [sp, #32]
	ldrb	r4, [sp, #90]	@ zero_extendqisi2
	ldrb	r6, [sp, #92]	@ zero_extendqisi2
	str	r5, [sp, #28]
	ldrb	r5, [sp, #91]	@ zero_extendqisi2
	ldrb	sl, [sp, #80]	@ zero_extendqisi2
	ldrb	r8, [sp, #81]	@ zero_extendqisi2
	ldrb	r9, [sp, #82]	@ zero_extendqisi2
	ldrb	r7, [sp, #83]	@ zero_extendqisi2
	ldrb	lr, [sp, #89]	@ zero_extendqisi2
	str	r4, [sp, #8]
	str	r5, [sp, #12]
	str	r6, [sp, #16]
	ldrb	r5, [sp, #95]	@ zero_extendqisi2
	ldrb	r6, [sp, #94]	@ zero_extendqisi2
	ldrb	r4, [sp, #93]	@ zero_extendqisi2
	str	r5, [sp, #4]
	mov	r5, sl
	str	r6, [sp, #24]
	mov	r6, r8
	ldr	fp, [sp, #72]
	mov	r8, r7
	str	lr, [sp, #40]
	mov	r7, r9
	str	r4, [sp, #20]
	mov	r9, lr
	ldr	sl, [sp, #36]
	b	.L10
.LVL15:
.L49:
	ldr	r1, [sp, #80]
	ldr	ip, [sp, #84]
	ldr	r2, [sp, #88]
	ldr	r3, [sp, #92]
.LVL16:
.L10:
.LBB340:
.LBB341:
	.loc 1 46 0
	ldr	r4, [fp, #4]
.LBE341:
.LBE340:
	.loc 1 178 0
	add	r0, sp, #128
.LVL17:
.LBB347:
.LBB342:
	.loc 1 45 0
	ldr	lr, [fp, #0]
	.loc 1 46 0
	eor	ip, ip, r4
	.loc 1 48 0
	ldr	r4, [fp, #12]
	.loc 1 45 0
	eor	lr, r1, lr
	str	lr, [sp, #128]
	.loc 1 47 0
	ldr	lr, [fp, #8]
	.loc 1 48 0
	eor	r3, r3, r4
.LBE342:
.LBE347:
	.loc 1 178 0
	mov	r1, r0
.LBB348:
.LBB343:
	.loc 1 46 0
	str	ip, [sp, #132]
.LBE343:
.LBE348:
.LBB349:
.LBB350:
.LBB351:
.LBB352:
	.loc 1 89 0
	mov	r4, r7, lsr #7
.LBE352:
.LBE351:
.LBE350:
.LBE349:
.LBB410:
.LBB344:
	.loc 1 47 0
	eor	ip, r2, lr
.LBE344:
.LBE410:
	.loc 1 178 0
	ldr	r2, [sp, #68]
.LBB411:
.LBB391:
.LBB372:
.LBB353:
	.loc 1 89 0
	orr	r4, r4, r6, asl #1
.LBE353:
.LBE372:
.LBE391:
.LBE411:
.LBB412:
.LBB345:
	.loc 1 47 0
	str	ip, [sp, #136]
.LBE345:
.LBE412:
	.loc 1 182 0
	add	fp, fp, #16
.LVL18:
.LBB413:
.LBB346:
	.loc 1 48 0
	str	r3, [sp, #140]
.LBE346:
.LBE413:
	.loc 1 178 0
	bl	aesc_encrypt
.LVL19:
.LBB414:
.LBB392:
.LBB373:
.LBB354:
	.loc 1 88 0
	mov	r2, r6, lsr #7
	.loc 1 97 0
	ldr	r6, [sp, #8]
.LBE354:
.LBE373:
.LBE392:
	.loc 1 109 0
	bic	r3, r5, #127
.LBB393:
.LBB374:
.LBB355:
	.loc 1 92 0
	ldr	r1, [sp, #44]
	.loc 1 88 0
	orr	r5, r2, r5, asl #1
	.loc 1 90 0
	mov	lr, r8, lsr #7
	.loc 1 88 0
	str	r5, [sp, #36]
	.loc 1 91 0
	mov	ip, sl, lsr #7
	.loc 1 93 0
	ldr	r5, [sp, #64]
	.loc 1 90 0
	orr	lr, lr, r7, asl #1
	.loc 1 91 0
	orr	ip, ip, r8, asl #1
	.loc 1 98 0
	ldr	r7, [sp, #12]
	.loc 1 93 0
	ldr	r8, [sp, #44]
	.loc 1 97 0
	mov	r6, r6, lsr #7
	str	r6, [sp, #40]
.LBE355:
.LBE374:
	.loc 1 111 0
	cmp	r3, #0
.LBB375:
.LBB356:
	.loc 1 99 0
	ldr	r6, [sp, #16]
	.loc 1 92 0
	mov	r0, r1, lsr #7
	.loc 1 94 0
	ldr	r3, [sp, #28]
	.loc 1 93 0
	mov	r1, r5, lsr #7
	.loc 1 92 0
	orr	r0, r0, sl, asl #1
	.loc 1 93 0
	orr	r1, r1, r8, asl #1
	.loc 1 98 0
	mov	sl, r7, lsr #7
	.loc 1 99 0
	mov	r8, r6, lsr #7
	.loc 1 94 0
	ldr	r7, [sp, #64]
	mov	r2, r3, lsr #7
	.loc 1 100 0
	ldr	r6, [sp, #20]
	.loc 1 93 0
	uxtb	r1, r1
	.loc 1 95 0
	ldr	r5, [sp, #32]
	.loc 1 94 0
	orr	r2, r2, r7, asl #1
	.loc 1 100 0
	mov	r7, r6, lsr #7
	.loc 1 95 0
	ldr	r6, [sp, #28]
	mov	r3, r5, lsr #7
	.loc 1 96 0
	mov	r5, r9, lsr #7
	.loc 1 94 0
	uxtb	r2, r2
	.loc 1 95 0
	orr	r3, r3, r6, asl #1
	str	r3, [sp, #28]
	.loc 1 101 0
	ldr	r3, [sp, #24]
	mov	r6, r3, lsr #7
	.loc 1 96 0
	ldr	r3, [sp, #32]
	orr	r5, r5, r3, asl #1
	.loc 1 102 0
	ldr	r3, [sp, #4]
	.loc 1 96 0
	str	r5, [sp, #32]
	.loc 1 102 0
	mov	r5, r3, lsr #7
	.loc 1 97 0
	ldr	r3, [sp, #40]
	orr	r9, r3, r9, asl #1
	.loc 1 98 0
	ldr	r3, [sp, #8]
	.loc 1 97 0
	uxtb	r9, r9
	.loc 1 98 0
	orr	sl, sl, r3, asl #1
	.loc 1 100 0
	ldr	r3, [sp, #16]
	.loc 1 98 0
	str	sl, [sp, #8]
	.loc 1 99 0
	ldr	sl, [sp, #12]
	.loc 1 100 0
	orr	r7, r7, r3, asl #1
	str	r7, [sp, #16]
	.loc 1 101 0
	ldr	r7, [sp, #20]
	.loc 1 99 0
	orr	r8, r8, sl, asl #1
.LBE356:
.LBE375:
.LBE393:
.LBE414:
.LBB415:
.LBB416:
	.loc 1 45 0
	ldr	r3, [sp, #112]
.LBE416:
.LBE415:
.LBB431:
.LBB394:
.LBB376:
.LBB357:
	.loc 1 104 0
	ldr	sl, [sp, #4]
	.loc 1 101 0
	orr	r6, r6, r7, asl #1
	.loc 1 99 0
	str	r8, [sp, #12]
	.loc 1 101 0
	str	r6, [sp, #20]
	.loc 1 90 0
	uxtb	r7, lr
	.loc 1 102 0
	ldr	r8, [sp, #24]
	.loc 1 104 0
	mov	sl, sl, asl #1
	.loc 1 88 0
	ldr	r6, [sp, #36]
	.loc 1 104 0
	str	sl, [sp, #4]
	.loc 1 92 0
	uxtb	sl, r0
	.loc 1 102 0
	orr	r5, r5, r8, asl #1
.LBE357:
.LBE376:
.LBE394:
.LBE431:
.LBB432:
.LBB417:
	.loc 1 47 0
	ldr	r0, [sp, #136]
.LBE417:
.LBE432:
.LBB433:
.LBB395:
.LBB377:
.LBB358:
	.loc 1 102 0
	str	r5, [sp, #24]
	.loc 1 91 0
	uxtb	r8, ip
.LBE358:
.LBE377:
.LBE395:
.LBE433:
.LBB434:
.LBB418:
	.loc 1 45 0
	str	r3, [sp, #0]
.LBE418:
.LBE434:
.LBB435:
.LBB396:
.LBB378:
.LBB359:
	.loc 1 88 0
	uxtb	r5, r6
.LBE359:
.LBE378:
.LBE396:
.LBE435:
.LBB436:
.LBB419:
	.loc 1 45 0
	ldr	r3, [sp, #128]
.LBE419:
.LBE436:
.LBB437:
.LBB397:
.LBB379:
.LBB360:
	.loc 1 89 0
	uxtb	r6, r4
.LBE360:
.LBE379:
.LBE397:
.LBE437:
.LBB438:
.LBB420:
	.loc 1 47 0
	ldr	ip, [sp, #120]
	.loc 1 46 0
	ldr	r4, [sp, #116]
.LBE420:
.LBE438:
.LBB439:
.LBB398:
.LBB380:
.LBB361:
	.loc 1 93 0
	str	r1, [sp, #44]
.LBE361:
.LBE380:
.LBE398:
.LBE439:
.LBB440:
.LBB421:
	.loc 1 47 0
	eor	ip, ip, r0
.LBE421:
.LBE440:
.LBB441:
.LBB399:
.LBB381:
.LBB362:
	.loc 1 95 0
	ldr	lr, [sp, #28]
	.loc 1 96 0
	ldr	r1, [sp, #32]
	.loc 1 94 0
	str	r2, [sp, #64]
	.loc 1 95 0
	uxtb	lr, lr
	.loc 1 98 0
	ldr	r2, [sp, #8]
	.loc 1 95 0
	str	lr, [sp, #28]
	.loc 1 96 0
	uxtb	r1, r1
	.loc 1 93 0
	ldr	lr, [sp, #44]
	.loc 1 96 0
	str	r1, [sp, #32]
	.loc 1 98 0
	uxtb	r2, r2
	.loc 1 99 0
	ldr	r1, [sp, #12]
	.loc 1 98 0
	str	r2, [sp, #8]
	.loc 1 93 0
	strb	lr, [sp, #85]
	.loc 1 94 0
	ldr	r2, [sp, #64]
	.loc 1 99 0
	uxtb	r1, r1
	.loc 1 100 0
	ldr	lr, [sp, #16]
	.loc 1 99 0
	str	r1, [sp, #12]
	.loc 1 95 0
	ldr	r1, [sp, #28]
	.loc 1 94 0
	strb	r2, [sp, #86]
	.loc 1 100 0
	uxtb	lr, lr
	.loc 1 101 0
	ldr	r2, [sp, #20]
	.loc 1 100 0
	str	lr, [sp, #16]
	.loc 1 96 0
	ldr	lr, [sp, #32]
	.loc 1 95 0
	strb	r1, [sp, #87]
	.loc 1 101 0
	uxtb	r2, r2
	.loc 1 102 0
	ldr	r1, [sp, #24]
	.loc 1 101 0
	str	r2, [sp, #20]
	.loc 1 96 0
	strb	lr, [sp, #88]
	.loc 1 104 0
	ldr	r2, [sp, #4]
	.loc 1 102 0
	uxtb	r1, r1
	.loc 1 98 0
	ldr	lr, [sp, #8]
	.loc 1 102 0
	str	r1, [sp, #24]
.LBE362:
.LBE381:
.LBE399:
.LBE441:
.LBB442:
.LBB422:
	.loc 1 45 0
	ldr	r1, [sp, #0]
.LBE422:
.LBE442:
.LBB443:
.LBB400:
.LBB382:
.LBB363:
	.loc 1 104 0
	uxtb	r2, r2
	.loc 1 98 0
	strb	lr, [sp, #90]
.LBE363:
.LBE382:
.LBE400:
.LBE443:
.LBB444:
.LBB423:
	.loc 1 45 0
	eor	r1, r1, r3
.LBE423:
.LBE444:
.LBB445:
.LBB401:
.LBB383:
.LBB364:
	.loc 1 104 0
	str	r2, [sp, #4]
	.loc 1 88 0
	strb	r5, [sp, #80]
	.loc 1 89 0
	strb	r6, [sp, #81]
	.loc 1 90 0
	strb	r7, [sp, #82]
	.loc 1 91 0
	strb	r8, [sp, #83]
	.loc 1 92 0
	strb	sl, [sp, #84]
	.loc 1 97 0
	strb	r9, [sp, #89]
.LBE364:
.LBE383:
.LBE401:
.LBE445:
.LBB446:
.LBB424:
	.loc 1 45 0
	str	r1, [sp, #0]
.LBE424:
.LBE446:
.LBB447:
.LBB402:
.LBB384:
.LBB365:
	.loc 1 99 0
	ldr	r3, [sp, #12]
.LBE365:
.LBE384:
.LBE402:
.LBE447:
.LBB448:
.LBB425:
	.loc 1 46 0
	ldr	r2, [sp, #132]
	.loc 1 45 0
	str	r1, [sp, #112]
.LBE425:
.LBE448:
.LBB449:
.LBB403:
.LBB385:
.LBB366:
	.loc 1 99 0
	strb	r3, [sp, #91]
.LBE366:
.LBE385:
.LBE403:
.LBE449:
.LBB450:
.LBB426:
	.loc 1 46 0
	eor	r4, r4, r2
.LBE426:
.LBE450:
.LBB451:
.LBB404:
.LBB386:
.LBB367:
	.loc 1 100 0
	ldr	r3, [sp, #16]
.LBE367:
.LBE386:
.LBE404:
.LBE451:
	.loc 1 183 0
	ldrd	r0, [sp, #48]
.LBB452:
.LBB427:
	.loc 1 48 0
	ldr	lr, [sp, #124]
.LBE427:
.LBE452:
.LBB453:
.LBB405:
.LBB387:
.LBB368:
	.loc 1 100 0
	strb	r3, [sp, #92]
	.loc 1 101 0
	ldr	r3, [sp, #20]
.LBE368:
.LBE387:
.LBE405:
.LBE453:
.LBB454:
.LBB428:
	.loc 1 48 0
	ldr	r2, [sp, #140]
	.loc 1 46 0
	str	r4, [sp, #116]
.LBE428:
.LBE454:
.LBB455:
.LBB406:
.LBB388:
.LBB369:
	.loc 1 101 0
	strb	r3, [sp, #93]
.LBE369:
.LBE388:
.LBE406:
.LBE455:
.LBB456:
.LBB429:
	.loc 1 48 0
	eor	lr, lr, r2
.LBE429:
.LBE456:
.LBB457:
.LBB407:
.LBB389:
.LBB370:
	.loc 1 102 0
	ldr	r3, [sp, #24]
.LBE370:
.LBE389:
.LBE407:
.LBE457:
	.loc 1 176 0
	mov	r2, #16
.LBB458:
.LBB430:
	.loc 1 47 0
	str	ip, [sp, #120]
	.loc 1 48 0
	str	lr, [sp, #124]
.LVL20:
.LBE430:
.LBE458:
.LBB459:
.LBB408:
.LBB390:
.LBB371:
	.loc 1 102 0
	strb	r3, [sp, #94]
.LBE371:
.LBE390:
	.loc 1 112 0
	ldr	r3, [sp, #4]
	eorne	r3, r3, #135
	strne	r3, [sp, #4]
.LBE408:
.LBE459:
	.loc 1 183 0
	subs	r0, r0, #16
.LVL21:
	sbc	r1, r1, #0
.LBB460:
.LBB409:
	.loc 1 112 0
	strb	r3, [sp, #95]
.LBE409:
.LBE460:
	.loc 1 176 0
	mov	r3, #0
	cmp	r3, r1
	it eq
	cmpeq	r2, r0
	.loc 1 183 0
	strd	r0, [sp, #48]
	.loc 1 176 0
	bcc	.L49
	ldr	r3, [sp, #0]
	.loc 1 164 0
	mvn	fp, #15
.LVL22:
	ldrd	r0, [sp, #56]
	str	r9, [sp, #40]
	mov	r9, r7
	mov	r7, r8
	mov	r8, r6
	ldr	r6, [sp, #24]
	subs	r0, r0, #17
	str	r3, [sp, #24]
	sbc	r1, r1, #0
	ldrd	r2, [sp, #56]
	str	sl, [sp, #36]
	mov	sl, r5
	subs	r2, r2, #16
	mov	r5, r4
	sbc	r3, r3, #0
	strd	r2, [sp, #48]
	mov	r3, r0, lsr #4
	mov	r4, ip
	orr	r3, r3, r1, asl #28
	mov	ip, r1, lsr #4
	rsb	r0, r3, #0
	add	r1, r3, #1
	umull	r2, r3, r3, fp
	mla	r0, fp, ip, r0
	ldr	ip, [sp, #72]
	add	ip, ip, r1, asl #4
	str	ip, [sp, #72]
	add	r3, r0, r3
	ldrd	r0, [sp, #48]
	adds	r0, r0, r2
	adc	r1, r1, r3
	strd	r0, [sp, #56]
	mov	r2, r0
	mov	r3, r1
.LVL23:
.L6:
	.loc 1 185 0
	cmp	r3, #0
	it eq
	cmpeq	r2, #16
	beq	.L50
.LVL24:
.LBB461:
.LBB462:
.LBB463:
.LBB464:
	.loc 1 104 0
	ldr	ip, [sp, #4]
	.loc 1 101 0
	mov	r1, r6, lsr #7
.LBE464:
.LBE463:
	.loc 1 121 0
	movs	fp, sl, lsr #7
.LBB469:
.LBB465:
	.loc 1 102 0
	mov	r2, ip, lsr #7
	.loc 1 104 0
	mov	r3, ip, asl #1
	.loc 1 102 0
	orr	r6, r2, r6, asl #1
	strb	r6, [sp, #110]
	.loc 1 101 0
	ldr	r6, [sp, #20]
	.loc 1 104 0
	uxtb	r3, r3
	str	r3, [sp, #4]
	.loc 1 100 0
	ldr	r3, [sp, #20]
	.loc 1 99 0
	ldr	ip, [sp, #16]
	.loc 1 101 0
	orr	r0, r1, r6, asl #1
	.loc 1 100 0
	ldr	r6, [sp, #16]
	mov	r2, r3, lsr #7
	.loc 1 104 0
	ldr	fp, [sp, #4]
	.loc 1 99 0
	mov	r3, ip, lsr #7
	.loc 1 97 0
	ldr	ip, [sp, #8]
	.loc 1 100 0
	orr	r2, r2, r6, asl #1
	.loc 1 96 0
	ldr	r6, [sp, #40]
	.loc 1 104 0
	strb	fp, [sp, #111]
	.loc 1 101 0
	strb	r0, [sp, #109]
	.loc 1 97 0
	mov	r0, ip, lsr #7
	.loc 1 98 0
	ldr	fp, [sp, #12]
	.loc 1 96 0
	mov	ip, r6, lsr #7
	.loc 1 99 0
	ldr	r6, [sp, #12]
	.loc 1 100 0
	strb	r2, [sp, #108]
	.loc 1 98 0
	mov	r1, fp, lsr #7
	.loc 1 95 0
	ldr	fp, [sp, #32]
	.loc 1 99 0
	orr	r3, r3, r6, asl #1
	strb	r3, [sp, #107]
	.loc 1 93 0
	ldr	r3, [sp, #64]
	.loc 1 98 0
	ldr	r6, [sp, #8]
	.loc 1 95 0
	mov	fp, fp, lsr #7
	str	fp, [sp, #20]
	.loc 1 93 0
	mov	r3, r3, lsr #7
	.loc 1 94 0
	ldr	fp, [sp, #28]
	.loc 1 93 0
	str	r3, [sp, #16]
	.loc 1 98 0
	orr	r1, r1, r6, asl #1
	.loc 1 97 0
	ldr	r3, [sp, #40]
	.loc 1 96 0
	ldr	r6, [sp, #32]
	.loc 1 94 0
	mov	r2, fp, lsr #7
	.loc 1 98 0
	strb	r1, [sp, #106]
	.loc 1 97 0
	orr	r0, r0, r3, asl #1
	.loc 1 92 0
	ldr	fp, [sp, #44]
	.loc 1 91 0
	ldr	r1, [sp, #36]
	.loc 1 96 0
	orr	ip, ip, r6, asl #1
	.loc 1 97 0
	strb	r0, [sp, #105]
	.loc 1 88 0
	mov	r6, r8, lsr #7
	.loc 1 95 0
	ldr	r0, [sp, #28]
	.loc 1 92 0
	mov	fp, fp, lsr #7
	.loc 1 96 0
	strb	ip, [sp, #104]
	.loc 1 91 0
	mov	r1, r1, lsr #7
	.loc 1 95 0
	ldr	ip, [sp, #20]
	.loc 1 88 0
	orr	r6, r6, sl, asl #1
	.loc 1 92 0
	str	fp, [sp, #12]
	.loc 1 90 0
	mov	fp, r7, lsr #7
	.loc 1 95 0
	orr	r3, ip, r0, asl #1
	.loc 1 91 0
	str	r1, [sp, #8]
	.loc 1 94 0
	ldr	ip, [sp, #64]
	.loc 1 89 0
	mov	r1, r9, lsr #7
	.loc 1 95 0
	strb	r3, [sp, #103]
.LVL25:
	.loc 1 89 0
	orr	r1, r1, r8, asl #1
	.loc 1 93 0
	ldr	r3, [sp, #44]
	ldr	r0, [sp, #16]
	.loc 1 94 0
	orr	r2, r2, ip, asl #1
	strb	r2, [sp, #102]
	.loc 1 93 0
	orr	r2, r0, r3, asl #1
	.loc 1 92 0
	ldr	r0, [sp, #36]
	ldr	ip, [sp, #12]
	.loc 1 88 0
	strb	r6, [sp, #96]
	.loc 1 92 0
	orr	r3, ip, r0, asl #1
.LBE465:
.LBE469:
	.loc 1 122 0
	ldrne	r6, [sp, #4]
.LBB470:
.LBB466:
	.loc 1 92 0
	strb	r3, [sp, #100]
	.loc 1 91 0
	ldr	r3, [sp, #8]
	.loc 1 93 0
	strb	r2, [sp, #101]
	.loc 1 91 0
	orr	r2, r3, r7, asl #1
	.loc 1 90 0
	orr	r3, fp, r9, asl #1
	strb	r3, [sp, #98]
.LBE466:
.LBE470:
	.loc 1 122 0
	eorne	r3, r6, #120
.LBB471:
.LBB467:
	.loc 1 89 0
	strb	r1, [sp, #97]
.LBE467:
.LBE471:
	.loc 1 122 0
	mvnne	r3, r3
.LBB472:
.LBB473:
	.loc 1 48 0
	ldr	r9, [sp, #92]
.LBE473:
.LBE472:
	.loc 1 122 0
	strneb	r3, [sp, #111]
.LBB484:
.LBB474:
	.loc 1 48 0
	ldr	r1, [sp, #108]
.LBE474:
.LBE484:
.LBB485:
.LBB468:
	.loc 1 91 0
	strb	r2, [sp, #99]
.LBE468:
.LBE485:
.LBB486:
.LBB475:
	.loc 1 48 0
	eor	r9, r9, r1
	.loc 1 47 0
	ldr	r3, [sp, #104]
	ldr	r2, [sp, #88]
.LBE475:
.LBE486:
.LBE462:
.LBE461:
.LBB503:
.LBB504:
.LBB505:
.LBB506:
	.loc 1 101 0
	ubfx	r7, r9, #16, #8
.LBE506:
.LBE505:
.LBE504:
.LBE503:
.LBB550:
.LBB495:
.LBB487:
.LBB476:
	.loc 1 46 0
	ldr	r1, [sp, #84]
.LBE476:
.LBE487:
.LBE495:
.LBE550:
.LBB551:
.LBB539:
.LBB518:
.LBB507:
	.loc 1 102 0
	mov	r8, r9, lsr #24
.LBE507:
.LBE518:
.LBE539:
.LBE551:
.LBB552:
.LBB496:
.LBB488:
.LBB477:
	.loc 1 46 0
	ldr	r0, [sp, #100]
	.loc 1 47 0
	eor	r3, r2, r3
	.loc 1 45 0
	ldr	ip, [sp, #80]
.LBE477:
.LBE488:
.LBE496:
.LBE552:
.LBB553:
.LBB540:
.LBB519:
.LBB508:
	.loc 1 104 0
	mov	sl, r8, asl #1
.LVL26:
.LBE508:
.LBE519:
.LBE540:
.LBE553:
.LBB554:
.LBB497:
.LBB489:
.LBB478:
	.loc 1 45 0
	ldr	r6, [sp, #96]
	.loc 1 46 0
	eor	r2, r1, r0
.LBE478:
.LBE489:
.LBE497:
.LBE554:
.LBB555:
.LBB541:
.LBB520:
.LBB509:
	.loc 1 102 0
	mov	r8, r8, lsr #7
	.loc 1 98 0
	mov	r0, r3, lsr #24
.LBE509:
.LBE520:
.LBE541:
.LBE555:
.LBB556:
.LBB498:
.LBB490:
.LBB479:
	.loc 1 45 0
	eor	r1, ip, r6
.LBE479:
.LBE490:
.LBE498:
.LBE556:
.LBB557:
.LBB542:
.LBB521:
.LBB510:
	.loc 1 100 0
	ubfx	r6, r9, #8, #8
	.loc 1 99 0
	uxtb	ip, r9
	.loc 1 102 0
	orr	r8, r8, r7, asl #1
	.loc 1 101 0
	mov	r7, r7, lsr #7
	.loc 1 102 0
	strb	r8, [sp, #110]
	.loc 1 101 0
	orr	r7, r7, r6, asl #1
	.loc 1 100 0
	mov	r6, r6, lsr #7
	orr	r6, r6, ip, asl #1
	.loc 1 97 0
	ubfx	r8, r3, #16, #8
	.loc 1 99 0
	mov	ip, ip, lsr #7
	.loc 1 101 0
	strb	r7, [sp, #109]
	.loc 1 99 0
	orr	ip, ip, r0, asl #1
	.loc 1 96 0
	ubfx	r7, r3, #8, #8
	.loc 1 98 0
	mov	r0, r0, lsr #7
	.loc 1 100 0
	strb	r6, [sp, #108]
	.loc 1 98 0
	orr	r0, r0, r8, asl #1
	.loc 1 95 0
	uxtb	r6, r3
	.loc 1 97 0
	mov	r8, r8, lsr #7
	.loc 1 99 0
	strb	ip, [sp, #107]
	.loc 1 97 0
	orr	r8, r8, r7, asl #1
	.loc 1 94 0
	mov	ip, r2, lsr #24
	.loc 1 96 0
	mov	r7, r7, lsr #7
	.loc 1 98 0
	strb	r0, [sp, #106]
	.loc 1 96 0
	orr	r7, r7, r6, asl #1
	.loc 1 93 0
	ubfx	r0, r2, #16, #8
	.loc 1 95 0
	mov	r6, r6, lsr #7
	.loc 1 97 0
	strb	r8, [sp, #105]
	.loc 1 95 0
	orr	r6, r6, ip, asl #1
	.loc 1 92 0
	ubfx	r8, r2, #8, #8
	.loc 1 94 0
	mov	ip, ip, lsr #7
	.loc 1 96 0
	strb	r7, [sp, #104]
	.loc 1 94 0
	orr	ip, ip, r0, asl #1
	.loc 1 91 0
	uxtb	r7, r2
	.loc 1 93 0
	mov	r0, r0, lsr #7
	.loc 1 104 0
	uxtb	sl, sl
	.loc 1 93 0
	orr	r0, r0, r8, asl #1
	.loc 1 104 0
	strb	sl, [sp, #111]
.LBE510:
.LBE521:
.LBE542:
.LBE557:
.LBB558:
.LBB499:
.LBB491:
.LBB480:
	.loc 1 48 0
	str	r9, [sp, #92]
.LVL27:
.LBE480:
.LBE491:
.LBE499:
.LBE558:
.LBB559:
.LBB543:
.LBB522:
.LBB511:
	.loc 1 92 0
	mov	r8, r8, lsr #7
.LBE511:
.LBE522:
.LBE543:
.LBE559:
.LBB560:
.LBB500:
.LBB492:
.LBB481:
	.loc 1 47 0
	str	r3, [sp, #88]
.LBE481:
.LBE492:
.LBE500:
.LBE560:
.LBB561:
.LBB544:
.LBB523:
.LBB512:
	.loc 1 92 0
	orr	r8, r8, r7, asl #1
.LBE512:
.LBE523:
.LBE544:
.LBE561:
.LBB562:
.LBB501:
.LBB493:
.LBB482:
	.loc 1 46 0
	str	r2, [sp, #84]
.LBE482:
.LBE493:
.LBE501:
.LBE562:
.LBB563:
.LBB545:
.LBB524:
.LBB513:
	.loc 1 91 0
	mov	r7, r7, lsr #7
	.loc 1 95 0
	strb	r6, [sp, #103]
	.loc 1 90 0
	mov	r6, r1, lsr #24
	.loc 1 94 0
	strb	ip, [sp, #102]
	.loc 1 89 0
	ubfx	ip, r1, #16, #8
	.loc 1 91 0
	orr	r7, r7, r6, asl #1
	.loc 1 93 0
	strb	r0, [sp, #101]
	.loc 1 92 0
	strb	r8, [sp, #100]
	.loc 1 88 0
	ubfx	r0, r1, #8, #8
.LBE513:
.LBE524:
	.loc 1 119 0
	uxtb	r8, r1
.LVL28:
.LBB525:
.LBB514:
	.loc 1 90 0
	mov	r6, r6, lsr #7
.LBE514:
.LBE525:
	.loc 1 121 0
	movs	fp, r8, lsr #7
.LBB526:
.LBB515:
	.loc 1 90 0
	orr	r6, r6, ip, asl #1
	.loc 1 89 0
	mov	ip, ip, lsr #7
.LBE515:
.LBE526:
	.loc 1 122 0
	eorne	sl, sl, #120
.LBB527:
.LBB516:
	.loc 1 89 0
	orr	ip, ip, r0, asl #1
	.loc 1 91 0
	strb	r7, [sp, #99]
	.loc 1 90 0
	strb	r6, [sp, #98]
	.loc 1 88 0
	mov	r0, r0, lsr #7
	.loc 1 89 0
	strb	ip, [sp, #97]
	.loc 1 88 0
	orr	r0, r0, r8, asl #1
.LBE516:
.LBE527:
.LBE545:
.LBE563:
	.loc 1 194 0
	ldrd	r6, [sp, #56]
.LBB564:
.LBB546:
	.loc 1 122 0
	mvnne	sl, sl
.LBB528:
.LBB529:
	.loc 1 46 0
	ldr	ip, [sp, #100]
.LBE529:
.LBE528:
.LBB534:
.LBB517:
	.loc 1 88 0
	strb	r0, [sp, #96]
.LBE517:
.LBE534:
	.loc 1 122 0
	strneb	sl, [sp, #111]
.LVL29:
.LBB535:
.LBB530:
	.loc 1 46 0
	eor	ip, ip, r5
	.loc 1 45 0
	ldr	r0, [sp, #96]
.LBE530:
.LBE535:
.LBE546:
.LBE564:
	.loc 1 194 0
	orrs	r7, r6, r7
.LBB565:
.LBB547:
.LBB536:
.LBB531:
	.loc 1 45 0
	ldr	r8, [sp, #24]
.LVL30:
.LBE531:
.LBE536:
.LBE547:
.LBE565:
.LBB566:
.LBB567:
	.loc 1 46 0
	eor	ip, ip, r2
.LBE567:
.LBE566:
.LBB571:
.LBB548:
.LBB537:
.LBB532:
	.loc 1 47 0
	ldr	r6, [sp, #104]
	.loc 1 48 0
	ldr	r5, [sp, #108]
.LVL31:
	.loc 1 45 0
	eor	r0, r0, r8
	.loc 1 47 0
	eor	r4, r6, r4
.LBE532:
.LBE537:
.LBE548:
.LBE571:
.LBB572:
.LBB568:
	.loc 1 45 0
	eor	r0, r0, r1
.LBE568:
.LBE572:
.LBB573:
.LBB549:
.LBB538:
.LBB533:
	.loc 1 48 0
	eor	lr, r5, lr
.LBE533:
.LBE538:
.LBE549:
.LBE573:
.LBB574:
.LBB569:
	.loc 1 47 0
	eor	r4, r4, r3
	.loc 1 48 0
	eor	r9, lr, r9
.LBE569:
.LBE574:
.LBB575:
.LBB502:
.LBB494:
.LBB483:
	.loc 1 45 0
	str	r1, [sp, #80]
.LBE483:
.LBE494:
.LBE502:
.LBE575:
.LBB576:
.LBB570:
	str	r0, [sp, #112]
	.loc 1 46 0
	str	ip, [sp, #116]
	.loc 1 47 0
	str	r4, [sp, #120]
	.loc 1 48 0
	str	r9, [sp, #124]
.LVL32:
.LBE570:
.LBE576:
	.loc 1 194 0
	beq	.L51
	ldr	r0, [sp, #60]
	ldr	lr, [sp, #56]
	.loc 1 164 0
	ldr	ip, [sp, #72]
	ldrd	r6, [sp, #56]
	mov	r5, r0, lsr #2
	tst	ip, #3
	mov	r4, lr, lsr #2
	orr	r4, r4, r0, asl #30
	movne	r3, #0
	moveq	r3, #1
	cmp	r7, #0
	it eq
	cmpeq	r6, #3
	mov	r7, r5, asl #2
	mov	r6, r4, asl #2
	orr	r7, r7, r4, lsr #30
	movls	r3, #0
	andhi	r3, r3, #1
	orrs	r8, r6, r7
	eor	r3, r3, #1
	orreq	r3, r3, #1
	cmp	r3, #0
	bne	.L23
	add	r0, sp, #112
.LVL33:
	mov	r2, #0
	mov	r3, #0
	mov	r8, ip
.LVL34:
.L18:
	.loc 1 164 0 is_stmt 0 discriminator 2
	mov	r1, r2, asl #2
	adds	r2, r2, #1
	adc	r3, r3, #0
	.loc 1 195 0 is_stmt 1 discriminator 2
	ldr	ip, [r0, r1]
	cmp	r3, r5
	it eq
	cmpeq	r2, r4
	ldr	lr, [r8, r1]
	eor	ip, lr, ip
	str	ip, [r0, r1]
	bcc	.L18
	ldrd	sl, [sp, #56]
	cmp	r7, fp
	it eq
	cmpeq	r6, sl
	beq	.L21
	ldr	r1, [sp, #72]
	mov	r4, sl
	mov	r5, fp
.L36:
	.loc 1 195 0 is_stmt 0
	ldrb	r2, [r1, r6]	@ zero_extendqisi2
	ldrb	r3, [r0, r6]	@ zero_extendqisi2
	eor	r3, r2, r3
	strb	r3, [r0, r6]
	.loc 1 194 0 is_stmt 1
	add	r6, r6, #1
.LVL35:
	mov	r3, #0
	mov	r2, r6
	cmp	r3, r5
	it eq
	cmpeq	r2, r4
	bcc	.L36
.LVL36:
.L21:
	.loc 1 197 0
	ldr	sl, [sp, #56]
	add	fp, sp, #152
	.loc 1 198 0
	ldr	r1, [sp, #76]
	.loc 1 197 0
	add	r6, fp, sl
	.loc 1 198 0
	ldr	r2, [sp, #68]
	.loc 1 197 0
	ldrb	r3, [r6, #-40]	@ zero_extendqisi2
	eor	r3, r3, #127
	mvn	r3, r3
	strb	r3, [r6, #-40]
	.loc 1 198 0
	bl	aesc_encrypt
.LVL37:
.L1:
	.loc 1 200 0
	movw	fp, #:lower16:__stack_chk_guard
	movt	fp, #:upper16:__stack_chk_guard
	ldr	r2, [sp, #148]
	ldr	r3, [fp, #0]
	cmp	r2, r3
	bne	.L52
	add	sp, sp, #156
	ldmfd	sp!, {r4, r5, r6, r7, r8, r9, sl, fp, pc}
.LVL38:
.L50:
.LBB577:
.LBB578:
.LBB579:
.LBB580:
	.loc 1 104 0
	ldr	fp, [sp, #4]
.LBE580:
.LBE579:
	.loc 1 121 0
	movs	r3, sl, lsr #7
.LBB586:
.LBB581:
	.loc 1 100 0
	ldr	ip, [sp, #20]
	.loc 1 101 0
	mov	r1, r6, lsr #7
	.loc 1 102 0
	mov	r3, fp, lsr #7
	.loc 1 104 0
	mov	r2, fp, asl #1
	.loc 1 102 0
	orr	r3, r3, r6, asl #1
	.loc 1 99 0
	ldr	r6, [sp, #16]
	.loc 1 104 0
	uxtb	r2, r2
	str	r2, [sp, #4]
	.loc 1 100 0
	mov	r2, ip, lsr #7
	.loc 1 102 0
	strb	r3, [sp, #110]
	.loc 1 101 0
	orr	r1, r1, ip, asl #1
	.loc 1 100 0
	orr	r2, r2, r6, asl #1
	.loc 1 97 0
	ldr	ip, [sp, #8]
	.loc 1 99 0
	mov	r3, r6, lsr #7
	.loc 1 96 0
	ldr	r6, [sp, #40]
	.loc 1 101 0
	strb	r1, [sp, #109]
	.loc 1 97 0
	mov	r1, ip, lsr #7
	.loc 1 98 0
	ldr	fp, [sp, #12]
	.loc 1 96 0
	mov	ip, r6, lsr #7
	.loc 1 99 0
	ldr	r6, [sp, #12]
	.loc 1 104 0
	ldr	r0, [sp, #4]
	.loc 1 100 0
	strb	r2, [sp, #108]
	.loc 1 99 0
	orr	r3, r3, r6, asl #1
	strb	r3, [sp, #107]
	.loc 1 93 0
	ldr	r3, [sp, #64]
	.loc 1 104 0
	strb	r0, [sp, #111]
	.loc 1 98 0
	mov	r0, fp, lsr #7
	.loc 1 95 0
	ldr	fp, [sp, #32]
	.loc 1 93 0
	mov	r3, r3, lsr #7
	str	r3, [sp, #16]
	.loc 1 92 0
	ldr	r3, [sp, #44]
	.loc 1 95 0
	mov	r2, fp, lsr #7
	.loc 1 94 0
	ldr	fp, [sp, #28]
	.loc 1 92 0
	mov	r3, r3, lsr #7
	str	r3, [sp, #12]
	.loc 1 96 0
	ldr	r3, [sp, #32]
	.loc 1 94 0
	mov	r6, fp, lsr #7
	.loc 1 98 0
	ldr	fp, [sp, #8]
	.loc 1 96 0
	orr	ip, ip, r3, asl #1
	strb	ip, [sp, #104]
	.loc 1 95 0
	ldr	ip, [sp, #28]
	.loc 1 98 0
	orr	r0, r0, fp, asl #1
	strb	r0, [sp, #106]
	.loc 1 88 0
	mov	r3, r8, lsr #7
	.loc 1 97 0
	ldr	r0, [sp, #40]
	.loc 1 88 0
	orr	r3, r3, sl, asl #1
	.loc 1 95 0
	orr	r2, r2, ip, asl #1
	.loc 1 94 0
	ldr	ip, [sp, #64]
	.loc 1 91 0
	ldr	fp, [sp, #36]
	.loc 1 97 0
	orr	r1, r1, r0, asl #1
	strb	r1, [sp, #105]
	.loc 1 94 0
	orr	r1, r6, ip, asl #1
	.loc 1 93 0
	ldr	r6, [sp, #44]
	.loc 1 94 0
	strb	r1, [sp, #102]
	.loc 1 90 0
	mov	r0, r7, lsr #7
	.loc 1 93 0
	ldr	r1, [sp, #16]
	.loc 1 90 0
	orr	r0, r0, r9, asl #1
	.loc 1 95 0
	strb	r2, [sp, #103]
	.loc 1 91 0
	mov	fp, fp, lsr #7
	.loc 1 93 0
	orr	r2, r1, r6, asl #1
	.loc 1 92 0
	ldr	r6, [sp, #36]
	ldr	ip, [sp, #12]
	.loc 1 91 0
	str	fp, [sp, #8]
	.loc 1 89 0
	mov	fp, r9, lsr #7
	.loc 1 93 0
	strb	r2, [sp, #101]
.LVL39:
	.loc 1 92 0
	orr	r1, ip, r6, asl #1
	.loc 1 90 0
	strb	r0, [sp, #98]
	.loc 1 89 0
	orr	r8, fp, r8, asl #1
.LBE581:
.LBE586:
	.loc 1 122 0
	ldrne	r0, [sp, #4]
.LBB587:
.LBB582:
	.loc 1 88 0
	strb	r3, [sp, #96]
	.loc 1 91 0
	ldr	ip, [sp, #8]
.LBE582:
.LBE587:
	.loc 1 122 0
	eorne	r3, r0, #120
.LBB588:
.LBB583:
	.loc 1 92 0
	strb	r1, [sp, #100]
	.loc 1 91 0
	orr	r2, ip, r7, asl #1
.LBE583:
.LBE588:
	.loc 1 122 0
	mvnne	r3, r3
.LBB589:
.LBB584:
	.loc 1 91 0
	strb	r2, [sp, #99]
.LBE584:
.LBE589:
	.loc 1 122 0
	strneb	r3, [sp, #111]
.LBB590:
.LBB585:
	.loc 1 89 0
	strb	r8, [sp, #97]
.LBE585:
.LBE590:
.LBB591:
.LBB592:
	.loc 1 46 0
	ldr	r3, [sp, #100]
	.loc 1 45 0
	ldr	r6, [sp, #24]
	ldr	r8, [sp, #96]
	.loc 1 46 0
	eor	r5, r3, r5
	.loc 1 47 0
	ldr	ip, [sp, #104]
	.loc 1 45 0
	ldr	r3, [sp, #80]
	eor	r8, r8, r6
.LBE592:
.LBE591:
.LBE578:
.LBE577:
.LBB599:
.LBB600:
	ldr	sl, [sp, #72]
.LVL40:
.LBE600:
.LBE599:
.LBB606:
.LBB597:
.LBB595:
.LBB593:
	.loc 1 47 0
	eor	r4, ip, r4
	.loc 1 48 0
	ldr	r0, [sp, #108]
.LBE593:
.LBE595:
.LBE597:
.LBE606:
.LBB607:
.LBB608:
	.loc 1 45 0
	eor	r8, r8, r3
.LBE608:
.LBE607:
.LBB611:
.LBB598:
.LBB596:
.LBB594:
	.loc 1 46 0
	ldr	ip, [sp, #84]
	.loc 1 48 0
	ldr	r3, [sp, #92]
.LVL41:
	eor	lr, r0, lr
	.loc 1 47 0
	ldr	r0, [sp, #88]
.LBE594:
.LBE596:
.LBE598:
.LBE611:
.LBB612:
.LBB609:
	.loc 1 46 0
	eor	r7, r5, ip
	.loc 1 48 0
	eor	lr, lr, r3
.LVL42:
.LBE609:
.LBE612:
.LBB613:
.LBB601:
	.loc 1 45 0
	ldr	r6, [sl, #0]
	.loc 1 46 0
	ldr	r5, [sl, #4]
.LBE601:
.LBE613:
.LBB614:
.LBB610:
	.loc 1 47 0
	eor	r4, r4, r0
.LBE610:
.LBE614:
.LBB615:
.LBB602:
	ldr	ip, [sl, #8]
.LBE602:
.LBE615:
	.loc 1 189 0
	add	r0, sp, #112
.LVL43:
.LBB616:
.LBB603:
	.loc 1 48 0
	ldr	r3, [sl, #12]
	.loc 1 45 0
	eor	r6, r8, r6
.LBE603:
.LBE616:
	.loc 1 189 0
	ldr	r1, [sp, #76]
.LBB617:
.LBB604:
	.loc 1 46 0
	eor	r5, r7, r5
.LBE604:
.LBE617:
	.loc 1 189 0
	ldr	r2, [sp, #68]
.LBB618:
.LBB605:
	.loc 1 47 0
	eor	ip, r4, ip
	.loc 1 48 0
	eor	r3, lr, r3
	.loc 1 45 0
	str	r6, [sp, #112]
	.loc 1 46 0
	str	r5, [sp, #116]
	.loc 1 47 0
	str	ip, [sp, #120]
	.loc 1 48 0
	str	r3, [sp, #124]
.LBE605:
.LBE618:
	.loc 1 189 0
	bl	aesc_encrypt
.LVL44:
	b	.L1
.LVL45:
.L48:
	ldrb	ip, [sp, #84]	@ zero_extendqisi2
	ldrb	r3, [sp, #85]	@ zero_extendqisi2
	ldrb	r4, [sp, #86]	@ zero_extendqisi2
	ldrb	r5, [sp, #87]	@ zero_extendqisi2
	ldrb	r6, [sp, #88]	@ zero_extendqisi2
	str	ip, [sp, #36]
	ldrb	ip, [sp, #89]	@ zero_extendqisi2
	str	r3, [sp, #44]
	str	r4, [sp, #64]
	ldrb	r3, [sp, #90]	@ zero_extendqisi2
	ldrb	r4, [sp, #91]	@ zero_extendqisi2
	str	r5, [sp, #28]
	str	r6, [sp, #32]
	ldrb	r5, [sp, #92]	@ zero_extendqisi2
	ldrb	r6, [sp, #93]	@ zero_extendqisi2
	str	ip, [sp, #40]
	ldrb	fp, [sp, #95]	@ zero_extendqisi2
	ldr	ip, [sp, #112]
	str	r3, [sp, #8]
	str	r4, [sp, #12]
	str	r5, [sp, #16]
	str	r6, [sp, #20]
	ldrb	sl, [sp, #80]	@ zero_extendqisi2
.LVL46:
	ldrb	r8, [sp, #81]	@ zero_extendqisi2
	ldrb	r9, [sp, #82]	@ zero_extendqisi2
	ldrb	r7, [sp, #83]	@ zero_extendqisi2
	ldrb	r6, [sp, #94]	@ zero_extendqisi2
	str	fp, [sp, #4]
	str	ip, [sp, #24]
	ldr	r5, [sp, #116]
	ldr	r4, [sp, #120]
	ldr	lr, [sp, #124]
	ldrd	r2, [sp, #56]
	b	.L6
.LVL47:
.L51:
	add	r0, sp, #112
.LVL48:
	b	.L21
.LVL49:
.L52:
	.loc 1 200 0
	bl	__stack_chk_fail
.LVL50:
.L23:
	mov	r1, ip
.LVL51:
	add	r0, sp, #112
.LVL52:
	.loc 1 194 0
	mov	r6, #0
	ldrd	r4, [sp, #56]
	b	.L36
	.cfi_endproc
.LFE67:
	.size	mac, .-mac
	.align	2
	.global	rol
	.type	rol, %function
rol:
.LFB70:
	.loc 1 308 0
	.cfi_startproc
	@ args = 0, pretend = 0, frame = 0
	@ frame_needed = 0, uses_anonymous_args = 0
	@ link register save eliminated.
.LVL53:
	stmfd	sp!, {r4, r5, r6, r7}
.LCFI2:
	.cfi_def_cfa_offset 16
	.cfi_offset 4, -16
	.cfi_offset 5, -12
	.cfi_offset 6, -8
	.cfi_offset 7, -4
	.loc 1 310 0
	cmp	r2, #1
	.loc 1 309 0
	ldrb	r3, [r1, #0]	@ zero_extendqisi2
	mov	r7, r3, lsr #7
.LVL54:
	.loc 1 310 0
	beq	.L54
	.loc 1 307 0
	sub	r6, r2, #1
.LVL55:
	mov	r3, r1
	add	r6, r0, r6
.LVL56:
.L55:
	mov	ip, r3
.LVL57:
	add	r3, r3, #1
.LVL58:
.LBB620:
	.loc 1 311 0
	ldrb	r5, [ip, #1]	@ zero_extendqisi2
	.loc 1 313 0
	ldrb	r4, [ip, #0]	@ zero_extendqisi2
	.loc 1 311 0
	mov	ip, r5, lsr #7
	.loc 1 313 0
	orr	ip, ip, r4, asl #1
	strb	ip, [r0], #1
.LVL59:
.LBE620:
	.loc 1 310 0
	cmp	r0, r6
	bne	.L55
	add	r1, r1, r2
	ldrb	r3, [r1, #-1]	@ zero_extendqisi2
.LVL60:
.L54:
	.loc 1 316 0
	orr	r3, r7, r3, asl #1
	strb	r3, [r0, #0]
	.loc 1 317 0
	ldmfd	sp!, {r4, r5, r6, r7}
	bx	lr
	.cfi_endproc
.LFE70:
	.size	rol, .-rol
	.align	2
	.global	mix
	.type	mix, %function
mix:
.LFB71:
	.loc 1 320 0
	.cfi_startproc
	@ args = 0, pretend = 0, frame = 24
	@ frame_needed = 0, uses_anonymous_args = 0
.LVL61:
	stmfd	sp!, {r4, r5, r6, r7, r8, r9, sl, fp, lr}
.LCFI3:
	.cfi_def_cfa_offset 36
	.cfi_offset 4, -36
	.cfi_offset 5, -32
	.cfi_offset 6, -28
	.cfi_offset 7, -24
	.cfi_offset 8, -20
	.cfi_offset 9, -16
	.cfi_offset 10, -12
	.cfi_offset 11, -8
	.cfi_offset 14, -4
	.loc 1 324 0
	cmp	r1, #0
	.loc 1 320 0
	ldr	r6, .L95
	sub	sp, sp, #28
.LCFI4:
	.cfi_def_cfa_offset 64
	.loc 1 321 0
	mov	r5, #0
	str	r5, [sp, #0]
	.loc 1 320 0
	ldr	r3, [r6, #0]
	.loc 1 321 0
	str	r5, [sp, #4]
	str	r5, [sp, #8]
	.loc 1 320 0
	str	r3, [sp, #20]
	.loc 1 321 0
	str	r5, [sp, #12]
.LVL62:
	.loc 1 324 0
	beq	.L79
	add	ip, r0, r1
	mov	r8, r1, lsr #2
	.loc 1 319 0
	orr	r3, ip, r0
	mov	r4, sp
	tst	r3, #3
	mov	r3, r8, asl #2
	movne	r2, #0
	moveq	r2, #1
	cmp	r1, #3
	movls	r2, #0
	andhi	r2, r2, #1
	eor	r2, r2, #1
	cmp	r8, r5
	orreq	r2, r2, #1
	cmp	r2, r5
	bne	.L80
	mov	r5, r2
.LVL63:
.L63:
	add	r5, r5, #1
	.loc 1 325 0 discriminator 2
	ldr	sl, [ip, r2]
	ldr	r7, [r0, r2]
	cmp	r8, r5
	eor	r7, sl, r7
	str	r7, [r4, r2]
	add	r2, r2, #4
	bhi	.L63
	cmp	r1, r3
	beq	.L64
.L84:
	.loc 1 325 0 is_stmt 0
	ldrb	r5, [ip, r3]	@ zero_extendqisi2
	ldrb	r2, [r0, r3]	@ zero_extendqisi2
	eor	r2, r5, r2
	strb	r2, [r4, r3]
	.loc 1 324 0 is_stmt 1
	add	r3, r3, #1
.LVL64:
	cmp	r1, r3
	bhi	.L84
.LVL65:
.L64:
.LBB624:
.LBB625:
	.loc 1 309 0
	ldrb	sl, [sp, #0]	@ zero_extendqisi2
	.loc 1 310 0
	subs	r5, r1, #1
	.loc 1 309 0
	mov	r7, sl, lsr #7
.LVL66:
	.loc 1 310 0
	beq	.L93
.LBE625:
.LBE624:
	.loc 1 319 0
	sub	r3, r1, #2
	cmp	r3, #1
	movls	r8, r5
	.loc 1 327 0
	movls	r3, sp
	movls	r2, sp
	bls	.L71
.LVL67:
.L61:
.LBB635:
.LBB630:
	.loc 1 319 0
	add	r3, sp, #1
.LBE630:
.LBE635:
	mov	ip, r5
	.loc 1 327 0
	mov	r2, sp
.L70:
.LBB636:
.LBB631:
.LBB626:
	.loc 1 313 0
	mov	fp, sl, asl #1
	.loc 1 311 0
	ldrb	sl, [r3, #1]	@ zero_extendqisi2
	ldrb	r9, [r2, #1]	@ zero_extendqisi2
.LVL68:
	sub	r8, ip, #3
	cmp	r8, #1
.LBE626:
	.loc 1 310 0
	sub	r8, ip, #2
.LBB627:
	.loc 1 311 0
	mov	ip, sl, lsr #7
	.loc 1 313 0
	orr	fp, fp, r9, lsr #7
	orr	r9, ip, r9, asl #1
.LVL69:
	strb	fp, [r3, #-1]
.LVL70:
.LBE627:
	.loc 1 310 0
	mov	ip, r8
.LBB628:
	.loc 1 313 0
	strb	r9, [r2, #1]
	add	r3, r3, #2
	.loc 1 319 0
	add	r2, r2, #2
.LVL71:
	bhi	.L70
.LBE628:
.LBE631:
.LBE636:
	.loc 1 313 0
	mov	r3, r2
.LVL72:
.L71:
.LBB637:
.LBB632:
	.loc 1 319 0
	add	r8, r3, r8
.L68:
	mov	ip, r2
.LVL73:
	add	r2, r2, #1
.LVL74:
.LBB629:
	.loc 1 311 0
	ldrb	r9, [ip, #1]	@ zero_extendqisi2
	.loc 1 313 0
	ldrb	sl, [ip, #0]	@ zero_extendqisi2
	.loc 1 311 0
	mov	ip, r9, lsr #7
	.loc 1 313 0
	orr	ip, ip, sl, asl #1
	strb	ip, [r3], #1
.LVL75:
.LBE629:
	.loc 1 310 0
	cmp	r3, r8
	bne	.L68
	.loc 1 316 0
	add	r3, sp, #24
.LVL76:
.LBE632:
.LBE637:
	.loc 1 329 0
	cmp	r1, #0
.LBB638:
.LBB633:
	.loc 1 316 0
	add	r5, r3, r5
	ldrb	r3, [r5, #-24]	@ zero_extendqisi2
	orr	r7, r7, r3, asl #1
	strb	r7, [r5, #-24]
.LVL77:
.LBE633:
.LBE638:
	.loc 1 329 0
	beq	.L60
	add	ip, r0, r1
	mov	r8, r1, lsr #2
.LVL78:
.L72:
	.loc 1 319 0
	add	r2, ip, #4
	add	r3, r0, #4
	cmp	ip, r3
	cmpcc	r0, r2
	orr	r3, ip, r0
	movcc	r2, #0
	movcs	r2, #1
	cmp	r1, #3
	movls	r2, #0
	andhi	r2, r2, #1
	tst	r3, #3
	mov	r3, r8, asl #2
	movne	r2, #0
	andeq	r2, r2, #1
	eor	r2, r2, #1
	cmp	r8, #0
	orreq	r2, r2, #1
	cmp	r2, #0
	bne	.L81
	mov	r5, r2
.LVL79:
.L74:
	.loc 1 330 0 discriminator 2
	ldr	r7, [r4, r2]
	add	r5, r5, #1
	ldr	sl, [r0, r2]
	cmp	r8, r5
	eor	sl, r7, sl
	str	sl, [r0, r2]
	.loc 1 331 0 discriminator 2
	ldr	sl, [ip, r2]
	eor	r7, r7, sl
	str	r7, [ip, r2]
	add	r2, r2, #4
	bhi	.L74
	cmp	r1, r3
	beq	.L60
.L83:
	.loc 1 330 0
	ldrb	r2, [r4, r3]	@ zero_extendqisi2
	ldrb	r5, [r0, r3]	@ zero_extendqisi2
	eor	r5, r2, r5
	strb	r5, [r0, r3]
	.loc 1 331 0
	ldrb	r5, [ip, r3]	@ zero_extendqisi2
	eor	r2, r2, r5
	strb	r2, [ip, r3]
	.loc 1 329 0
	add	r3, r3, #1
.LVL80:
	cmp	r1, r3
	bhi	.L83
.LVL81:
.L60:
	.loc 1 333 0
	ldr	r2, [sp, #20]
	ldr	r3, [r6, #0]
	cmp	r2, r3
	bne	.L94
	add	sp, sp, #28
	ldmfd	sp!, {r4, r5, r6, r7, r8, r9, sl, fp, pc}
.LVL82:
.L93:
.LBB639:
.LBB634:
	.loc 1 316 0
	orr	r7, r7, sl, asl #1
.LVL83:
	strb	r7, [sp, #0]
.LVL84:
	b	.L72
.LVL85:
.L79:
	ldrb	sl, [sp, #0]	@ zero_extendqisi2
	mov	r4, sp
.LBE634:
.LBE639:
	.loc 1 309 0
	mov	r7, r1
	.loc 1 310 0
	mvn	r5, #0
	b	.L61
.L80:
	.loc 1 319 0
	mov	r3, r5
	b	.L84
.LVL86:
.L94:
	.loc 1 333 0
	bl	__stack_chk_fail
.LVL87:
.L81:
	.loc 1 319 0
	mov	r3, #0
	b	.L83
.L96:
	.align	2
.L95:
	.word	__stack_chk_guard
	.cfi_endproc
.LFE71:
	.size	mix, .-mix
	.align	2
	.global	invmix
	.type	invmix, %function
invmix:
.LFB72:
	.loc 1 336 0
	.cfi_startproc
	@ args = 0, pretend = 0, frame = 24
	@ frame_needed = 0, uses_anonymous_args = 0
.LVL88:
	stmfd	sp!, {r4, r5, r6, r7, r8, r9, sl, fp, lr}
.LCFI5:
	.cfi_def_cfa_offset 36
	.cfi_offset 4, -36
	.cfi_offset 5, -32
	.cfi_offset 6, -28
	.cfi_offset 7, -24
	.cfi_offset 8, -20
	.cfi_offset 9, -16
	.cfi_offset 10, -12
	.cfi_offset 11, -8
	.cfi_offset 14, -4
.LBB645:
.LBB646:
	.loc 1 324 0
	cmp	r1, #0
.LBE646:
.LBE645:
	.loc 1 336 0
	ldr	r6, .L132
	sub	sp, sp, #28
.LCFI6:
	.cfi_def_cfa_offset 64
.LBB673:
.LBB663:
	.loc 1 321 0
	mov	r5, #0
	str	r5, [sp, #0]
.LBE663:
.LBE673:
	.loc 1 336 0
	ldr	r3, [r6, #0]
.LBB674:
.LBB664:
	.loc 1 321 0
	str	r5, [sp, #4]
	str	r5, [sp, #8]
.LBE664:
.LBE674:
	.loc 1 336 0
	str	r3, [sp, #20]
.LVL89:
.LBB675:
.LBB665:
	.loc 1 321 0
	str	r5, [sp, #12]
.LVL90:
	.loc 1 324 0
	beq	.L116
	add	ip, r0, r1
	mov	r8, r1, lsr #2
	.loc 1 335 0
	orr	r3, ip, r0
	mov	r4, sp
	tst	r3, #3
	mov	r3, r8, asl #2
	movne	r2, #0
	moveq	r2, #1
	cmp	r1, #3
	movls	r2, #0
	andhi	r2, r2, #1
	eor	r2, r2, #1
	cmp	r8, r5
	orreq	r2, r2, #1
	cmp	r2, r5
	bne	.L117
.LBE665:
.LBE675:
	mov	r5, r2
.LVL91:
.L100:
	add	r5, r5, #1
.LBB676:
.LBB666:
	.loc 1 325 0
	ldr	sl, [ip, r2]
	ldr	r7, [r0, r2]
	cmp	r8, r5
	eor	r7, sl, r7
	str	r7, [r4, r2]
	add	r2, r2, #4
	bhi	.L100
	cmp	r1, r3
	beq	.L101
.L121:
	ldrb	r5, [ip, r3]	@ zero_extendqisi2
	ldrb	r2, [r0, r3]	@ zero_extendqisi2
	eor	r2, r5, r2
	strb	r2, [r4, r3]
	.loc 1 324 0
	add	r3, r3, #1
.LVL92:
	cmp	r1, r3
	bhi	.L121
.LVL93:
.L101:
.LBB647:
.LBB648:
	.loc 1 309 0
	ldrb	sl, [sp, #0]	@ zero_extendqisi2
	.loc 1 310 0
	subs	r5, r1, #1
	.loc 1 309 0
	mov	r7, sl, lsr #7
.LVL94:
	.loc 1 310 0
	beq	.L130
.LBE648:
.LBE647:
	.loc 1 335 0
	sub	r3, r1, #2
	cmp	r3, #1
.LBE666:
.LBE676:
	movls	r8, r5
	.loc 1 327 0
	movls	r3, sp
	movls	r2, sp
	bls	.L108
.LVL95:
.L98:
.LBB677:
.LBB667:
.LBB658:
.LBB653:
	.loc 1 335 0
	add	r3, sp, #1
.LBE653:
.LBE658:
	mov	ip, r5
	.loc 1 327 0
	mov	r2, sp
.L107:
.LBB659:
.LBB654:
.LBB649:
	.loc 1 313 0
	mov	fp, sl, asl #1
	.loc 1 311 0
	ldrb	sl, [r3, #1]	@ zero_extendqisi2
	ldrb	r9, [r2, #1]	@ zero_extendqisi2
.LVL96:
	sub	r8, ip, #3
	cmp	r8, #1
.LBE649:
	.loc 1 310 0
	sub	r8, ip, #2
.LBB650:
	.loc 1 311 0
	mov	ip, sl, lsr #7
	.loc 1 313 0
	orr	fp, fp, r9, lsr #7
	orr	r9, ip, r9, asl #1
.LVL97:
	strb	fp, [r3, #-1]
.LVL98:
.LBE650:
	.loc 1 310 0
	mov	ip, r8
.LBB651:
	.loc 1 313 0
	strb	r9, [r2, #1]
	add	r3, r3, #2
	.loc 1 335 0
	add	r2, r2, #2
.LVL99:
	bhi	.L107
.LBE651:
.LBE654:
.LBE659:
.LBE667:
.LBE677:
	.loc 1 313 0
	mov	r3, r2
.LVL100:
.L108:
.LBB678:
.LBB668:
.LBB660:
.LBB655:
	.loc 1 335 0
	add	r8, r3, r8
.L105:
	mov	ip, r2
.LVL101:
	add	r2, r2, #1
.LVL102:
.LBB652:
	.loc 1 311 0
	ldrb	r9, [ip, #1]	@ zero_extendqisi2
	.loc 1 313 0
	ldrb	sl, [ip, #0]	@ zero_extendqisi2
	.loc 1 311 0
	mov	ip, r9, lsr #7
	.loc 1 313 0
	orr	ip, ip, sl, asl #1
	strb	ip, [r3], #1
.LVL103:
.LBE652:
	.loc 1 310 0
	cmp	r3, r8
	bne	.L105
	.loc 1 316 0
	add	r3, sp, #24
.LVL104:
.LBE655:
.LBE660:
	.loc 1 329 0
	cmp	r1, #0
.LBB661:
.LBB656:
	.loc 1 316 0
	add	r5, r3, r5
	ldrb	r3, [r5, #-24]	@ zero_extendqisi2
	orr	r7, r7, r3, asl #1
	strb	r7, [r5, #-24]
.LVL105:
.LBE656:
.LBE661:
	.loc 1 329 0
	beq	.L97
	add	ip, r0, r1
	mov	r8, r1, lsr #2
.LVL106:
.L109:
.LBE668:
.LBE678:
	.loc 1 335 0
	add	r2, ip, #4
	add	r3, r0, #4
	cmp	ip, r3
	cmpcc	r0, r2
	orr	r3, ip, r0
	movcc	r2, #0
	movcs	r2, #1
	cmp	r1, #3
	movls	r2, #0
	andhi	r2, r2, #1
	tst	r3, #3
	mov	r3, r8, asl #2
	movne	r2, #0
	andeq	r2, r2, #1
	eor	r2, r2, #1
	cmp	r8, #0
	orreq	r2, r2, #1
	cmp	r2, #0
	bne	.L118
.LBB679:
.LBB669:
	mov	r5, r2
.LVL107:
.L111:
.LBE669:
.LBE679:
	.loc 1 330 0
	ldr	r7, [r4, r2]
	add	r5, r5, #1
	ldr	sl, [r0, r2]
	cmp	r8, r5
	eor	sl, r7, sl
	str	sl, [r0, r2]
	.loc 1 331 0
	ldr	sl, [ip, r2]
	eor	r7, r7, sl
	str	r7, [ip, r2]
	add	r2, r2, #4
	bhi	.L111
	cmp	r1, r3
	beq	.L97
.L120:
.LBB680:
.LBB670:
	.loc 1 330 0
	ldrb	r2, [r4, r3]	@ zero_extendqisi2
	ldrb	r5, [r0, r3]	@ zero_extendqisi2
	eor	r5, r2, r5
	strb	r5, [r0, r3]
	.loc 1 331 0
	ldrb	r5, [ip, r3]	@ zero_extendqisi2
	eor	r2, r2, r5
	strb	r2, [ip, r3]
	.loc 1 329 0
	add	r3, r3, #1
.LVL108:
	cmp	r1, r3
	bhi	.L120
.LVL109:
.L97:
.LBE670:
.LBE680:
	.loc 1 338 0
	ldr	r2, [sp, #20]
	ldr	r3, [r6, #0]
	cmp	r2, r3
	bne	.L131
	add	sp, sp, #28
	ldmfd	sp!, {r4, r5, r6, r7, r8, r9, sl, fp, pc}
.LVL110:
.L130:
.LBB681:
.LBB671:
.LBB662:
.LBB657:
	.loc 1 316 0
	orr	r7, r7, sl, asl #1
.LVL111:
	strb	r7, [sp, #0]
.LVL112:
	b	.L109
.LVL113:
.L116:
	ldrb	sl, [sp, #0]	@ zero_extendqisi2
	mov	r4, sp
.LBE657:
.LBE662:
	.loc 1 309 0
	mov	r7, r1
	.loc 1 310 0
	mvn	r5, #0
	b	.L98
.L117:
.LBE671:
.LBE681:
	.loc 1 335 0
	mov	r3, r5
	b	.L121
.LVL114:
.L131:
	.loc 1 338 0
	bl	__stack_chk_fail
.LVL115:
.L118:
.LBB682:
.LBB672:
	.loc 1 335 0
	mov	r3, #0
	b	.L120
.L133:
	.align	2
.L132:
	.word	__stack_chk_guard
.LBE672:
.LBE682:
	.cfi_endproc
.LFE72:
	.size	invmix, .-invmix
	.align	2
	.global	xls
	.type	xls, %function
xls:
.LFB73:
	.loc 1 342 0
	.cfi_startproc
	@ args = 0, pretend = 0, frame = 128
	@ frame_needed = 0, uses_anonymous_args = 0
.LVL116:
	stmfd	sp!, {r4, r5, r6, r7, r8, r9, sl, fp, lr}
.LCFI7:
	.cfi_def_cfa_offset 36
	.cfi_offset 4, -36
	.cfi_offset 5, -32
	.cfi_offset 6, -28
	.cfi_offset 7, -24
	.cfi_offset 8, -20
	.cfi_offset 9, -16
	.cfi_offset 10, -12
	.cfi_offset 11, -8
	.cfi_offset 14, -4
	sub	sp, sp, #132
.LCFI8:
	.cfi_def_cfa_offset 168
.LBB731:
.LBB732:
.LBB733:
.LBB734:
	.loc 1 94 0
	ldrb	r7, [r2, #7]	@ zero_extendqisi2
.LBE734:
.LBE733:
.LBE732:
.LBE731:
	.loc 1 342 0
	mov	r4, r1
.LBB820:
.LBB809:
.LBB749:
.LBB735:
	.loc 1 93 0
	ldrb	r6, [r2, #6]	@ zero_extendqisi2
.LBE735:
.LBE749:
.LBE809:
.LBE820:
	.loc 1 342 0
	mov	r5, r0
.LBB821:
.LBB810:
.LBB750:
.LBB736:
	.loc 1 90 0
	ldrb	r1, [r2, #3]	@ zero_extendqisi2
.LVL117:
	.loc 1 94 0
	str	r7, [sp, #4]
	.loc 1 96 0
	ldrb	r7, [r2, #9]	@ zero_extendqisi2
	.loc 1 88 0
	ldrb	ip, [r2, #1]	@ zero_extendqisi2
	.loc 1 90 0
	mov	r9, r1, lsr #7
	.loc 1 89 0
	ldrb	r0, [r2, #2]	@ zero_extendqisi2
.LVL118:
	.loc 1 96 0
	str	r7, [sp, #20]
	.loc 1 93 0
	mov	r7, r6, lsr #7
	str	r7, [sp, #32]
	.loc 1 97 0
	ldrb	r7, [r2, #10]	@ zero_extendqisi2
	.loc 1 90 0
	orr	r9, r9, r0, asl #1
	.loc 1 95 0
	ldrb	r8, [r2, #8]	@ zero_extendqisi2
	.loc 1 89 0
	mov	fp, r0, lsr #7
.LBE736:
.LBE750:
.LBE810:
.LBE821:
	.loc 1 342 0
	str	r3, [sp, #48]
.LBB822:
.LBB811:
.LBB751:
.LBB737:
	.loc 1 88 0
	mov	r3, ip, lsr #7
.LVL119:
	.loc 1 97 0
	str	r7, [sp, #16]
	.loc 1 89 0
	orr	ip, fp, ip, asl #1
	.loc 1 88 0
	str	r3, [sp, #28]
	.loc 1 94 0
	ldr	r7, [sp, #4]
	.loc 1 89 0
	uxtb	ip, ip
	.loc 1 92 0
	ldrb	r3, [r2, #5]	@ zero_extendqisi2
	.loc 1 90 0
	str	r9, [sp, #64]
	.loc 1 93 0
	ldr	r9, [sp, #32]
	.loc 1 94 0
	mov	r7, r7, lsr #7
	.loc 1 95 0
	str	r8, [sp, #8]
	.loc 1 92 0
	mov	r8, r3, lsr #7
	.loc 1 94 0
	str	r7, [sp, #12]
	.loc 1 93 0
	orr	r3, r9, r3, asl #1
	.loc 1 95 0
	ldr	r9, [sp, #8]
	.loc 1 93 0
	str	r3, [sp, #32]
	.loc 1 94 0
	ldr	r3, [sp, #12]
	.loc 1 89 0
	str	ip, [sp, #12]
	.loc 1 94 0
	orr	r6, r3, r6, asl #1
	.loc 1 95 0
	mov	r3, r9, lsr #7
	ldr	r9, [sp, #4]
	.loc 1 91 0
	ldrb	lr, [r2, #4]	@ zero_extendqisi2
	.loc 1 94 0
	uxtb	r6, r6
	.loc 1 98 0
	ldrb	r7, [r2, #11]	@ zero_extendqisi2
	.loc 1 95 0
	orr	ip, r3, r9, asl #1
	.loc 1 96 0
	ldr	r9, [sp, #20]
	.loc 1 91 0
	mov	sl, lr, lsr #7
	.loc 1 99 0
	ldrb	fp, [r2, #12]	@ zero_extendqisi2
	.loc 1 100 0
	ldrb	r0, [r2, #13]	@ zero_extendqisi2
	.loc 1 91 0
	orr	sl, sl, r1, asl #1
	.loc 1 96 0
	mov	r3, r9, lsr #7
	ldr	r9, [sp, #8]
	.loc 1 101 0
	ldrb	r1, [r2, #14]	@ zero_extendqisi2
	.loc 1 92 0
	orr	r8, r8, lr, asl #1
	.loc 1 98 0
	str	r7, [sp, #24]
	.loc 1 95 0
	uxtb	ip, ip
.LBE737:
.LBE751:
	.loc 1 130 0
	ldrb	r7, [r2, #0]	@ zero_extendqisi2
.LBB752:
.LBB738:
	.loc 1 96 0
	orr	r3, r3, r9, asl #1
	.loc 1 102 0
	ldrb	lr, [r2, #15]	@ zero_extendqisi2
	.loc 1 92 0
	uxtb	r8, r8
	.loc 1 96 0
	str	r3, [sp, #44]
.LBE738:
.LBE752:
	.loc 1 132 0
	tst	r7, #128
.LBB753:
.LBB739:
	.loc 1 97 0
	ldr	r9, [sp, #16]
	.loc 1 91 0
	uxtb	sl, sl
	.loc 1 95 0
	str	ip, [sp, #8]
	.loc 1 94 0
	str	r6, [sp, #4]
	.loc 1 97 0
	mov	r3, r9, lsr #7
	ldr	r9, [sp, #20]
	.loc 1 94 0
	strb	r6, [sp, #94]
	.loc 1 96 0
	ldr	ip, [sp, #44]
	.loc 1 97 0
	orr	r3, r3, r9, asl #1
	.loc 1 98 0
	ldr	r9, [sp, #24]
	.loc 1 97 0
	str	r3, [sp, #52]
	.loc 1 95 0
	ldr	r6, [sp, #8]
	.loc 1 96 0
	uxtb	ip, ip
	.loc 1 98 0
	mov	r3, r9, lsr #7
	ldr	r9, [sp, #16]
	.loc 1 96 0
	str	ip, [sp, #20]
	.loc 1 95 0
	strb	r6, [sp, #95]
	.loc 1 98 0
	orr	r3, r3, r9, asl #1
	.loc 1 99 0
	ldr	r9, [sp, #24]
	.loc 1 98 0
	str	r3, [sp, #56]
	.loc 1 99 0
	mov	r3, fp, lsr #7
	.loc 1 96 0
	strb	ip, [sp, #96]
	.loc 1 99 0
	orr	r3, r3, r9, asl #1
	str	r3, [sp, #60]
	.loc 1 100 0
	mov	r3, r0, lsr #7
	.loc 1 88 0
	ldr	r9, [sp, #28]
	.loc 1 100 0
	orr	fp, r3, fp, asl #1
	.loc 1 101 0
	mov	r3, r1, lsr #7
	orr	r0, r3, r0, asl #1
	.loc 1 102 0
	mov	r3, lr, lsr #7
	orr	r1, r3, r1, asl #1
.LBE739:
.LBE753:
.LBE811:
.LBE822:
	.loc 1 342 0
	movw	r3, #:lower16:__stack_chk_guard
	movt	r3, #:upper16:__stack_chk_guard
.LBB823:
.LBB812:
.LBB754:
.LBB740:
	.loc 1 88 0
	orr	r9, r9, r7, asl #1
	.loc 1 90 0
	ldr	r7, [sp, #64]
	.loc 1 104 0
	mov	lr, lr, asl #1
.LBE740:
.LBE754:
.LBE812:
.LBE823:
	.loc 1 342 0
	ldr	r3, [r3, #0]
.LBB824:
.LBB813:
.LBB755:
.LBB741:
	.loc 1 100 0
	uxtb	fp, fp
	.loc 1 88 0
	str	r9, [sp, #40]
	.loc 1 104 0
	uxtb	lr, lr
	.loc 1 90 0
	uxtb	r9, r7
	.loc 1 93 0
	ldr	r7, [sp, #32]
.LBE741:
.LBE755:
.LBE813:
.LBE824:
	.loc 1 342 0
	str	r3, [sp, #36]
.LBB825:
.LBB814:
.LBB756:
.LBB742:
	.loc 1 101 0
	uxtb	r0, r0
	.loc 1 89 0
	ldr	r3, [sp, #12]
	.loc 1 102 0
	uxtb	r1, r1
	.loc 1 98 0
	ldr	ip, [sp, #56]
	.loc 1 99 0
	ldr	r6, [sp, #60]
	.loc 1 89 0
	strb	r3, [sp, #89]
	.loc 1 93 0
	uxtb	r3, r7
	.loc 1 97 0
	ldr	r7, [sp, #52]
	.loc 1 98 0
	uxtb	ip, ip
	.loc 1 99 0
	uxtb	r6, r6
	.loc 1 90 0
	strb	r9, [sp, #90]
	.loc 1 91 0
	strb	sl, [sp, #91]
	.loc 1 97 0
	uxtb	r7, r7
	.loc 1 92 0
	strb	r8, [sp, #92]
	.loc 1 93 0
	strb	r3, [sp, #93]
	.loc 1 97 0
	str	r7, [sp, #16]
	.loc 1 98 0
	str	ip, [sp, #24]
	.loc 1 97 0
	strb	r7, [sp, #97]
	.loc 1 99 0
	str	r6, [sp, #28]
	.loc 1 88 0
	ldr	r7, [sp, #40]
	.loc 1 99 0
	strb	r6, [sp, #99]
.LBE742:
.LBE756:
.LBB757:
.LBB758:
	.loc 1 88 0
	ldr	r6, [sp, #12]
.LBE758:
.LBE757:
.LBB771:
.LBB743:
	.loc 1 98 0
	strb	ip, [sp, #98]
	.loc 1 88 0
	uxtb	ip, r7
	.loc 1 100 0
	str	fp, [sp, #32]
.LBE743:
.LBE771:
.LBB772:
.LBB759:
	.loc 1 88 0
	mov	r7, r6, lsr #7
.LBE759:
.LBE772:
.LBB773:
.LBB744:
	.loc 1 100 0
	strb	fp, [sp, #100]
.LBE744:
.LBE773:
.LBB774:
.LBB760:
	.loc 1 88 0
	orr	r7, r7, ip, asl #1
	strb	r7, [sp, #104]
	.loc 1 89 0
	ldr	r7, [sp, #12]
	mov	r6, r9, lsr #7
.LBE760:
.LBE774:
.LBE814:
.LBE825:
	.loc 1 342 0
	ldr	fp, [sp, #36]
.LBB826:
.LBB815:
.LBB775:
.LBB745:
	.loc 1 104 0
	strb	lr, [sp, #103]
.LBE745:
.LBE775:
	.loc 1 133 0
	eorne	lr, lr, #135
.LBB776:
.LBB761:
	.loc 1 89 0
	orr	r6, r6, r7, asl #1
	strb	r6, [sp, #105]
	.loc 1 93 0
	ldr	r6, [sp, #4]
	.loc 1 92 0
	mov	r7, r3, lsr #7
.LBE761:
.LBE776:
.LBE815:
.LBE826:
	.loc 1 342 0
	str	fp, [sp, #124]
.LVL120:
.LBB827:
.LBB816:
.LBB777:
.LBB762:
	.loc 1 104 0
	mov	fp, lr, asl #1
	.loc 1 92 0
	orr	r7, r7, r8, asl #1
.LBE762:
.LBE777:
	.loc 1 133 0
	strneb	lr, [sp, #103]
.LBB778:
.LBB763:
	.loc 1 93 0
	mov	r6, r6, lsr #7
	str	r6, [sp, #12]
	.loc 1 94 0
	ldr	r6, [sp, #8]
	.loc 1 104 0
	uxtb	fp, fp
	str	fp, [sp, #36]
.LBE763:
.LBE778:
	.loc 1 137 0
	tst	ip, #128
.LBB779:
.LBB764:
	.loc 1 104 0
	strb	fp, [sp, #119]
	.loc 1 91 0
	mov	fp, r8, lsr #7
	.loc 1 98 0
	ldr	r8, [sp, #28]
.LBE764:
.LBE779:
.LBB780:
.LBB746:
	.loc 1 88 0
	strb	ip, [sp, #88]
.LBE746:
.LBE780:
.LBB781:
.LBB765:
	.loc 1 90 0
	mov	ip, sl, lsr #7
.LVL121:
	orr	ip, ip, r9, asl #1
	.loc 1 94 0
	mov	r9, r6, lsr #7
	.loc 1 95 0
	ldr	r6, [sp, #20]
	.loc 1 98 0
	mov	r8, r8, lsr #7
	str	r8, [sp, #40]
	.loc 1 91 0
	orr	sl, fp, sl, asl #1
	.loc 1 93 0
	ldr	r8, [sp, #12]
	.loc 1 90 0
	strb	ip, [sp, #106]
	.loc 1 95 0
	mov	ip, r6, lsr #7
	.loc 1 93 0
	orr	r3, r8, r3, asl #1
	.loc 1 96 0
	ldr	r6, [sp, #16]
	.loc 1 94 0
	ldr	r8, [sp, #4]
.LBE765:
.LBE781:
.LBB782:
.LBB747:
	.loc 1 101 0
	strb	r0, [sp, #101]
.LBE747:
.LBE782:
.LBB783:
.LBB766:
	.loc 1 96 0
	mov	fp, r6, lsr #7
	.loc 1 97 0
	ldr	r6, [sp, #24]
	.loc 1 94 0
	orr	r9, r9, r8, asl #1
	.loc 1 95 0
	ldr	r8, [sp, #8]
.LBE766:
.LBE783:
.LBB784:
.LBB748:
	.loc 1 102 0
	strb	r1, [sp, #102]
.LBE748:
.LBE784:
.LBB785:
.LBB767:
	.loc 1 91 0
	strb	sl, [sp, #107]
	.loc 1 97 0
	mov	sl, r6, lsr #7
	.loc 1 95 0
	orr	ip, ip, r8, asl #1
	.loc 1 99 0
	ldr	r6, [sp, #32]
	.loc 1 92 0
	strb	r7, [sp, #108]
	.loc 1 93 0
	strb	r3, [sp, #109]
	.loc 1 101 0
	mov	r3, r1, lsr #7
	.loc 1 94 0
	strb	r9, [sp, #110]
.LVL122:
	.loc 1 99 0
	mov	r7, r6, lsr #7
	.loc 1 96 0
	ldr	r9, [sp, #20]
	.loc 1 102 0
	mov	r1, r1, asl #1
	.loc 1 95 0
	strb	ip, [sp, #111]
	.loc 1 102 0
	orr	r1, r1, lr, lsr #7
	.loc 1 97 0
	ldr	ip, [sp, #16]
	.loc 1 100 0
	mov	r6, r0, lsr #7
	.loc 1 96 0
	orr	fp, fp, r9, asl #1
	strb	fp, [sp, #112]
	.loc 1 99 0
	ldr	fp, [sp, #28]
	.loc 1 101 0
	orr	r3, r3, r0, asl #1
	.loc 1 97 0
	orr	sl, sl, ip, asl #1
	strb	sl, [sp, #113]
	.loc 1 98 0
	ldr	sl, [sp, #24]
	ldr	r9, [sp, #40]
	.loc 1 99 0
	orr	r7, r7, fp, asl #1
	.loc 1 100 0
	ldr	ip, [sp, #32]
	.loc 1 98 0
	orr	r8, r9, sl, asl #1
.LBE767:
.LBE785:
	.loc 1 138 0
	ldrne	lr, [sp, #36]
.LBB786:
.LBB768:
	.loc 1 98 0
	strb	r8, [sp, #114]
	.loc 1 99 0
	strb	r7, [sp, #115]
	.loc 1 100 0
	orr	r6, r6, ip, asl #1
	.loc 1 102 0
	strb	r1, [sp, #118]
.LBE768:
.LBE786:
	.loc 1 138 0
	eorne	fp, lr, #120
.LBB787:
.LBB769:
	.loc 1 100 0
	strb	r6, [sp, #116]
.LBE769:
.LBE787:
.LBB788:
.LBB789:
	.loc 1 47 0
	ldr	r1, [sp, #112]
.LBE789:
.LBE788:
	.loc 1 138 0
	mvnne	fp, fp
.LBB794:
.LBB790:
	.loc 1 47 0
	ldr	r6, [sp, #96]
.LBE790:
.LBE794:
.LBB795:
.LBB770:
	.loc 1 101 0
	strb	r3, [sp, #117]
.LBE770:
.LBE795:
.LBB796:
.LBB791:
	.loc 1 46 0
	ldr	r7, [sp, #92]
	.loc 1 47 0
	eor	r6, r6, r1
	.loc 1 46 0
	ldr	r3, [sp, #108]
	.loc 1 45 0
	ldr	r0, [sp, #88]
	ldr	r1, [sp, #104]
	.loc 1 46 0
	eor	r7, r7, r3
.LBE791:
.LBE796:
	.loc 1 138 0
	strneb	fp, [sp, #119]
.LBB797:
.LBB792:
	.loc 1 48 0
	ldr	ip, [sp, #100]
	.loc 1 45 0
	eor	r1, r0, r1
	.loc 1 48 0
	ldr	r3, [sp, #116]
.LBE792:
.LBE797:
.LBB798:
.LBB799:
	ldr	r0, [r2, #12]
.LBE799:
.LBE798:
.LBB804:
.LBB793:
	eor	ip, ip, r3
.LVL123:
.LBE793:
.LBE804:
.LBB805:
.LBB800:
	.loc 1 47 0
	ldmib	r2, {r3, lr}
	.loc 1 48 0
	eor	r0, ip, r0
	str	r0, [sp, #20]
.LBE800:
.LBE805:
.LBE816:
.LBE827:
.LBB828:
.LBB829:
.LBB830:
.LBB831:
	.loc 1 101 0
	ldr	fp, [sp, #20]
.LBE831:
.LBE830:
.LBE829:
.LBE828:
.LBB931:
.LBB817:
.LBB806:
.LBB801:
	.loc 1 46 0
	eor	r3, r7, r3
	str	r3, [sp, #4]
	.loc 1 47 0
	eor	lr, r6, lr
	.loc 1 45 0
	ldr	r3, [r2, #0]
	.loc 1 47 0
	str	lr, [sp, #8]
.LBE801:
.LBE806:
.LBE817:
.LBE931:
.LBB932:
.LBB918:
.LBB844:
.LBB832:
	.loc 1 95 0
	uxtb	r6, lr
	.loc 1 91 0
	ldr	r0, [sp, #4]
.LBE832:
.LBE844:
.LBE918:
.LBE932:
.LBB933:
.LBB818:
.LBB807:
.LBB802:
	.loc 1 45 0
	eor	r3, r1, r3
.LBE802:
.LBE807:
.LBE818:
.LBE933:
.LBB934:
.LBB919:
.LBB845:
.LBB833:
	.loc 1 99 0
	ldr	r2, [sp, #20]
.LVL124:
	.loc 1 96 0
	ubfx	lr, lr, #8, #8
	.loc 1 97 0
	ldr	r1, [sp, #8]
	.loc 1 92 0
	ubfx	sl, r0, #8, #8
.LBE833:
.LBE845:
.LBE919:
.LBE934:
.LBB935:
.LBB819:
.LBB808:
.LBB803:
	.loc 1 45 0
	str	r3, [sp, #12]
.LBE803:
.LBE808:
.LBE819:
.LBE935:
.LBB936:
.LBB920:
.LBB846:
.LBB834:
	.loc 1 101 0
	ubfx	r3, fp, #16, #8
	.loc 1 102 0
	mov	fp, fp, lsr #24
	str	fp, [sp, #36]
	.loc 1 90 0
	ldr	fp, [sp, #12]
	.loc 1 91 0
	uxtb	r9, r0
	.loc 1 93 0
	ubfx	r8, r0, #16, #8
	.loc 1 94 0
	mov	r7, r0, lsr #24
	.loc 1 97 0
	ubfx	ip, r1, #16, #8
	.loc 1 98 0
	mov	r0, r1, lsr #24
	.loc 1 90 0
	mov	fp, fp, lsr #24
	str	fp, [sp, #32]
	.loc 1 89 0
	ldr	fp, [sp, #12]
	.loc 1 99 0
	uxtb	r1, r2
	.loc 1 100 0
	ubfx	r2, r2, #8, #8
	.loc 1 89 0
	ubfx	fp, fp, #16, #8
	str	fp, [sp, #28]
	.loc 1 88 0
	ldr	fp, [sp, #12]
	ubfx	fp, fp, #8, #8
	str	fp, [sp, #24]
.LBE834:
.LBE846:
	.loc 1 130 0
	ldr	fp, [sp, #12]
	uxtb	fp, fp
	str	fp, [sp, #16]
.LVL125:
.LBB847:
.LBB835:
	.loc 1 91 0
	mov	fp, r9, lsr #7
	str	fp, [sp, #40]
	.loc 1 92 0
	mov	fp, sl, lsr #7
	orr	fp, fp, r9, asl #1
	.loc 1 93 0
	mov	r9, r8, lsr #7
	orr	r9, r9, sl, asl #1
	.loc 1 94 0
	mov	sl, r7, lsr #7
	orr	sl, sl, r8, asl #1
	.loc 1 95 0
	mov	r8, r6, lsr #7
	orr	r8, r8, r7, asl #1
	.loc 1 96 0
	mov	r7, lr, lsr #7
	orr	r7, r7, r6, asl #1
	.loc 1 97 0
	mov	r6, ip, lsr #7
	orr	r6, r6, lr, asl #1
	.loc 1 98 0
	mov	lr, r0, lsr #7
	.loc 1 92 0
	str	fp, [sp, #44]
	.loc 1 98 0
	orr	lr, lr, ip, asl #1
	.loc 1 102 0
	ldr	fp, [sp, #36]
	.loc 1 99 0
	mov	ip, r1, lsr #7
	orr	ip, ip, r0, asl #1
	.loc 1 100 0
	mov	r0, r2, lsr #7
	orr	r0, r0, r1, asl #1
	.loc 1 101 0
	mov	r1, r3, lsr #7
	orr	r1, r1, r2, asl #1
	.loc 1 102 0
	mov	r2, fp, lsr #7
	orr	r2, r2, r3, asl #1
	str	r2, [sp, #64]
	.loc 1 90 0
	ldr	r2, [sp, #32]
	.loc 1 104 0
	mov	fp, fp, asl #1
	str	fp, [sp, #68]
	.loc 1 93 0
	uxtb	r9, r9
	.loc 1 91 0
	ldr	fp, [sp, #40]
	.loc 1 94 0
	uxtb	sl, sl
	.loc 1 90 0
	mov	r3, r2, lsr #7
	.loc 1 95 0
	uxtb	r8, r8
	.loc 1 91 0
	orr	r2, fp, r2, asl #1
	.loc 1 89 0
	ldr	fp, [sp, #28]
	.loc 1 91 0
	str	r2, [sp, #60]
	.loc 1 96 0
	uxtb	r7, r7
	.loc 1 97 0
	uxtb	r6, r6
	.loc 1 98 0
	uxtb	lr, lr
	.loc 1 90 0
	orr	r3, r3, fp, asl #1
	.loc 1 89 0
	mov	r2, fp, lsr #7
	.loc 1 88 0
	ldr	fp, [sp, #24]
	.loc 1 99 0
	uxtb	ip, ip
	.loc 1 90 0
	str	r3, [sp, #56]
	.loc 1 100 0
	uxtb	r0, r0
	.loc 1 93 0
	strb	r9, [sp, #93]
	.loc 1 101 0
	uxtb	r1, r1
	.loc 1 88 0
	mov	r3, fp, lsr #7
	.loc 1 89 0
	orr	r2, r2, fp, asl #1
	.loc 1 88 0
	ldr	fp, [sp, #16]
	.loc 1 94 0
	strb	sl, [sp, #94]
	.loc 1 89 0
	uxtb	r2, r2
	.loc 1 94 0
	str	sl, [sp, #16]
	.loc 1 88 0
	orr	r3, r3, fp, asl #1
	str	r3, [sp, #52]
	.loc 1 92 0
	ldr	r3, [sp, #44]
.LBE835:
.LBE847:
	.loc 1 132 0
	movs	fp, fp, lsr #7
.LBB848:
.LBB836:
	.loc 1 96 0
	str	r7, [sp, #24]
	.loc 1 95 0
	strb	r8, [sp, #95]
	.loc 1 92 0
	uxtb	fp, r3
	.loc 1 97 0
	str	r6, [sp, #28]
	.loc 1 92 0
	strb	fp, [sp, #92]
	.loc 1 96 0
	strb	r7, [sp, #96]
	.loc 1 98 0
	str	lr, [sp, #32]
	.loc 1 97 0
	strb	r6, [sp, #97]
	.loc 1 99 0
	str	ip, [sp, #36]
	.loc 1 98 0
	strb	lr, [sp, #98]
	.loc 1 90 0
	ldr	lr, [sp, #56]
	.loc 1 102 0
	ldr	r6, [sp, #64]
	.loc 1 104 0
	ldr	r7, [sp, #68]
	.loc 1 90 0
	uxtb	r3, lr
	.loc 1 91 0
	ldr	sl, [sp, #60]
	.loc 1 100 0
	str	r0, [sp, #40]
	strb	r0, [sp, #100]
	.loc 1 102 0
	uxtb	r0, r6
	.loc 1 88 0
	ldr	r6, [sp, #52]
	.loc 1 101 0
	str	r1, [sp, #44]
	strb	r1, [sp, #101]
	.loc 1 104 0
	uxtb	r1, r7
.LBE836:
.LBE848:
.LBB849:
.LBB850:
	.loc 1 89 0
	mov	r7, r3, lsr #7
.LBE850:
.LBE849:
.LBB859:
.LBB837:
	.loc 1 99 0
	strb	ip, [sp, #99]
	.loc 1 89 0
	strb	r2, [sp, #89]
	.loc 1 91 0
	uxtb	ip, sl
.LBE837:
.LBE859:
.LBB860:
.LBB851:
	.loc 1 88 0
	mov	sl, r2, lsr #7
	.loc 1 89 0
	orr	r2, r7, r2, asl #1
	strb	r2, [sp, #105]
.LBE851:
.LBE860:
.LBB861:
.LBB838:
	.loc 1 88 0
	uxtb	lr, r6
.LVL126:
.LBE838:
.LBE861:
.LBB862:
.LBB852:
	.loc 1 93 0
	ldr	r2, [sp, #16]
	.loc 1 92 0
	mov	r7, r9, lsr #7
.LBE852:
.LBE862:
.LBB863:
.LBB839:
	.loc 1 104 0
	strb	r1, [sp, #103]
.LBE839:
.LBE863:
	.loc 1 133 0
	eorne	r1, r1, #135
.LBB864:
.LBB840:
	.loc 1 88 0
	strb	lr, [sp, #88]
.LBE840:
.LBE864:
	.loc 1 133 0
	strneb	r1, [sp, #103]
.LBB865:
.LBB853:
	.loc 1 93 0
	mov	r2, r2, lsr #7
.LBE853:
.LBE865:
	.loc 1 137 0
	tst	lr, #128
.LBB866:
.LBB854:
	.loc 1 93 0
	str	r2, [sp, #52]
	.loc 1 88 0
	orr	lr, sl, lr, asl #1
.LVL127:
	.loc 1 95 0
	ldr	r2, [sp, #24]
	.loc 1 88 0
	strb	lr, [sp, #104]
	.loc 1 91 0
	mov	lr, fp, lsr #7
	.loc 1 90 0
	mov	sl, ip, lsr #7
.LBE854:
.LBE866:
.LBB867:
.LBB841:
	.loc 1 91 0
	strb	ip, [sp, #91]
.LBE841:
.LBE867:
.LBB868:
.LBB855:
	orr	ip, lr, ip, asl #1
	.loc 1 96 0
	ldr	lr, [sp, #28]
.LBE855:
.LBE868:
.LBB869:
.LBB842:
	.loc 1 90 0
	strb	r3, [sp, #90]
.LBE842:
.LBE869:
.LBB870:
.LBB856:
	orr	r3, sl, r3, asl #1
	strb	r3, [sp, #106]
	.loc 1 95 0
	mov	r3, r2, lsr #7
	.loc 1 97 0
	ldr	r2, [sp, #32]
	.loc 1 96 0
	mov	lr, lr, lsr #7
	str	lr, [sp, #56]
	.loc 1 92 0
	orr	fp, r7, fp, asl #1
	.loc 1 98 0
	ldr	lr, [sp, #36]
	.loc 1 104 0
	mov	r6, r1, asl #1
.LVL128:
	.loc 1 91 0
	strb	ip, [sp, #107]
	.loc 1 97 0
	mov	ip, r2, lsr #7
	.loc 1 99 0
	ldr	r2, [sp, #40]
	.loc 1 104 0
	uxtb	r6, r6
	.loc 1 98 0
	mov	r7, lr, lsr #7
	.loc 1 93 0
	ldr	lr, [sp, #52]
	.loc 1 92 0
	strb	fp, [sp, #108]
	.loc 1 94 0
	mov	sl, r8, lsr #7
	.loc 1 99 0
	mov	fp, r2, lsr #7
	.loc 1 93 0
	orr	r2, lr, r9, asl #1
	.loc 1 100 0
	ldr	lr, [sp, #44]
	.loc 1 95 0
	orr	r8, r3, r8, asl #1
	.loc 1 104 0
	strb	r6, [sp, #119]
.LBE856:
.LBE870:
	.loc 1 138 0
	eorne	r6, r6, #120
.LBB871:
.LBB843:
	.loc 1 102 0
	strb	r0, [sp, #102]
.LBE843:
.LBE871:
.LBB872:
.LBB857:
	.loc 1 100 0
	mov	r9, lr, lsr #7
	.loc 1 93 0
	strb	r2, [sp, #109]
.LVL129:
	.loc 1 94 0
	ldr	lr, [sp, #16]
	.loc 1 101 0
	mov	r2, r0, lsr #7
	.loc 1 95 0
	strb	r8, [sp, #111]
	.loc 1 102 0
	mov	r0, r0, asl #1
	.loc 1 96 0
	ldr	r8, [sp, #24]
	.loc 1 102 0
	orr	r0, r0, r1, lsr #7
	.loc 1 94 0
	orr	sl, sl, lr, asl #1
	strb	sl, [sp, #110]
	.loc 1 97 0
	ldr	sl, [sp, #28]
.LBE857:
.LBE872:
	.loc 1 138 0
	mvnne	r6, r6
.LBB873:
.LBB858:
	.loc 1 96 0
	ldr	r3, [sp, #56]
	.loc 1 102 0
	strb	r0, [sp, #118]
	.loc 1 97 0
	orr	ip, ip, sl, asl #1
	strb	ip, [sp, #113]
	.loc 1 98 0
	ldr	ip, [sp, #32]
	.loc 1 96 0
	orr	lr, r3, r8, asl #1
	.loc 1 100 0
	ldr	r3, [sp, #40]
	.loc 1 96 0
	strb	lr, [sp, #112]
	.loc 1 98 0
	orr	r7, r7, ip, asl #1
	.loc 1 99 0
	ldr	lr, [sp, #36]
	.loc 1 98 0
	strb	r7, [sp, #114]
	.loc 1 100 0
	orr	r9, r9, r3, asl #1
	.loc 1 101 0
	ldr	r7, [sp, #44]
	.loc 1 99 0
	orr	fp, fp, lr, asl #1
	.loc 1 100 0
	strb	r9, [sp, #116]
	.loc 1 99 0
	strb	fp, [sp, #115]
	.loc 1 101 0
	orr	r2, r2, r7, asl #1
	strb	r2, [sp, #117]
.LBE858:
.LBE873:
	.loc 1 138 0
	strneb	r6, [sp, #119]
.LBB874:
.LBB875:
	.loc 1 47 0
	ldr	r2, [sp, #96]
	.loc 1 48 0
	ldr	r1, [sp, #116]
	ldr	r8, [sp, #100]
	.loc 1 47 0
	ldr	r3, [sp, #112]
.LBE875:
.LBE874:
.LBB883:
.LBB884:
	ldr	sl, [sp, #8]
.LBE884:
.LBE883:
.LBB898:
.LBB876:
	.loc 1 48 0
	eor	r8, r8, r1
.LVL130:
.LBE876:
.LBE898:
.LBB899:
.LBB885:
	ldr	r9, [sp, #20]
.LBE885:
.LBE899:
.LBB900:
.LBB877:
	.loc 1 47 0
	eor	r3, r2, r3
.LBE877:
.LBE900:
.LBB901:
.LBB886:
	eor	r3, r3, sl
.LBE886:
.LBE901:
.LBB902:
.LBB878:
	.loc 1 45 0
	ldr	r2, [sp, #88]
.LBE878:
.LBE902:
.LBB903:
.LBB887:
	.loc 1 48 0
	eor	r8, r8, r9
	.loc 1 47 0
	str	r3, [sp, #8]
.LBE887:
.LBE903:
.LBB904:
.LBB879:
	.loc 1 45 0
	ldr	r3, [sp, #104]
.LBE879:
.LBE904:
.LBE920:
.LBE936:
.LBB937:
.LBB938:
.LBB939:
.LBB940:
	.loc 1 101 0
	ubfx	lr, r8, #16, #8
.LBE940:
.LBE939:
.LBE938:
.LBE937:
.LBB993:
.LBB921:
.LBB905:
.LBB888:
	.loc 1 45 0
	ldr	ip, [sp, #12]
.LBE888:
.LBE905:
.LBE921:
.LBE993:
.LBB994:
.LBB979:
.LBB954:
.LBB941:
	.loc 1 102 0
	mov	r7, r8, lsr #24
.LBE941:
.LBE954:
.LBE979:
.LBE994:
.LBB995:
.LBB922:
.LBB906:
.LBB880:
	.loc 1 45 0
	eor	r3, r2, r3
	.loc 1 46 0
	ldr	r0, [sp, #92]
.LBE880:
.LBE906:
.LBB907:
.LBB889:
	.loc 1 45 0
	eor	r3, r3, ip
.LBE889:
.LBE907:
.LBB908:
.LBB881:
	.loc 1 46 0
	ldr	r1, [sp, #108]
.LBE881:
.LBE908:
.LBB909:
.LBB890:
	.loc 1 45 0
	str	r3, [sp, #12]
.LBE890:
.LBE909:
.LBE922:
.LBE995:
.LBB996:
.LBB980:
.LBB955:
.LBB942:
	.loc 1 100 0
	ubfx	ip, r8, #8, #8
	.loc 1 98 0
	ldr	r3, [sp, #8]
	.loc 1 104 0
	mov	r6, r7, asl #1
.LBE942:
.LBE955:
.LBE980:
.LBE996:
.LBB997:
.LBB923:
.LBB910:
.LBB891:
	.loc 1 46 0
	ldr	fp, [sp, #4]
.LBE891:
.LBE910:
.LBE923:
.LBE997:
.LBB998:
.LBB981:
.LBB956:
.LBB943:
	.loc 1 102 0
	mov	r7, r7, lsr #7
	orr	r7, r7, lr, asl #1
.LBE943:
.LBE956:
.LBE981:
.LBE998:
.LBB999:
.LBB924:
.LBB911:
.LBB882:
	.loc 1 46 0
	eor	r1, r0, r1
.LBE882:
.LBE911:
.LBE924:
.LBE999:
.LBB1000:
.LBB982:
.LBB957:
.LBB944:
	.loc 1 101 0
	mov	lr, lr, lsr #7
	.loc 1 99 0
	uxtb	r0, r8
.LBE944:
.LBE957:
.LBE982:
.LBE1000:
.LBB1001:
.LBB925:
.LBB912:
.LBB892:
	.loc 1 46 0
	eor	r1, r1, fp
.LBE892:
.LBE912:
.LBE925:
.LBE1001:
.LBB1002:
.LBB983:
.LBB958:
.LBB945:
	.loc 1 101 0
	orr	lr, lr, ip, asl #1
.LBE945:
.LBE958:
.LBE983:
.LBE1002:
.LBB1003:
.LBB926:
.LBB913:
.LBB893:
	.loc 1 46 0
	str	r1, [sp, #4]
.LBE893:
.LBE913:
.LBE926:
.LBE1003:
.LBB1004:
.LBB984:
.LBB959:
.LBB946:
	.loc 1 100 0
	mov	ip, ip, lsr #7
.LBE946:
.LBE959:
.LBE984:
.LBE1004:
.LBB1005:
.LBB927:
.LBB914:
.LBB894:
	.loc 1 48 0
	str	r8, [sp, #84]
.LVL131:
.LBE894:
.LBE914:
.LBE927:
.LBE1005:
.LBB1006:
.LBB985:
.LBB960:
.LBB947:
	.loc 1 98 0
	mov	r1, r3, lsr #24
	.loc 1 95 0
	ldr	r9, [sp, #8]
	.loc 1 97 0
	ubfx	r2, r3, #16, #8
	.loc 1 94 0
	ldr	sl, [sp, #4]
	.loc 1 100 0
	orr	ip, ip, r0, asl #1
	.loc 1 99 0
	mov	r0, r0, lsr #7
	.loc 1 96 0
	ubfx	r3, r3, #8, #8
	.loc 1 99 0
	orr	r0, r0, r1, asl #1
	.loc 1 98 0
	mov	r1, r1, lsr #7
	.loc 1 102 0
	strb	r7, [sp, #118]
	.loc 1 98 0
	orr	r1, r1, r2, asl #1
	.loc 1 95 0
	uxtb	r7, r9
	.loc 1 97 0
	mov	r2, r2, lsr #7
	.loc 1 101 0
	strb	lr, [sp, #117]
	.loc 1 97 0
	orr	r2, r2, r3, asl #1
	.loc 1 94 0
	mov	lr, sl, lsr #24
	.loc 1 96 0
	mov	r3, r3, lsr #7
	.loc 1 90 0
	ldr	fp, [sp, #12]
	.loc 1 96 0
	orr	r3, r3, r7, asl #1
	.loc 1 100 0
	strb	ip, [sp, #116]
	.loc 1 95 0
	mov	r7, r7, lsr #7
	.loc 1 93 0
	ubfx	ip, sl, #16, #8
	.loc 1 99 0
	strb	r0, [sp, #115]
	.loc 1 95 0
	orr	r7, r7, lr, asl #1
	.loc 1 92 0
	ubfx	r0, sl, #8, #8
	.loc 1 94 0
	mov	lr, lr, lsr #7
	.loc 1 98 0
	strb	r1, [sp, #114]
	.loc 1 94 0
	orr	lr, lr, ip, asl #1
	.loc 1 91 0
	uxtb	r1, sl
	.loc 1 93 0
	mov	ip, ip, lsr #7
	.loc 1 97 0
	strb	r2, [sp, #113]
	.loc 1 96 0
	strb	r3, [sp, #112]
	.loc 1 90 0
	mov	r2, fp, lsr #24
	.loc 1 89 0
	ubfx	r3, fp, #16, #8
	.loc 1 95 0
	strb	r7, [sp, #111]
	.loc 1 93 0
	orr	ip, ip, r0, asl #1
	.loc 1 88 0
	ubfx	r7, fp, #8, #8
	.loc 1 92 0
	mov	r0, r0, lsr #7
	.loc 1 94 0
	strb	lr, [sp, #110]
	.loc 1 92 0
	orr	r0, r0, r1, asl #1
.LBE947:
.LBE960:
	.loc 1 119 0
	uxtb	lr, fp
.LVL132:
.LBB961:
.LBB948:
	.loc 1 91 0
	mov	r1, r1, lsr #7
	.loc 1 92 0
	strb	r0, [sp, #108]
	.loc 1 91 0
	orr	r1, r1, r2, asl #1
	.loc 1 88 0
	mov	r0, r7, lsr #7
	.loc 1 91 0
	strb	r1, [sp, #107]
	.loc 1 90 0
	mov	r2, r2, lsr #7
	.loc 1 89 0
	mov	r1, r3, lsr #7
	.loc 1 104 0
	uxtb	r6, r6
.LBE948:
.LBE961:
.LBE985:
.LBE1006:
.LBB1007:
.LBB928:
.LBB915:
.LBB895:
	.loc 1 47 0
	str	r9, [sp, #80]
.LBE895:
.LBE915:
.LBE928:
.LBE1007:
.LBB1008:
.LBB986:
.LBB962:
.LBB949:
	.loc 1 90 0
	orr	r2, r2, r3, asl #1
.LBE949:
.LBE962:
	.loc 1 121 0
	movs	r9, lr, lsr #7
.LBB963:
.LBB950:
	.loc 1 90 0
	strb	r2, [sp, #106]
	.loc 1 89 0
	orr	r7, r1, r7, asl #1
	.loc 1 88 0
	orr	lr, r0, lr, asl #1
.LVL133:
	.loc 1 89 0
	strb	r7, [sp, #105]
.LBE950:
.LBE963:
.LBE986:
.LBE1008:
	.loc 1 354 0
	mov	r1, r5
.LBB1009:
.LBB987:
.LBB964:
.LBB951:
	.loc 1 88 0
	strb	lr, [sp, #104]
.LBE951:
.LBE964:
.LBE987:
.LBE1009:
	.loc 1 354 0
	mov	r0, r5
.LBB1010:
.LBB988:
.LBB965:
.LBB952:
	.loc 1 104 0
	strb	r6, [sp, #119]
.LBE952:
.LBE965:
	.loc 1 122 0
	eorne	r6, r6, #120
.LBE988:
.LBE1010:
.LBB1011:
.LBB929:
.LBB916:
.LBB896:
	.loc 1 46 0
	str	sl, [sp, #76]
.LBE896:
.LBE916:
.LBE929:
.LBE1011:
.LBB1012:
.LBB989:
.LBB966:
.LBB967:
	.loc 1 45 0
	ldr	r3, [sp, #104]
.LBE967:
.LBE966:
	.loc 1 122 0
	mvnne	r6, r6
.LBB973:
.LBB968:
	.loc 1 45 0
	ldr	sl, [sp, #12]
.LBE968:
.LBE973:
.LBB974:
.LBB953:
	.loc 1 93 0
	strb	ip, [sp, #109]
.LBE953:
.LBE974:
	.loc 1 122 0
	strneb	r6, [sp, #119]
.LVL134:
.LBB975:
.LBB969:
	.loc 1 45 0
	eor	r3, sl, r3
	.loc 1 47 0
	ldr	r6, [sp, #8]
.LBE969:
.LBE975:
.LBE989:
.LBE1012:
.LBB1013:
.LBB930:
.LBB917:
.LBB897:
	.loc 1 45 0
	str	fp, [sp, #72]
.LBE897:
.LBE917:
.LBE930:
.LBE1013:
.LBB1014:
.LBB990:
.LBB976:
.LBB970:
	.loc 1 46 0
	ldr	ip, [sp, #108]
	ldr	fp, [sp, #4]
.LVL135:
	.loc 1 47 0
	ldr	r2, [sp, #112]
	.loc 1 45 0
	str	r3, [sp, #24]
	.loc 1 46 0
	eor	ip, fp, ip
	.loc 1 48 0
	ldr	r3, [sp, #116]
	.loc 1 47 0
	eor	r2, r6, r2
	.loc 1 46 0
	str	ip, [sp, #28]
	.loc 1 48 0
	eor	r3, r8, r3
.LBE970:
.LBE976:
.LBE990:
.LBE1014:
.LBB1015:
.LBB1016:
	.loc 1 45 0
	ldr	ip, [r5, #0]
.LBE1016:
.LBE1015:
.LBB1020:
.LBB991:
.LBB977:
.LBB971:
	.loc 1 47 0
	str	r2, [sp, #32]
.LBE971:
.LBE977:
.LBE991:
.LBE1020:
.LBB1021:
.LBB1017:
	.loc 1 46 0
	ldr	r2, [r5, #4]
.LBE1017:
.LBE1021:
.LBB1022:
.LBB992:
.LBB978:
.LBB972:
	.loc 1 48 0
	str	r3, [sp, #36]
.LVL136:
.LBE972:
.LBE978:
.LBE992:
.LBE1022:
.LBB1023:
.LBB1018:
	.loc 1 46 0
	ldr	r9, [sp, #28]
	.loc 1 47 0
	ldr	r3, [r5, #8]
	ldr	sl, [sp, #32]
.LVL137:
	.loc 1 46 0
	eor	r2, r2, r9
	.loc 1 45 0
	ldr	r7, [sp, #24]
	.loc 1 48 0
	ldr	fp, [sp, #36]
	.loc 1 46 0
	str	r2, [r5, #4]
	.loc 1 47 0
	eor	r2, r3, sl
	.loc 1 48 0
	ldr	r3, [r5, #12]
	.loc 1 45 0
	eor	ip, ip, r7
	.loc 1 47 0
	str	r2, [r5, #8]
	.loc 1 48 0
	eor	r3, r3, fp
	.loc 1 45 0
	str	ip, [r5, #0]
.LBE1018:
.LBE1023:
	.loc 1 354 0
	ldr	r2, [sp, #48]
.LBB1024:
.LBB1019:
	.loc 1 48 0
	str	r3, [r5, #12]
.LBE1019:
.LBE1024:
	.loc 1 354 0
	bl	aesc_encrypt
.LVL138:
.LBB1025:
.LBB1026:
	.loc 1 45 0
	ldr	r1, [r5, #0]
	.loc 1 46 0
	ldr	r3, [r5, #4]
.LBE1026:
.LBE1025:
.LBB1031:
.LBB1032:
	.loc 1 324 0
	cmp	r4, #0
.LBE1032:
.LBE1031:
.LBB1060:
.LBB1027:
	.loc 1 47 0
	ldr	r2, [r5, #8]
	.loc 1 45 0
	eor	r1, r1, r7
	.loc 1 46 0
	eor	r3, r3, r9
	stmia	r5, {r1, r3}
	.loc 1 48 0
	ldr	r3, [r5, #12]
.LBE1027:
.LBE1060:
	.loc 1 358 0
	rsb	ip, r4, #16
.LBB1061:
.LBB1049:
	.loc 1 321 0
	mov	r1, #0
.LBE1049:
.LBE1061:
.LBB1062:
.LBB1028:
	.loc 1 47 0
	eor	r2, r2, sl
	.loc 1 48 0
	eor	r3, r3, fp
.LBE1028:
.LBE1062:
	.loc 1 358 0
	str	ip, [sp, #16]
	add	r6, r5, ip
.LVL139:
.LBB1063:
.LBB1029:
	.loc 1 47 0
	str	r2, [r5, #8]
.LBE1029:
.LBE1063:
.LBB1064:
.LBB1050:
	.loc 1 321 0
	str	r1, [sp, #104]
.LBE1050:
.LBE1064:
.LBB1065:
.LBB1030:
	.loc 1 48 0
	str	r3, [r5, #12]
.LBE1030:
.LBE1065:
.LBB1066:
.LBB1051:
	.loc 1 321 0
	str	r1, [sp, #108]
	str	r1, [sp, #112]
	str	r1, [sp, #116]
.LVL140:
	.loc 1 324 0
	beq	.L174
	rsb	lr, r4, r5
	add	r9, r5, #16
	.loc 1 341 0
	orr	r3, lr, r9
	mov	ip, r4, lsr #2
	tst	r3, #3
	mov	r3, ip, asl #2
	movne	r2, #0
	moveq	r2, #1
	cmp	r4, #3
	movls	r2, #0
	andhi	r2, r2, #1
	eor	r2, r2, #1
	cmp	ip, r1
	orreq	r2, r2, #1
	cmp	r2, r1
	bne	.L175
	add	r7, lr, #12
	add	r0, r5, #12
	add	r1, sp, #100
.LVL141:
.L142:
	add	r2, r2, #1
	.loc 1 325 0
	ldr	fp, [r0, #4]!
	ldr	sl, [r7, #4]!
	cmp	r2, ip
	eor	sl, fp, sl
	str	sl, [r1, #4]!
	bcc	.L142
	cmp	r4, r3
	add	r7, sp, #104
.LVL142:
	addne	r2, r6, r4
	beq	.L143
.L196:
	ldrb	r0, [r2, r3]	@ zero_extendqisi2
	ldrb	r1, [r6, r3]	@ zero_extendqisi2
	eor	r1, r0, r1
	strb	r1, [r7, r3]
	.loc 1 324 0
	add	r3, r3, #1
.LVL143:
	cmp	r4, r3
	bhi	.L196
.LVL144:
.L143:
.LBB1033:
.LBB1034:
	.loc 1 309 0
	ldrb	r0, [sp, #104]	@ zero_extendqisi2
	.loc 1 310 0
	subs	r3, r4, #1
	str	r3, [sp, #20]
	.loc 1 309 0
	mov	sl, r0, lsr #7
.LVL145:
	.loc 1 310 0
	beq	.L218
.LBE1034:
.LBE1033:
.LBE1051:
.LBE1066:
.LBB1067:
.LBB1068:
	.loc 1 341 0
	sub	r3, r4, #2
.LVL146:
	cmp	r3, #1
	bls	.L219
.LVL147:
.L140:
.LBE1068:
.LBE1067:
.LBB1100:
.LBB1052:
	ldr	r1, [sp, #20]
.LBB1044:
.LBB1039:
	add	r2, sp, #105
.LBE1039:
.LBE1044:
	.loc 1 327 0
	mov	r3, r7
.L149:
.LBB1045:
.LBB1040:
.LBB1035:
	.loc 1 313 0
	mov	fp, r0, asl #1
	.loc 1 311 0
	ldrb	r0, [r2, #1]	@ zero_extendqisi2
	ldrb	ip, [r3, #1]	@ zero_extendqisi2
.LVL148:
	sub	lr, r1, #3
	cmp	lr, #1
.LBE1035:
	.loc 1 310 0
	sub	lr, r1, #2
.LBB1036:
	.loc 1 311 0
	mov	r9, r0, lsr #7
	.loc 1 313 0
	orr	r1, fp, ip, lsr #7
	orr	ip, r9, ip, asl #1
.LVL149:
	strb	r1, [r2, #-1]
.LVL150:
.LBE1036:
	.loc 1 310 0
	mov	r1, lr
.LBB1037:
	.loc 1 313 0
	strb	ip, [r3, #1]
	add	r2, r2, #2
	.loc 1 341 0
	add	r3, r3, #2
.LVL151:
	bhi	.L149
.LBE1037:
.LBE1040:
.LBE1045:
.LBE1052:
.LBE1100:
	.loc 1 313 0
	mov	r2, r3
.LVL152:
.L150:
.LBB1101:
.LBB1053:
.LBB1046:
.LBB1041:
	.loc 1 341 0
	add	lr, r2, lr
.LVL153:
.L147:
	mov	r1, r3
.LVL154:
	add	r3, r3, #1
.LVL155:
.LBB1038:
	.loc 1 311 0
	ldrb	ip, [r1, #1]	@ zero_extendqisi2
	.loc 1 313 0
	ldrb	r0, [r1, #0]	@ zero_extendqisi2
	.loc 1 311 0
	mov	r1, ip, lsr #7
	.loc 1 313 0
	orr	r1, r1, r0, asl #1
	strb	r1, [r2], #1
.LVL156:
.LBE1038:
	.loc 1 310 0
	cmp	r2, lr
	bne	.L147
	.loc 1 316 0
	ldr	fp, [sp, #20]
	add	ip, sp, #128
.LBE1041:
.LBE1046:
	.loc 1 329 0
	cmp	r4, #0
.LBB1047:
.LBB1042:
	.loc 1 316 0
	add	r3, ip, fp
.LVL157:
	ldrb	r2, [r3, #-24]	@ zero_extendqisi2
.LVL158:
	orr	sl, sl, r2, asl #1
	strb	sl, [r3, #-24]
.LVL159:
.LBE1042:
.LBE1047:
	.loc 1 329 0
	beq	.L158
	rsb	lr, r4, r5
	add	r9, r5, #16
	mov	ip, r4, lsr #2
.L151:
	add	r3, lr, #16
.LBE1053:
.LBE1101:
.LBB1102:
.LBB1085:
	.loc 1 341 0
	add	r0, lr, #20
	add	r2, r5, #20
	orr	r1, r3, r9
	cmp	r3, r2
	cmpcc	r9, r0
	mov	r3, ip, asl #2
	movcc	r0, #0
	movcs	r0, #1
	cmp	r4, #3
	movls	r0, #0
	andhi	r0, r0, #1
	tst	r1, #3
	movne	r1, #0
	andeq	r1, r0, #1
	eor	r1, r1, #1
	cmp	ip, #0
	orreq	r1, r1, #1
	cmp	r1, #0
	bne	.L176
	add	lr, lr, #12
	add	r9, sp, #100
.LBE1085:
.LBE1102:
.LBB1103:
.LBB1054:
	mov	sl, lr
.LVL160:
.L155:
.LBE1054:
.LBE1103:
.LBB1104:
.LBB1086:
	.loc 1 330 0
	ldr	r0, [r9, #4]!
	add	r1, r1, #1
	ldr	fp, [lr, #4]!
	cmp	r1, ip
	eor	fp, r0, fp
	str	fp, [sl, #4]!
	.loc 1 331 0
	ldr	fp, [r2, #-4]
	eor	r0, r0, fp
	str	r0, [r2, #-4]
	add	r2, r2, #4
	bcc	.L155
	cmp	r4, r3
	beq	.L158
	add	r2, r6, r4
.L195:
.LBE1086:
.LBE1104:
.LBB1105:
.LBB1055:
	.loc 1 330 0
	ldrb	r0, [r6, r3]	@ zero_extendqisi2
	ldrb	r1, [r7, r3]	@ zero_extendqisi2
	eor	r0, r1, r0
	strb	r0, [r6, r3]
	.loc 1 331 0
	ldrb	r0, [r2, r3]	@ zero_extendqisi2
	eor	r1, r1, r0
	strb	r1, [r2, r3]
	.loc 1 329 0
	add	r3, r3, #1
.LVL161:
	cmp	r4, r3
	bhi	.L195
.LVL162:
.L158:
.LBE1055:
.LBE1105:
	.loc 1 360 0
	ldr	r9, [sp, #16]
	.loc 1 364 0
	mov	r0, r5
.LBB1106:
.LBB1107:
	.loc 1 45 0
	ldr	sl, [sp, #12]
.LBE1107:
.LBE1106:
	.loc 1 364 0
	mov	r1, r5
.LBB1110:
.LBB1108:
	.loc 1 46 0
	ldr	fp, [sp, #4]
.LBE1108:
.LBE1110:
	.loc 1 360 0
	ldrb	r3, [r5, r9]	@ zero_extendqisi2
	.loc 1 364 0
	ldr	r2, [sp, #48]
	.loc 1 360 0
	eor	r3, r3, #127
	mvn	r3, r3
	strb	r3, [r5, r9]
.LVL163:
.LBB1111:
.LBB1109:
	.loc 1 46 0
	ldmia	r5, {r3, ip}
	.loc 1 47 0
	ldr	r9, [sp, #8]
	.loc 1 45 0
	eor	r3, r3, sl
	.loc 1 46 0
	eor	ip, ip, fp
	.loc 1 45 0
	str	r3, [r5, #0]
	.loc 1 46 0
	str	ip, [r5, #4]
	.loc 1 47 0
	ldr	r3, [r5, #8]
	.loc 1 48 0
	ldr	ip, [r5, #12]
	.loc 1 47 0
	eor	r3, r3, r9
	str	r3, [r5, #8]
	.loc 1 48 0
	eor	ip, ip, r8
	str	ip, [r5, #12]
.LBE1109:
.LBE1111:
	.loc 1 364 0
	bl	aesc_encrypt
.LVL164:
.LBB1112:
.LBB1113:
	.loc 1 46 0
	ldmia	r5, {r0, r1}
	.loc 1 47 0
	ldr	r3, [r5, #8]
.LBE1113:
.LBE1112:
.LBB1117:
.LBB1087:
	.loc 1 324 0
	cmp	r4, #0
.LBE1087:
.LBE1117:
.LBB1118:
.LBB1114:
	.loc 1 45 0
	eor	r0, r0, sl
.LBE1114:
.LBE1118:
	.loc 1 368 0
	ldr	sl, [sp, #16]
.LBB1119:
.LBB1115:
	.loc 1 48 0
	ldr	r2, [r5, #12]
	.loc 1 47 0
	eor	r3, r3, r9
	.loc 1 46 0
	eor	r1, r1, fp
	.loc 1 45 0
	str	r0, [r5, #0]
	.loc 1 46 0
	str	r1, [r5, #4]
	.loc 1 48 0
	eor	r8, r2, r8
	.loc 1 47 0
	str	r3, [r5, #8]
.LBE1115:
.LBE1119:
.LBB1120:
.LBB1088:
	.loc 1 321 0
	mov	r1, #0
.LBE1088:
.LBE1120:
.LBB1121:
.LBB1116:
	.loc 1 48 0
	str	r8, [r5, #12]
.LBE1116:
.LBE1121:
.LBB1122:
.LBB1089:
	.loc 1 324 0
	moveq	r9, r4
.LBE1089:
.LBE1122:
	.loc 1 368 0
	ldrb	r3, [r5, sl]	@ zero_extendqisi2
.LBB1123:
.LBB1090:
	.loc 1 321 0
	str	r1, [sp, #104]
.LBE1090:
.LBE1123:
	.loc 1 368 0
	eor	r3, r3, #127
.LBB1124:
.LBB1091:
	.loc 1 321 0
	str	r1, [sp, #108]
	str	r1, [sp, #112]
.LBE1091:
.LBE1124:
	.loc 1 368 0
	mvn	r3, r3
.LBB1125:
.LBB1092:
	.loc 1 321 0
	str	r1, [sp, #116]
.LBE1092:
.LBE1125:
	.loc 1 368 0
	strb	r3, [r5, sl]
.LVL165:
.LBB1126:
.LBB1093:
	.loc 1 324 0
	moveq	r3, r4
	beq	.L153
	rsb	ip, r4, r5
	mov	sl, r4, lsr #2
.LBE1093:
.LBE1126:
.LBB1127:
.LBB1056:
	.loc 1 341 0
	orr	r3, r5, ip
	tst	r3, #3
	mov	r3, sl, asl #2
	movne	r2, #0
	moveq	r2, #1
	cmp	r4, #3
	movls	r2, #0
	andhi	r2, r2, #1
	eor	r2, r2, #1
	cmp	sl, #0
	orreq	r2, r2, #1
	cmp	r2, #0
	bne	.L177
	add	ip, ip, #12
	add	r0, r5, #12
	add	r1, sp, #100
.LVL166:
.L160:
	add	r2, r2, #1
	.loc 1 325 0
	ldr	r8, [ip, #4]!
	ldr	lr, [r0, #4]!
	cmp	sl, r2
	eor	lr, r8, lr
	str	lr, [r1, #4]!
	bhi	.L160
	cmp	r4, r3
	beq	.L161
	add	r2, r6, r4
.L194:
.LBE1056:
.LBE1127:
.LBB1128:
.LBB1094:
	ldrb	r0, [r2, r3]	@ zero_extendqisi2
	ldrb	r1, [r6, r3]	@ zero_extendqisi2
	eor	r1, r0, r1
	strb	r1, [r7, r3]
	.loc 1 324 0
	add	r3, r3, #1
.LVL167:
	cmp	r4, r3
	bhi	.L194
.LVL168:
.L161:
	ldrb	r9, [sp, #104]	@ zero_extendqisi2
	mov	r3, r9, asl #1
	mov	r9, r9, lsr #7
	uxtb	r3, r3
.L153:
.LVL169:
.LBB1069:
.LBB1070:
	.loc 1 310 0
	ldr	fp, [sp, #20]
	cmp	fp, #0
	beq	.L178
	.loc 1 341 0
	sub	sl, fp, #1
	cmp	sl, #1
	bls	.L179
	ldrb	r0, [sp, #104]	@ zero_extendqisi2
	add	r2, sp, #105
.LBE1070:
.LBE1069:
	mov	r1, fp
	.loc 1 327 0
	mov	r3, r7
.LVL170:
.L165:
.LBB1080:
.LBB1075:
.LBB1071:
	.loc 1 313 0
	mov	fp, r0, asl #1
	.loc 1 311 0
	ldrb	r0, [r2, #1]	@ zero_extendqisi2
	ldrb	ip, [r3, #1]	@ zero_extendqisi2
.LVL171:
	sub	lr, r1, #3
	cmp	lr, #1
.LBE1071:
	.loc 1 310 0
	sub	lr, r1, #2
.LBB1072:
	.loc 1 311 0
	mov	r8, r0, lsr #7
	.loc 1 313 0
	orr	r1, fp, ip, lsr #7
.LVL172:
	orr	ip, r8, ip, asl #1
.LVL173:
	strb	r1, [r2, #-1]
.LVL174:
.LBE1072:
	.loc 1 310 0
	mov	r1, lr
.LBB1073:
	.loc 1 313 0
	strb	ip, [r3, #1]
	add	r2, r2, #2
	.loc 1 341 0
	add	r3, r3, #2
.LVL175:
	bhi	.L165
.LVL176:
.L164:
.LBE1073:
	add	lr, r3, lr
	mov	r2, r3
.LVL177:
.L166:
	mov	r1, r2
.LVL178:
	add	r2, r2, #1
.LVL179:
.LBB1074:
	.loc 1 311 0
	ldrb	ip, [r1, #1]	@ zero_extendqisi2
	.loc 1 313 0
	ldrb	r0, [r1, #0]	@ zero_extendqisi2
	.loc 1 311 0
	mov	r1, ip, lsr #7
	.loc 1 313 0
	orr	r1, r1, r0, asl #1
	strb	r1, [r3], #1
.LVL180:
.LBE1074:
	.loc 1 310 0
	cmp	r3, lr
	bne	.L166
	add	ip, sp, #128
	ldr	r3, [sp, #20]
.LVL181:
	add	sl, ip, sl
	add	r2, r7, r3
.LVL182:
	ldrb	r3, [sl, #-23]	@ zero_extendqisi2
	mov	r3, r3, asl #1
	uxtb	r3, r3
.L163:
.LBE1075:
.LBE1080:
	.loc 1 329 0
	cmp	r4, #0
.LBB1081:
.LBB1076:
	.loc 1 316 0
	orr	r3, r3, r9
	strb	r3, [r2, #0]
.LVL183:
.LBE1076:
.LBE1081:
	.loc 1 329 0
	beq	.L172
	rsb	ip, r4, r5
	add	r1, r5, #16
	add	r3, ip, #16
.LBE1094:
.LBE1128:
	.loc 1 341 0
	add	lr, ip, #20
	add	r2, r5, #20
	orr	r0, r1, r3
	cmp	r3, r2
	cmpcc	r1, lr
	mov	r9, r4, lsr #2
	movcc	r1, #0
	movcs	r1, #1
	cmp	r4, #3
	movls	r1, #0
	andhi	r1, r1, #1
	tst	r0, #3
	mov	r3, r9, asl #2
	movne	r1, #0
	andeq	r1, r1, #1
	eor	r1, r1, #1
	cmp	r9, #0
	orreq	r1, r1, #1
	cmp	r1, #0
	bne	.L180
	add	ip, ip, #12
	add	r8, sp, #100
.LBB1129:
.LBB1095:
.LBB1082:
.LBB1077:
	mov	lr, ip
.LVL184:
.L169:
.LBE1077:
.LBE1082:
.LBE1095:
.LBE1129:
	.loc 1 330 0
	ldr	r0, [r8, #4]!
	add	r1, r1, #1
	ldr	sl, [ip, #4]!
	cmp	r1, r9
	eor	sl, r0, sl
	str	sl, [lr, #4]!
	.loc 1 331 0
	ldr	sl, [r2, #-4]
	eor	r0, r0, sl
	str	r0, [r2, #-4]
	add	r2, r2, #4
	bcc	.L169
	cmp	r4, r3
	beq	.L172
	add	r2, r6, r4
.L193:
.LBB1130:
.LBB1096:
	.loc 1 330 0
	ldrb	r0, [r6, r3]	@ zero_extendqisi2
	ldrb	r1, [r7, r3]	@ zero_extendqisi2
	eor	r0, r1, r0
	strb	r0, [r6, r3]
	.loc 1 331 0
	ldrb	r0, [r2, r3]	@ zero_extendqisi2
	eor	r1, r1, r0
	strb	r1, [r2, r3]
	.loc 1 329 0
	add	r3, r3, #1
.LVL185:
	cmp	r4, r3
	bhi	.L193
.LVL186:
.L172:
.LBE1096:
.LBE1130:
.LBB1131:
.LBB1132:
	.loc 1 45 0
	ldr	lr, [r5, #0]
.LBE1132:
.LBE1131:
	.loc 1 376 0
	movw	r9, #:lower16:__stack_chk_guard
.LBB1138:
.LBB1133:
	.loc 1 46 0
	ldr	ip, [r5, #4]
.LBE1133:
.LBE1138:
	.loc 1 376 0
	movt	r9, #:upper16:__stack_chk_guard
.LBB1139:
.LBB1134:
	.loc 1 47 0
	ldr	r1, [r5, #8]
.LBE1134:
.LBE1139:
	.loc 1 374 0
	mov	r0, r5
.LBB1140:
.LBB1135:
	.loc 1 45 0
	ldr	r4, [sp, #24]
.LVL187:
	.loc 1 48 0
	ldr	r3, [r5, #12]
	.loc 1 46 0
	ldr	r6, [sp, #28]
.LVL188:
	.loc 1 45 0
	eor	lr, lr, r4
	.loc 1 47 0
	ldr	r7, [sp, #32]
.LVL189:
	.loc 1 48 0
	ldr	r8, [sp, #36]
	.loc 1 46 0
	eor	ip, ip, r6
.LBE1135:
.LBE1140:
	.loc 1 374 0
	ldr	r2, [sp, #48]
.LBB1141:
.LBB1136:
	.loc 1 47 0
	eor	r1, r1, r7
	.loc 1 48 0
	eor	r3, r3, r8
	.loc 1 47 0
	str	r1, [r5, #8]
	.loc 1 48 0
	str	r3, [r5, #12]
.LBE1136:
.LBE1141:
	.loc 1 374 0
	mov	r1, r5
.LBB1142:
.LBB1137:
	.loc 1 45 0
	str	lr, [r5, #0]
	.loc 1 46 0
	str	ip, [r5, #4]
.LBE1137:
.LBE1142:
	.loc 1 374 0
	bl	aesc_encrypt
.LVL190:
	.loc 1 376 0
	ldr	r2, [sp, #124]
	ldr	r3, [r9, #0]
.LBB1143:
.LBB1144:
	.loc 1 45 0
	ldr	r0, [r5, #0]
.LBE1144:
.LBE1143:
	.loc 1 376 0
	cmp	r2, r3
.LBB1146:
.LBB1145:
	.loc 1 47 0
	ldmib	r5, {r1, r2}
	.loc 1 48 0
	ldr	r3, [r5, #12]
	.loc 1 45 0
	eor	r0, r0, r4
	.loc 1 46 0
	eor	r1, r1, r6
	.loc 1 47 0
	eor	r2, r2, r7
	.loc 1 48 0
	eor	r3, r3, r8
	.loc 1 45 0
	str	r0, [r5, #0]
	.loc 1 46 0
	str	r1, [r5, #4]
	.loc 1 47 0
	str	r2, [r5, #8]
	.loc 1 48 0
	str	r3, [r5, #12]
.LBE1145:
.LBE1146:
	.loc 1 376 0
	bne	.L220
	add	sp, sp, #132
	ldmfd	sp!, {r4, r5, r6, r7, r8, r9, sl, fp, pc}
.LVL191:
.L219:
	.loc 1 341 0
	ldr	lr, [sp, #20]
	.loc 1 327 0
	mov	r2, r7
	mov	r3, r7
	b	.L150
.LVL192:
.L179:
.LBB1147:
.LBB1097:
	.loc 1 341 0
	ldr	lr, [sp, #20]
	.loc 1 327 0
	mov	r3, r7
	b	.L164
.LVL193:
.L218:
.LBE1097:
.LBE1147:
.LBB1148:
.LBB1057:
.LBB1048:
.LBB1043:
	.loc 1 316 0
	orr	r0, sl, r0, asl #1
	strb	r0, [sp, #104]
.LVL194:
	b	.L151
.LVL195:
.L178:
.LBE1043:
.LBE1048:
.LBE1057:
.LBE1148:
.LBB1149:
.LBB1098:
.LBB1083:
.LBB1078:
	.loc 1 327 0
	mov	r2, r7
	b	.L163
.LVL196:
.L174:
.LBE1078:
.LBE1083:
.LBE1098:
.LBE1149:
.LBB1150:
.LBB1058:
	.loc 1 310 0
	mvn	r9, #0
	ldrb	r0, [sp, #104]	@ zero_extendqisi2
	add	r7, sp, #104
.LVL197:
	.loc 1 309 0
	mov	sl, r4
	.loc 1 310 0
	str	r9, [sp, #20]
	b	.L140
.LVL198:
.L180:
	add	r2, r6, r4
.LBE1058:
.LBE1150:
.LBB1151:
.LBB1099:
.LBB1084:
.LBB1079:
	.loc 1 341 0
	mov	r3, #0
	b	.L193
.LVL199:
.L175:
	add	r7, sp, #104
.LVL200:
	add	r2, r6, r4
.LBE1079:
.LBE1084:
.LBE1099:
.LBE1151:
	mov	r3, r1
	b	.L196
.LVL201:
.L177:
	add	r2, r6, r4
.LBB1152:
.LBB1059:
	mov	r3, r1
	b	.L194
.LVL202:
.L176:
	add	r2, r6, r4
	mov	r3, #0
	b	.L195
.LVL203:
.L220:
.LBE1059:
.LBE1152:
	.loc 1 376 0
	bl	__stack_chk_fail
.LVL204:
	.cfi_endproc
.LFE73:
	.size	xls, .-xls
	.align	2
	.global	xlsinv
	.type	xlsinv, %function
xlsinv:
.LFB74:
	.loc 1 379 0
	.cfi_startproc
	@ args = 0, pretend = 0, frame = 128
	@ frame_needed = 0, uses_anonymous_args = 0
.LVL205:
	stmfd	sp!, {r4, r5, r6, r7, r8, r9, sl, fp, lr}
.LCFI9:
	.cfi_def_cfa_offset 36
	.cfi_offset 4, -36
	.cfi_offset 5, -32
	.cfi_offset 6, -28
	.cfi_offset 7, -24
	.cfi_offset 8, -20
	.cfi_offset 9, -16
	.cfi_offset 10, -12
	.cfi_offset 11, -8
	.cfi_offset 14, -4
	sub	sp, sp, #132
.LCFI10:
	.cfi_def_cfa_offset 168
.LBB1205:
.LBB1206:
.LBB1207:
.LBB1208:
	.loc 1 94 0
	ldrb	r7, [r2, #7]	@ zero_extendqisi2
.LBE1208:
.LBE1207:
.LBE1206:
.LBE1205:
	.loc 1 379 0
	mov	r4, r1
.LBB1294:
.LBB1283:
.LBB1223:
.LBB1209:
	.loc 1 93 0
	ldrb	r6, [r2, #6]	@ zero_extendqisi2
.LBE1209:
.LBE1223:
.LBE1283:
.LBE1294:
	.loc 1 379 0
	mov	r5, r0
.LBB1295:
.LBB1284:
.LBB1224:
.LBB1210:
	.loc 1 90 0
	ldrb	r1, [r2, #3]	@ zero_extendqisi2
.LVL206:
	.loc 1 94 0
	str	r7, [sp, #4]
	.loc 1 96 0
	ldrb	r7, [r2, #9]	@ zero_extendqisi2
	.loc 1 88 0
	ldrb	ip, [r2, #1]	@ zero_extendqisi2
	.loc 1 90 0
	mov	r9, r1, lsr #7
	.loc 1 89 0
	ldrb	r0, [r2, #2]	@ zero_extendqisi2
.LVL207:
	.loc 1 96 0
	str	r7, [sp, #20]
	.loc 1 93 0
	mov	r7, r6, lsr #7
	str	r7, [sp, #32]
	.loc 1 97 0
	ldrb	r7, [r2, #10]	@ zero_extendqisi2
	.loc 1 90 0
	orr	r9, r9, r0, asl #1
	.loc 1 95 0
	ldrb	r8, [r2, #8]	@ zero_extendqisi2
	.loc 1 89 0
	mov	fp, r0, lsr #7
.LBE1210:
.LBE1224:
.LBE1284:
.LBE1295:
	.loc 1 379 0
	str	r3, [sp, #48]
.LBB1296:
.LBB1285:
.LBB1225:
.LBB1211:
	.loc 1 88 0
	mov	r3, ip, lsr #7
.LVL208:
	.loc 1 97 0
	str	r7, [sp, #16]
	.loc 1 89 0
	orr	ip, fp, ip, asl #1
	.loc 1 88 0
	str	r3, [sp, #28]
	.loc 1 94 0
	ldr	r7, [sp, #4]
	.loc 1 89 0
	uxtb	ip, ip
	.loc 1 92 0
	ldrb	r3, [r2, #5]	@ zero_extendqisi2
	.loc 1 90 0
	str	r9, [sp, #64]
	.loc 1 93 0
	ldr	r9, [sp, #32]
	.loc 1 94 0
	mov	r7, r7, lsr #7
	.loc 1 95 0
	str	r8, [sp, #8]
	.loc 1 92 0
	mov	r8, r3, lsr #7
	.loc 1 94 0
	str	r7, [sp, #12]
	.loc 1 93 0
	orr	r3, r9, r3, asl #1
	.loc 1 95 0
	ldr	r9, [sp, #8]
	.loc 1 93 0
	str	r3, [sp, #32]
	.loc 1 94 0
	ldr	r3, [sp, #12]
	.loc 1 89 0
	str	ip, [sp, #12]
	.loc 1 94 0
	orr	r6, r3, r6, asl #1
	.loc 1 95 0
	mov	r3, r9, lsr #7
	ldr	r9, [sp, #4]
	.loc 1 91 0
	ldrb	lr, [r2, #4]	@ zero_extendqisi2
	.loc 1 94 0
	uxtb	r6, r6
	.loc 1 98 0
	ldrb	r7, [r2, #11]	@ zero_extendqisi2
	.loc 1 95 0
	orr	ip, r3, r9, asl #1
	.loc 1 96 0
	ldr	r9, [sp, #20]
	.loc 1 91 0
	mov	sl, lr, lsr #7
	.loc 1 99 0
	ldrb	fp, [r2, #12]	@ zero_extendqisi2
	.loc 1 100 0
	ldrb	r0, [r2, #13]	@ zero_extendqisi2
	.loc 1 91 0
	orr	sl, sl, r1, asl #1
	.loc 1 96 0
	mov	r3, r9, lsr #7
	ldr	r9, [sp, #8]
	.loc 1 101 0
	ldrb	r1, [r2, #14]	@ zero_extendqisi2
	.loc 1 92 0
	orr	r8, r8, lr, asl #1
	.loc 1 98 0
	str	r7, [sp, #24]
	.loc 1 95 0
	uxtb	ip, ip
.LBE1211:
.LBE1225:
	.loc 1 130 0
	ldrb	r7, [r2, #0]	@ zero_extendqisi2
.LBB1226:
.LBB1212:
	.loc 1 96 0
	orr	r3, r3, r9, asl #1
	.loc 1 102 0
	ldrb	lr, [r2, #15]	@ zero_extendqisi2
	.loc 1 92 0
	uxtb	r8, r8
	.loc 1 96 0
	str	r3, [sp, #44]
.LBE1212:
.LBE1226:
	.loc 1 132 0
	tst	r7, #128
.LBB1227:
.LBB1213:
	.loc 1 97 0
	ldr	r9, [sp, #16]
	.loc 1 91 0
	uxtb	sl, sl
	.loc 1 95 0
	str	ip, [sp, #8]
	.loc 1 94 0
	str	r6, [sp, #4]
	.loc 1 97 0
	mov	r3, r9, lsr #7
	ldr	r9, [sp, #20]
	.loc 1 94 0
	strb	r6, [sp, #94]
	.loc 1 96 0
	ldr	ip, [sp, #44]
	.loc 1 97 0
	orr	r3, r3, r9, asl #1
	.loc 1 98 0
	ldr	r9, [sp, #24]
	.loc 1 97 0
	str	r3, [sp, #52]
	.loc 1 95 0
	ldr	r6, [sp, #8]
	.loc 1 96 0
	uxtb	ip, ip
	.loc 1 98 0
	mov	r3, r9, lsr #7
	ldr	r9, [sp, #16]
	.loc 1 96 0
	str	ip, [sp, #20]
	.loc 1 95 0
	strb	r6, [sp, #95]
	.loc 1 98 0
	orr	r3, r3, r9, asl #1
	.loc 1 99 0
	ldr	r9, [sp, #24]
	.loc 1 98 0
	str	r3, [sp, #56]
	.loc 1 99 0
	mov	r3, fp, lsr #7
	.loc 1 96 0
	strb	ip, [sp, #96]
	.loc 1 99 0
	orr	r3, r3, r9, asl #1
	str	r3, [sp, #60]
	.loc 1 100 0
	mov	r3, r0, lsr #7
	.loc 1 88 0
	ldr	r9, [sp, #28]
	.loc 1 100 0
	orr	fp, r3, fp, asl #1
	.loc 1 101 0
	mov	r3, r1, lsr #7
	orr	r0, r3, r0, asl #1
	.loc 1 102 0
	mov	r3, lr, lsr #7
	orr	r1, r3, r1, asl #1
.LBE1213:
.LBE1227:
.LBE1285:
.LBE1296:
	.loc 1 379 0
	movw	r3, #:lower16:__stack_chk_guard
	movt	r3, #:upper16:__stack_chk_guard
.LBB1297:
.LBB1286:
.LBB1228:
.LBB1214:
	.loc 1 88 0
	orr	r9, r9, r7, asl #1
	.loc 1 90 0
	ldr	r7, [sp, #64]
	.loc 1 104 0
	mov	lr, lr, asl #1
.LBE1214:
.LBE1228:
.LBE1286:
.LBE1297:
	.loc 1 379 0
	ldr	r3, [r3, #0]
.LBB1298:
.LBB1287:
.LBB1229:
.LBB1215:
	.loc 1 100 0
	uxtb	fp, fp
	.loc 1 88 0
	str	r9, [sp, #40]
	.loc 1 104 0
	uxtb	lr, lr
	.loc 1 90 0
	uxtb	r9, r7
	.loc 1 93 0
	ldr	r7, [sp, #32]
.LBE1215:
.LBE1229:
.LBE1287:
.LBE1298:
	.loc 1 379 0
	str	r3, [sp, #36]
.LBB1299:
.LBB1288:
.LBB1230:
.LBB1216:
	.loc 1 101 0
	uxtb	r0, r0
	.loc 1 89 0
	ldr	r3, [sp, #12]
	.loc 1 102 0
	uxtb	r1, r1
	.loc 1 98 0
	ldr	ip, [sp, #56]
	.loc 1 99 0
	ldr	r6, [sp, #60]
	.loc 1 89 0
	strb	r3, [sp, #89]
	.loc 1 93 0
	uxtb	r3, r7
	.loc 1 97 0
	ldr	r7, [sp, #52]
	.loc 1 98 0
	uxtb	ip, ip
	.loc 1 99 0
	uxtb	r6, r6
	.loc 1 90 0
	strb	r9, [sp, #90]
	.loc 1 91 0
	strb	sl, [sp, #91]
	.loc 1 97 0
	uxtb	r7, r7
	.loc 1 92 0
	strb	r8, [sp, #92]
	.loc 1 93 0
	strb	r3, [sp, #93]
	.loc 1 97 0
	str	r7, [sp, #16]
	.loc 1 98 0
	str	ip, [sp, #24]
	.loc 1 97 0
	strb	r7, [sp, #97]
	.loc 1 99 0
	str	r6, [sp, #28]
	.loc 1 88 0
	ldr	r7, [sp, #40]
	.loc 1 99 0
	strb	r6, [sp, #99]
.LBE1216:
.LBE1230:
.LBB1231:
.LBB1232:
	.loc 1 88 0
	ldr	r6, [sp, #12]
.LBE1232:
.LBE1231:
.LBB1245:
.LBB1217:
	.loc 1 98 0
	strb	ip, [sp, #98]
	.loc 1 88 0
	uxtb	ip, r7
	.loc 1 100 0
	str	fp, [sp, #32]
.LBE1217:
.LBE1245:
.LBB1246:
.LBB1233:
	.loc 1 88 0
	mov	r7, r6, lsr #7
.LBE1233:
.LBE1246:
.LBB1247:
.LBB1218:
	.loc 1 100 0
	strb	fp, [sp, #100]
.LBE1218:
.LBE1247:
.LBB1248:
.LBB1234:
	.loc 1 88 0
	orr	r7, r7, ip, asl #1
	strb	r7, [sp, #104]
	.loc 1 89 0
	ldr	r7, [sp, #12]
	mov	r6, r9, lsr #7
.LBE1234:
.LBE1248:
.LBE1288:
.LBE1299:
	.loc 1 379 0
	ldr	fp, [sp, #36]
.LBB1300:
.LBB1289:
.LBB1249:
.LBB1219:
	.loc 1 104 0
	strb	lr, [sp, #103]
.LBE1219:
.LBE1249:
	.loc 1 133 0
	eorne	lr, lr, #135
.LBB1250:
.LBB1235:
	.loc 1 89 0
	orr	r6, r6, r7, asl #1
	strb	r6, [sp, #105]
	.loc 1 93 0
	ldr	r6, [sp, #4]
	.loc 1 92 0
	mov	r7, r3, lsr #7
.LBE1235:
.LBE1250:
.LBE1289:
.LBE1300:
	.loc 1 379 0
	str	fp, [sp, #124]
.LVL209:
.LBB1301:
.LBB1290:
.LBB1251:
.LBB1236:
	.loc 1 104 0
	mov	fp, lr, asl #1
	.loc 1 92 0
	orr	r7, r7, r8, asl #1
.LBE1236:
.LBE1251:
	.loc 1 133 0
	strneb	lr, [sp, #103]
.LBB1252:
.LBB1237:
	.loc 1 93 0
	mov	r6, r6, lsr #7
	str	r6, [sp, #12]
	.loc 1 94 0
	ldr	r6, [sp, #8]
	.loc 1 104 0
	uxtb	fp, fp
	str	fp, [sp, #36]
.LBE1237:
.LBE1252:
	.loc 1 137 0
	tst	ip, #128
.LBB1253:
.LBB1238:
	.loc 1 104 0
	strb	fp, [sp, #119]
	.loc 1 91 0
	mov	fp, r8, lsr #7
	.loc 1 98 0
	ldr	r8, [sp, #28]
.LBE1238:
.LBE1253:
.LBB1254:
.LBB1220:
	.loc 1 88 0
	strb	ip, [sp, #88]
.LBE1220:
.LBE1254:
.LBB1255:
.LBB1239:
	.loc 1 90 0
	mov	ip, sl, lsr #7
.LVL210:
	orr	ip, ip, r9, asl #1
	.loc 1 94 0
	mov	r9, r6, lsr #7
	.loc 1 95 0
	ldr	r6, [sp, #20]
	.loc 1 98 0
	mov	r8, r8, lsr #7
	str	r8, [sp, #40]
	.loc 1 91 0
	orr	sl, fp, sl, asl #1
	.loc 1 93 0
	ldr	r8, [sp, #12]
	.loc 1 90 0
	strb	ip, [sp, #106]
	.loc 1 95 0
	mov	ip, r6, lsr #7
	.loc 1 93 0
	orr	r3, r8, r3, asl #1
	.loc 1 96 0
	ldr	r6, [sp, #16]
	.loc 1 94 0
	ldr	r8, [sp, #4]
.LBE1239:
.LBE1255:
.LBB1256:
.LBB1221:
	.loc 1 101 0
	strb	r0, [sp, #101]
.LBE1221:
.LBE1256:
.LBB1257:
.LBB1240:
	.loc 1 96 0
	mov	fp, r6, lsr #7
	.loc 1 97 0
	ldr	r6, [sp, #24]
	.loc 1 94 0
	orr	r9, r9, r8, asl #1
	.loc 1 95 0
	ldr	r8, [sp, #8]
.LBE1240:
.LBE1257:
.LBB1258:
.LBB1222:
	.loc 1 102 0
	strb	r1, [sp, #102]
.LBE1222:
.LBE1258:
.LBB1259:
.LBB1241:
	.loc 1 91 0
	strb	sl, [sp, #107]
	.loc 1 97 0
	mov	sl, r6, lsr #7
	.loc 1 95 0
	orr	ip, ip, r8, asl #1
	.loc 1 99 0
	ldr	r6, [sp, #32]
	.loc 1 92 0
	strb	r7, [sp, #108]
	.loc 1 93 0
	strb	r3, [sp, #109]
	.loc 1 101 0
	mov	r3, r1, lsr #7
	.loc 1 94 0
	strb	r9, [sp, #110]
.LVL211:
	.loc 1 99 0
	mov	r7, r6, lsr #7
	.loc 1 96 0
	ldr	r9, [sp, #20]
	.loc 1 102 0
	mov	r1, r1, asl #1
	.loc 1 95 0
	strb	ip, [sp, #111]
	.loc 1 102 0
	orr	r1, r1, lr, lsr #7
	.loc 1 97 0
	ldr	ip, [sp, #16]
	.loc 1 100 0
	mov	r6, r0, lsr #7
	.loc 1 96 0
	orr	fp, fp, r9, asl #1
	strb	fp, [sp, #112]
	.loc 1 99 0
	ldr	fp, [sp, #28]
	.loc 1 101 0
	orr	r3, r3, r0, asl #1
	.loc 1 97 0
	orr	sl, sl, ip, asl #1
	strb	sl, [sp, #113]
	.loc 1 98 0
	ldr	sl, [sp, #24]
	ldr	r9, [sp, #40]
	.loc 1 99 0
	orr	r7, r7, fp, asl #1
	.loc 1 100 0
	ldr	ip, [sp, #32]
	.loc 1 98 0
	orr	r8, r9, sl, asl #1
.LBE1241:
.LBE1259:
	.loc 1 138 0
	ldrne	lr, [sp, #36]
.LBB1260:
.LBB1242:
	.loc 1 98 0
	strb	r8, [sp, #114]
	.loc 1 99 0
	strb	r7, [sp, #115]
	.loc 1 100 0
	orr	r6, r6, ip, asl #1
	.loc 1 102 0
	strb	r1, [sp, #118]
.LBE1242:
.LBE1260:
	.loc 1 138 0
	eorne	fp, lr, #120
.LBB1261:
.LBB1243:
	.loc 1 100 0
	strb	r6, [sp, #116]
.LBE1243:
.LBE1261:
.LBB1262:
.LBB1263:
	.loc 1 47 0
	ldr	r1, [sp, #112]
.LBE1263:
.LBE1262:
	.loc 1 138 0
	mvnne	fp, fp
.LBB1268:
.LBB1264:
	.loc 1 47 0
	ldr	r6, [sp, #96]
.LBE1264:
.LBE1268:
.LBB1269:
.LBB1244:
	.loc 1 101 0
	strb	r3, [sp, #117]
.LBE1244:
.LBE1269:
.LBB1270:
.LBB1265:
	.loc 1 46 0
	ldr	r7, [sp, #92]
	.loc 1 47 0
	eor	r6, r6, r1
	.loc 1 46 0
	ldr	r3, [sp, #108]
	.loc 1 45 0
	ldr	r0, [sp, #88]
	ldr	r1, [sp, #104]
	.loc 1 46 0
	eor	r7, r7, r3
.LBE1265:
.LBE1270:
	.loc 1 138 0
	strneb	fp, [sp, #119]
.LBB1271:
.LBB1266:
	.loc 1 48 0
	ldr	ip, [sp, #100]
	.loc 1 45 0
	eor	r1, r0, r1
	.loc 1 48 0
	ldr	r3, [sp, #116]
.LBE1266:
.LBE1271:
.LBB1272:
.LBB1273:
	ldr	r0, [r2, #12]
.LBE1273:
.LBE1272:
.LBB1278:
.LBB1267:
	eor	ip, ip, r3
.LVL212:
.LBE1267:
.LBE1278:
.LBB1279:
.LBB1274:
	.loc 1 47 0
	ldmib	r2, {r3, lr}
	.loc 1 48 0
	eor	r0, ip, r0
	str	r0, [sp, #20]
.LBE1274:
.LBE1279:
.LBE1290:
.LBE1301:
.LBB1302:
.LBB1303:
.LBB1304:
.LBB1305:
	.loc 1 101 0
	ldr	fp, [sp, #20]
.LBE1305:
.LBE1304:
.LBE1303:
.LBE1302:
.LBB1405:
.LBB1291:
.LBB1280:
.LBB1275:
	.loc 1 46 0
	eor	r3, r7, r3
	str	r3, [sp, #4]
	.loc 1 47 0
	eor	lr, r6, lr
	.loc 1 45 0
	ldr	r3, [r2, #0]
	.loc 1 47 0
	str	lr, [sp, #8]
.LBE1275:
.LBE1280:
.LBE1291:
.LBE1405:
.LBB1406:
.LBB1392:
.LBB1318:
.LBB1306:
	.loc 1 95 0
	uxtb	r6, lr
	.loc 1 91 0
	ldr	r0, [sp, #4]
.LBE1306:
.LBE1318:
.LBE1392:
.LBE1406:
.LBB1407:
.LBB1292:
.LBB1281:
.LBB1276:
	.loc 1 45 0
	eor	r3, r1, r3
.LBE1276:
.LBE1281:
.LBE1292:
.LBE1407:
.LBB1408:
.LBB1393:
.LBB1319:
.LBB1307:
	.loc 1 99 0
	ldr	r2, [sp, #20]
.LVL213:
	.loc 1 96 0
	ubfx	lr, lr, #8, #8
	.loc 1 97 0
	ldr	r1, [sp, #8]
	.loc 1 92 0
	ubfx	sl, r0, #8, #8
.LBE1307:
.LBE1319:
.LBE1393:
.LBE1408:
.LBB1409:
.LBB1293:
.LBB1282:
.LBB1277:
	.loc 1 45 0
	str	r3, [sp, #12]
.LBE1277:
.LBE1282:
.LBE1293:
.LBE1409:
.LBB1410:
.LBB1394:
.LBB1320:
.LBB1308:
	.loc 1 101 0
	ubfx	r3, fp, #16, #8
	.loc 1 102 0
	mov	fp, fp, lsr #24
	str	fp, [sp, #36]
	.loc 1 90 0
	ldr	fp, [sp, #12]
	.loc 1 91 0
	uxtb	r9, r0
	.loc 1 93 0
	ubfx	r8, r0, #16, #8
	.loc 1 94 0
	mov	r7, r0, lsr #24
	.loc 1 97 0
	ubfx	ip, r1, #16, #8
	.loc 1 98 0
	mov	r0, r1, lsr #24
	.loc 1 90 0
	mov	fp, fp, lsr #24
	str	fp, [sp, #32]
	.loc 1 89 0
	ldr	fp, [sp, #12]
	.loc 1 99 0
	uxtb	r1, r2
	.loc 1 100 0
	ubfx	r2, r2, #8, #8
	.loc 1 89 0
	ubfx	fp, fp, #16, #8
	str	fp, [sp, #28]
	.loc 1 88 0
	ldr	fp, [sp, #12]
	ubfx	fp, fp, #8, #8
	str	fp, [sp, #24]
.LBE1308:
.LBE1320:
	.loc 1 130 0
	ldr	fp, [sp, #12]
	uxtb	fp, fp
	str	fp, [sp, #16]
.LVL214:
.LBB1321:
.LBB1309:
	.loc 1 91 0
	mov	fp, r9, lsr #7
	str	fp, [sp, #40]
	.loc 1 92 0
	mov	fp, sl, lsr #7
	orr	fp, fp, r9, asl #1
	.loc 1 93 0
	mov	r9, r8, lsr #7
	orr	r9, r9, sl, asl #1
	.loc 1 94 0
	mov	sl, r7, lsr #7
	orr	sl, sl, r8, asl #1
	.loc 1 95 0
	mov	r8, r6, lsr #7
	orr	r8, r8, r7, asl #1
	.loc 1 96 0
	mov	r7, lr, lsr #7
	orr	r7, r7, r6, asl #1
	.loc 1 97 0
	mov	r6, ip, lsr #7
	orr	r6, r6, lr, asl #1
	.loc 1 98 0
	mov	lr, r0, lsr #7
	.loc 1 92 0
	str	fp, [sp, #44]
	.loc 1 98 0
	orr	lr, lr, ip, asl #1
	.loc 1 102 0
	ldr	fp, [sp, #36]
	.loc 1 99 0
	mov	ip, r1, lsr #7
	orr	ip, ip, r0, asl #1
	.loc 1 100 0
	mov	r0, r2, lsr #7
	orr	r0, r0, r1, asl #1
	.loc 1 101 0
	mov	r1, r3, lsr #7
	orr	r1, r1, r2, asl #1
	.loc 1 102 0
	mov	r2, fp, lsr #7
	orr	r2, r2, r3, asl #1
	str	r2, [sp, #64]
	.loc 1 90 0
	ldr	r2, [sp, #32]
	.loc 1 104 0
	mov	fp, fp, asl #1
	str	fp, [sp, #68]
	.loc 1 93 0
	uxtb	r9, r9
	.loc 1 91 0
	ldr	fp, [sp, #40]
	.loc 1 94 0
	uxtb	sl, sl
	.loc 1 90 0
	mov	r3, r2, lsr #7
	.loc 1 95 0
	uxtb	r8, r8
	.loc 1 91 0
	orr	r2, fp, r2, asl #1
	.loc 1 89 0
	ldr	fp, [sp, #28]
	.loc 1 91 0
	str	r2, [sp, #60]
	.loc 1 96 0
	uxtb	r7, r7
	.loc 1 97 0
	uxtb	r6, r6
	.loc 1 98 0
	uxtb	lr, lr
	.loc 1 90 0
	orr	r3, r3, fp, asl #1
	.loc 1 89 0
	mov	r2, fp, lsr #7
	.loc 1 88 0
	ldr	fp, [sp, #24]
	.loc 1 99 0
	uxtb	ip, ip
	.loc 1 90 0
	str	r3, [sp, #56]
	.loc 1 100 0
	uxtb	r0, r0
	.loc 1 93 0
	strb	r9, [sp, #93]
	.loc 1 101 0
	uxtb	r1, r1
	.loc 1 88 0
	mov	r3, fp, lsr #7
	.loc 1 89 0
	orr	r2, r2, fp, asl #1
	.loc 1 88 0
	ldr	fp, [sp, #16]
	.loc 1 94 0
	strb	sl, [sp, #94]
	.loc 1 89 0
	uxtb	r2, r2
	.loc 1 94 0
	str	sl, [sp, #16]
	.loc 1 88 0
	orr	r3, r3, fp, asl #1
	str	r3, [sp, #52]
	.loc 1 92 0
	ldr	r3, [sp, #44]
.LBE1309:
.LBE1321:
	.loc 1 132 0
	movs	fp, fp, lsr #7
.LBB1322:
.LBB1310:
	.loc 1 96 0
	str	r7, [sp, #24]
	.loc 1 95 0
	strb	r8, [sp, #95]
	.loc 1 92 0
	uxtb	fp, r3
	.loc 1 97 0
	str	r6, [sp, #28]
	.loc 1 92 0
	strb	fp, [sp, #92]
	.loc 1 96 0
	strb	r7, [sp, #96]
	.loc 1 98 0
	str	lr, [sp, #32]
	.loc 1 97 0
	strb	r6, [sp, #97]
	.loc 1 99 0
	str	ip, [sp, #36]
	.loc 1 98 0
	strb	lr, [sp, #98]
	.loc 1 90 0
	ldr	lr, [sp, #56]
	.loc 1 102 0
	ldr	r6, [sp, #64]
	.loc 1 104 0
	ldr	r7, [sp, #68]
	.loc 1 90 0
	uxtb	r3, lr
	.loc 1 91 0
	ldr	sl, [sp, #60]
	.loc 1 100 0
	str	r0, [sp, #40]
	strb	r0, [sp, #100]
	.loc 1 102 0
	uxtb	r0, r6
	.loc 1 88 0
	ldr	r6, [sp, #52]
	.loc 1 101 0
	str	r1, [sp, #44]
	strb	r1, [sp, #101]
	.loc 1 104 0
	uxtb	r1, r7
.LBE1310:
.LBE1322:
.LBB1323:
.LBB1324:
	.loc 1 89 0
	mov	r7, r3, lsr #7
.LBE1324:
.LBE1323:
.LBB1333:
.LBB1311:
	.loc 1 99 0
	strb	ip, [sp, #99]
	.loc 1 89 0
	strb	r2, [sp, #89]
	.loc 1 91 0
	uxtb	ip, sl
.LBE1311:
.LBE1333:
.LBB1334:
.LBB1325:
	.loc 1 88 0
	mov	sl, r2, lsr #7
	.loc 1 89 0
	orr	r2, r7, r2, asl #1
	strb	r2, [sp, #105]
.LBE1325:
.LBE1334:
.LBB1335:
.LBB1312:
	.loc 1 88 0
	uxtb	lr, r6
.LVL215:
.LBE1312:
.LBE1335:
.LBB1336:
.LBB1326:
	.loc 1 93 0
	ldr	r2, [sp, #16]
	.loc 1 92 0
	mov	r7, r9, lsr #7
.LBE1326:
.LBE1336:
.LBB1337:
.LBB1313:
	.loc 1 104 0
	strb	r1, [sp, #103]
.LBE1313:
.LBE1337:
	.loc 1 133 0
	eorne	r1, r1, #135
.LBB1338:
.LBB1314:
	.loc 1 88 0
	strb	lr, [sp, #88]
.LBE1314:
.LBE1338:
	.loc 1 133 0
	strneb	r1, [sp, #103]
.LBB1339:
.LBB1327:
	.loc 1 93 0
	mov	r2, r2, lsr #7
.LBE1327:
.LBE1339:
	.loc 1 137 0
	tst	lr, #128
.LBB1340:
.LBB1328:
	.loc 1 93 0
	str	r2, [sp, #52]
	.loc 1 88 0
	orr	lr, sl, lr, asl #1
.LVL216:
	.loc 1 95 0
	ldr	r2, [sp, #24]
	.loc 1 88 0
	strb	lr, [sp, #104]
	.loc 1 91 0
	mov	lr, fp, lsr #7
	.loc 1 90 0
	mov	sl, ip, lsr #7
.LBE1328:
.LBE1340:
.LBB1341:
.LBB1315:
	.loc 1 91 0
	strb	ip, [sp, #91]
.LBE1315:
.LBE1341:
.LBB1342:
.LBB1329:
	orr	ip, lr, ip, asl #1
	.loc 1 96 0
	ldr	lr, [sp, #28]
.LBE1329:
.LBE1342:
.LBB1343:
.LBB1316:
	.loc 1 90 0
	strb	r3, [sp, #90]
.LBE1316:
.LBE1343:
.LBB1344:
.LBB1330:
	orr	r3, sl, r3, asl #1
	strb	r3, [sp, #106]
	.loc 1 95 0
	mov	r3, r2, lsr #7
	.loc 1 97 0
	ldr	r2, [sp, #32]
	.loc 1 96 0
	mov	lr, lr, lsr #7
	str	lr, [sp, #56]
	.loc 1 92 0
	orr	fp, r7, fp, asl #1
	.loc 1 98 0
	ldr	lr, [sp, #36]
	.loc 1 104 0
	mov	r6, r1, asl #1
.LVL217:
	.loc 1 91 0
	strb	ip, [sp, #107]
	.loc 1 97 0
	mov	ip, r2, lsr #7
	.loc 1 99 0
	ldr	r2, [sp, #40]
	.loc 1 104 0
	uxtb	r6, r6
	.loc 1 98 0
	mov	r7, lr, lsr #7
	.loc 1 93 0
	ldr	lr, [sp, #52]
	.loc 1 92 0
	strb	fp, [sp, #108]
	.loc 1 94 0
	mov	sl, r8, lsr #7
	.loc 1 99 0
	mov	fp, r2, lsr #7
	.loc 1 93 0
	orr	r2, lr, r9, asl #1
	.loc 1 100 0
	ldr	lr, [sp, #44]
	.loc 1 95 0
	orr	r8, r3, r8, asl #1
	.loc 1 104 0
	strb	r6, [sp, #119]
.LBE1330:
.LBE1344:
	.loc 1 138 0
	eorne	r6, r6, #120
.LBB1345:
.LBB1317:
	.loc 1 102 0
	strb	r0, [sp, #102]
.LBE1317:
.LBE1345:
.LBB1346:
.LBB1331:
	.loc 1 100 0
	mov	r9, lr, lsr #7
	.loc 1 93 0
	strb	r2, [sp, #109]
.LVL218:
	.loc 1 94 0
	ldr	lr, [sp, #16]
	.loc 1 101 0
	mov	r2, r0, lsr #7
	.loc 1 95 0
	strb	r8, [sp, #111]
	.loc 1 102 0
	mov	r0, r0, asl #1
	.loc 1 96 0
	ldr	r8, [sp, #24]
	.loc 1 102 0
	orr	r0, r0, r1, lsr #7
	.loc 1 94 0
	orr	sl, sl, lr, asl #1
	strb	sl, [sp, #110]
	.loc 1 97 0
	ldr	sl, [sp, #28]
.LBE1331:
.LBE1346:
	.loc 1 138 0
	mvnne	r6, r6
.LBB1347:
.LBB1332:
	.loc 1 96 0
	ldr	r3, [sp, #56]
	.loc 1 102 0
	strb	r0, [sp, #118]
	.loc 1 97 0
	orr	ip, ip, sl, asl #1
	strb	ip, [sp, #113]
	.loc 1 98 0
	ldr	ip, [sp, #32]
	.loc 1 96 0
	orr	lr, r3, r8, asl #1
	.loc 1 100 0
	ldr	r3, [sp, #40]
	.loc 1 96 0
	strb	lr, [sp, #112]
	.loc 1 98 0
	orr	r7, r7, ip, asl #1
	.loc 1 99 0
	ldr	lr, [sp, #36]
	.loc 1 98 0
	strb	r7, [sp, #114]
	.loc 1 100 0
	orr	r9, r9, r3, asl #1
	.loc 1 101 0
	ldr	r7, [sp, #44]
	.loc 1 99 0
	orr	fp, fp, lr, asl #1
	.loc 1 100 0
	strb	r9, [sp, #116]
	.loc 1 99 0
	strb	fp, [sp, #115]
	.loc 1 101 0
	orr	r2, r2, r7, asl #1
	strb	r2, [sp, #117]
.LBE1332:
.LBE1347:
	.loc 1 138 0
	strneb	r6, [sp, #119]
.LBB1348:
.LBB1349:
	.loc 1 47 0
	ldr	r2, [sp, #96]
	.loc 1 48 0
	ldr	r1, [sp, #116]
	ldr	r8, [sp, #100]
	.loc 1 47 0
	ldr	r3, [sp, #112]
.LBE1349:
.LBE1348:
.LBB1357:
.LBB1358:
	ldr	sl, [sp, #8]
.LBE1358:
.LBE1357:
.LBB1372:
.LBB1350:
	.loc 1 48 0
	eor	r8, r8, r1
.LVL219:
.LBE1350:
.LBE1372:
.LBB1373:
.LBB1359:
	ldr	r9, [sp, #20]
.LBE1359:
.LBE1373:
.LBB1374:
.LBB1351:
	.loc 1 47 0
	eor	r3, r2, r3
.LBE1351:
.LBE1374:
.LBB1375:
.LBB1360:
	eor	r3, r3, sl
.LBE1360:
.LBE1375:
.LBB1376:
.LBB1352:
	.loc 1 45 0
	ldr	r2, [sp, #88]
.LBE1352:
.LBE1376:
.LBB1377:
.LBB1361:
	.loc 1 48 0
	eor	r8, r8, r9
	.loc 1 47 0
	str	r3, [sp, #8]
.LBE1361:
.LBE1377:
.LBB1378:
.LBB1353:
	.loc 1 45 0
	ldr	r3, [sp, #104]
.LBE1353:
.LBE1378:
.LBE1394:
.LBE1410:
.LBB1411:
.LBB1412:
.LBB1413:
.LBB1414:
	.loc 1 101 0
	ubfx	lr, r8, #16, #8
.LBE1414:
.LBE1413:
.LBE1412:
.LBE1411:
.LBB1467:
.LBB1395:
.LBB1379:
.LBB1362:
	.loc 1 45 0
	ldr	ip, [sp, #12]
.LBE1362:
.LBE1379:
.LBE1395:
.LBE1467:
.LBB1468:
.LBB1453:
.LBB1428:
.LBB1415:
	.loc 1 102 0
	mov	r7, r8, lsr #24
.LBE1415:
.LBE1428:
.LBE1453:
.LBE1468:
.LBB1469:
.LBB1396:
.LBB1380:
.LBB1354:
	.loc 1 45 0
	eor	r3, r2, r3
	.loc 1 46 0
	ldr	r0, [sp, #92]
.LBE1354:
.LBE1380:
.LBB1381:
.LBB1363:
	.loc 1 45 0
	eor	r3, r3, ip
.LBE1363:
.LBE1381:
.LBB1382:
.LBB1355:
	.loc 1 46 0
	ldr	r1, [sp, #108]
.LBE1355:
.LBE1382:
.LBB1383:
.LBB1364:
	.loc 1 45 0
	str	r3, [sp, #12]
.LBE1364:
.LBE1383:
.LBE1396:
.LBE1469:
.LBB1470:
.LBB1454:
.LBB1429:
.LBB1416:
	.loc 1 100 0
	ubfx	ip, r8, #8, #8
	.loc 1 98 0
	ldr	r3, [sp, #8]
	.loc 1 104 0
	mov	r6, r7, asl #1
.LBE1416:
.LBE1429:
.LBE1454:
.LBE1470:
.LBB1471:
.LBB1397:
.LBB1384:
.LBB1365:
	.loc 1 46 0
	ldr	fp, [sp, #4]
.LBE1365:
.LBE1384:
.LBE1397:
.LBE1471:
.LBB1472:
.LBB1455:
.LBB1430:
.LBB1417:
	.loc 1 102 0
	mov	r7, r7, lsr #7
	orr	r7, r7, lr, asl #1
.LBE1417:
.LBE1430:
.LBE1455:
.LBE1472:
.LBB1473:
.LBB1398:
.LBB1385:
.LBB1356:
	.loc 1 46 0
	eor	r1, r0, r1
.LBE1356:
.LBE1385:
.LBE1398:
.LBE1473:
.LBB1474:
.LBB1456:
.LBB1431:
.LBB1418:
	.loc 1 101 0
	mov	lr, lr, lsr #7
	.loc 1 99 0
	uxtb	r0, r8
.LBE1418:
.LBE1431:
.LBE1456:
.LBE1474:
.LBB1475:
.LBB1399:
.LBB1386:
.LBB1366:
	.loc 1 46 0
	eor	r1, r1, fp
.LBE1366:
.LBE1386:
.LBE1399:
.LBE1475:
.LBB1476:
.LBB1457:
.LBB1432:
.LBB1419:
	.loc 1 101 0
	orr	lr, lr, ip, asl #1
.LBE1419:
.LBE1432:
.LBE1457:
.LBE1476:
.LBB1477:
.LBB1400:
.LBB1387:
.LBB1367:
	.loc 1 46 0
	str	r1, [sp, #4]
.LBE1367:
.LBE1387:
.LBE1400:
.LBE1477:
.LBB1478:
.LBB1458:
.LBB1433:
.LBB1420:
	.loc 1 100 0
	mov	ip, ip, lsr #7
.LBE1420:
.LBE1433:
.LBE1458:
.LBE1478:
.LBB1479:
.LBB1401:
.LBB1388:
.LBB1368:
	.loc 1 48 0
	str	r8, [sp, #84]
.LVL220:
.LBE1368:
.LBE1388:
.LBE1401:
.LBE1479:
.LBB1480:
.LBB1459:
.LBB1434:
.LBB1421:
	.loc 1 98 0
	mov	r1, r3, lsr #24
	.loc 1 95 0
	ldr	r9, [sp, #8]
	.loc 1 97 0
	ubfx	r2, r3, #16, #8
	.loc 1 94 0
	ldr	sl, [sp, #4]
	.loc 1 100 0
	orr	ip, ip, r0, asl #1
	.loc 1 99 0
	mov	r0, r0, lsr #7
	.loc 1 96 0
	ubfx	r3, r3, #8, #8
	.loc 1 99 0
	orr	r0, r0, r1, asl #1
	.loc 1 98 0
	mov	r1, r1, lsr #7
	.loc 1 102 0
	strb	r7, [sp, #118]
	.loc 1 98 0
	orr	r1, r1, r2, asl #1
	.loc 1 95 0
	uxtb	r7, r9
	.loc 1 97 0
	mov	r2, r2, lsr #7
	.loc 1 101 0
	strb	lr, [sp, #117]
	.loc 1 97 0
	orr	r2, r2, r3, asl #1
	.loc 1 94 0
	mov	lr, sl, lsr #24
	.loc 1 96 0
	mov	r3, r3, lsr #7
	.loc 1 90 0
	ldr	fp, [sp, #12]
	.loc 1 96 0
	orr	r3, r3, r7, asl #1
	.loc 1 100 0
	strb	ip, [sp, #116]
	.loc 1 95 0
	mov	r7, r7, lsr #7
	.loc 1 93 0
	ubfx	ip, sl, #16, #8
	.loc 1 99 0
	strb	r0, [sp, #115]
	.loc 1 95 0
	orr	r7, r7, lr, asl #1
	.loc 1 92 0
	ubfx	r0, sl, #8, #8
	.loc 1 94 0
	mov	lr, lr, lsr #7
	.loc 1 98 0
	strb	r1, [sp, #114]
	.loc 1 94 0
	orr	lr, lr, ip, asl #1
	.loc 1 91 0
	uxtb	r1, sl
	.loc 1 93 0
	mov	ip, ip, lsr #7
	.loc 1 97 0
	strb	r2, [sp, #113]
	.loc 1 96 0
	strb	r3, [sp, #112]
	.loc 1 90 0
	mov	r2, fp, lsr #24
	.loc 1 89 0
	ubfx	r3, fp, #16, #8
	.loc 1 95 0
	strb	r7, [sp, #111]
	.loc 1 93 0
	orr	ip, ip, r0, asl #1
	.loc 1 88 0
	ubfx	r7, fp, #8, #8
	.loc 1 92 0
	mov	r0, r0, lsr #7
	.loc 1 94 0
	strb	lr, [sp, #110]
	.loc 1 92 0
	orr	r0, r0, r1, asl #1
.LBE1421:
.LBE1434:
	.loc 1 119 0
	uxtb	lr, fp
.LVL221:
.LBB1435:
.LBB1422:
	.loc 1 91 0
	mov	r1, r1, lsr #7
	.loc 1 92 0
	strb	r0, [sp, #108]
	.loc 1 91 0
	orr	r1, r1, r2, asl #1
	.loc 1 88 0
	mov	r0, r7, lsr #7
	.loc 1 91 0
	strb	r1, [sp, #107]
	.loc 1 90 0
	mov	r2, r2, lsr #7
	.loc 1 89 0
	mov	r1, r3, lsr #7
	.loc 1 104 0
	uxtb	r6, r6
.LBE1422:
.LBE1435:
.LBE1459:
.LBE1480:
.LBB1481:
.LBB1402:
.LBB1389:
.LBB1369:
	.loc 1 47 0
	str	r9, [sp, #80]
.LBE1369:
.LBE1389:
.LBE1402:
.LBE1481:
.LBB1482:
.LBB1460:
.LBB1436:
.LBB1423:
	.loc 1 90 0
	orr	r2, r2, r3, asl #1
.LBE1423:
.LBE1436:
	.loc 1 121 0
	movs	r9, lr, lsr #7
.LBB1437:
.LBB1424:
	.loc 1 90 0
	strb	r2, [sp, #106]
	.loc 1 89 0
	orr	r7, r1, r7, asl #1
	.loc 1 88 0
	orr	lr, r0, lr, asl #1
.LVL222:
	.loc 1 89 0
	strb	r7, [sp, #105]
.LBE1424:
.LBE1437:
.LBE1460:
.LBE1482:
	.loc 1 387 0
	mov	r1, r5
.LBB1483:
.LBB1461:
.LBB1438:
.LBB1425:
	.loc 1 88 0
	strb	lr, [sp, #104]
.LBE1425:
.LBE1438:
.LBE1461:
.LBE1483:
	.loc 1 387 0
	mov	r0, r5
.LBB1484:
.LBB1462:
.LBB1439:
.LBB1426:
	.loc 1 104 0
	strb	r6, [sp, #119]
.LBE1426:
.LBE1439:
	.loc 1 122 0
	eorne	r6, r6, #120
.LBE1462:
.LBE1484:
.LBB1485:
.LBB1403:
.LBB1390:
.LBB1370:
	.loc 1 46 0
	str	sl, [sp, #76]
.LBE1370:
.LBE1390:
.LBE1403:
.LBE1485:
.LBB1486:
.LBB1463:
.LBB1440:
.LBB1441:
	.loc 1 45 0
	ldr	r3, [sp, #104]
.LBE1441:
.LBE1440:
	.loc 1 122 0
	mvnne	r6, r6
.LBB1447:
.LBB1442:
	.loc 1 45 0
	ldr	sl, [sp, #12]
.LBE1442:
.LBE1447:
.LBB1448:
.LBB1427:
	.loc 1 93 0
	strb	ip, [sp, #109]
.LBE1427:
.LBE1448:
	.loc 1 122 0
	strneb	r6, [sp, #119]
.LVL223:
.LBB1449:
.LBB1443:
	.loc 1 45 0
	eor	r3, sl, r3
	.loc 1 47 0
	ldr	r6, [sp, #8]
.LBE1443:
.LBE1449:
.LBE1463:
.LBE1486:
.LBB1487:
.LBB1404:
.LBB1391:
.LBB1371:
	.loc 1 45 0
	str	fp, [sp, #72]
.LBE1371:
.LBE1391:
.LBE1404:
.LBE1487:
.LBB1488:
.LBB1464:
.LBB1450:
.LBB1444:
	.loc 1 46 0
	ldr	ip, [sp, #108]
	ldr	fp, [sp, #4]
.LVL224:
	.loc 1 47 0
	ldr	r2, [sp, #112]
	.loc 1 45 0
	str	r3, [sp, #24]
	.loc 1 46 0
	eor	ip, fp, ip
	.loc 1 48 0
	ldr	r3, [sp, #116]
	.loc 1 47 0
	eor	r2, r6, r2
	.loc 1 46 0
	str	ip, [sp, #28]
	.loc 1 48 0
	eor	r3, r8, r3
.LBE1444:
.LBE1450:
.LBE1464:
.LBE1488:
.LBB1489:
.LBB1490:
	.loc 1 45 0
	ldr	ip, [r5, #0]
.LBE1490:
.LBE1489:
.LBB1494:
.LBB1465:
.LBB1451:
.LBB1445:
	.loc 1 47 0
	str	r2, [sp, #32]
.LBE1445:
.LBE1451:
.LBE1465:
.LBE1494:
.LBB1495:
.LBB1491:
	.loc 1 46 0
	ldr	r2, [r5, #4]
.LBE1491:
.LBE1495:
.LBB1496:
.LBB1466:
.LBB1452:
.LBB1446:
	.loc 1 48 0
	str	r3, [sp, #36]
.LVL225:
.LBE1446:
.LBE1452:
.LBE1466:
.LBE1496:
.LBB1497:
.LBB1492:
	.loc 1 46 0
	ldr	r9, [sp, #28]
	.loc 1 47 0
	ldr	r3, [r5, #8]
	ldr	sl, [sp, #32]
.LVL226:
	.loc 1 46 0
	eor	r2, r2, r9
	.loc 1 45 0
	ldr	r7, [sp, #24]
	.loc 1 48 0
	ldr	fp, [sp, #36]
	.loc 1 46 0
	str	r2, [r5, #4]
	.loc 1 47 0
	eor	r2, r3, sl
	.loc 1 48 0
	ldr	r3, [r5, #12]
	.loc 1 45 0
	eor	ip, ip, r7
	.loc 1 47 0
	str	r2, [r5, #8]
	.loc 1 48 0
	eor	r3, r3, fp
	.loc 1 45 0
	str	ip, [r5, #0]
.LBE1492:
.LBE1497:
	.loc 1 387 0
	ldr	r2, [sp, #48]
.LBB1498:
.LBB1493:
	.loc 1 48 0
	str	r3, [r5, #12]
.LBE1493:
.LBE1498:
	.loc 1 387 0
	bl	aesc_decrypt
.LVL227:
.LBB1499:
.LBB1500:
	.loc 1 45 0
	ldr	r1, [r5, #0]
	.loc 1 46 0
	ldr	r3, [r5, #4]
.LBE1500:
.LBE1499:
.LBB1505:
.LBB1506:
.LBB1507:
	.loc 1 324 0
	cmp	r4, #0
.LBE1507:
.LBE1506:
.LBE1505:
.LBB1546:
.LBB1501:
	.loc 1 47 0
	ldr	r2, [r5, #8]
	.loc 1 45 0
	eor	r1, r1, r7
	.loc 1 46 0
	eor	r3, r3, r9
	stmia	r5, {r1, r3}
	.loc 1 48 0
	ldr	r3, [r5, #12]
.LBE1501:
.LBE1546:
	.loc 1 391 0
	rsb	ip, r4, #16
.LBB1547:
.LBB1535:
.LBB1524:
	.loc 1 321 0
	mov	r1, #0
.LBE1524:
.LBE1535:
.LBE1547:
.LBB1548:
.LBB1502:
	.loc 1 47 0
	eor	r2, r2, sl
	.loc 1 48 0
	eor	r3, r3, fp
.LBE1502:
.LBE1548:
	.loc 1 391 0
	str	ip, [sp, #16]
	add	r6, r5, ip
.LVL228:
.LBB1549:
.LBB1503:
	.loc 1 47 0
	str	r2, [r5, #8]
.LBE1503:
.LBE1549:
.LBB1550:
.LBB1536:
.LBB1525:
	.loc 1 321 0
	str	r1, [sp, #104]
.LBE1525:
.LBE1536:
.LBE1550:
.LBB1551:
.LBB1504:
	.loc 1 48 0
	str	r3, [r5, #12]
.LBE1504:
.LBE1551:
.LBB1552:
.LBB1537:
.LBB1526:
	.loc 1 321 0
	str	r1, [sp, #108]
	str	r1, [sp, #112]
	str	r1, [sp, #116]
.LVL229:
	.loc 1 324 0
	beq	.L261
	rsb	lr, r4, r5
	add	r9, r5, #16
	.loc 1 378 0
	orr	r3, lr, r9
	mov	ip, r4, lsr #2
	tst	r3, #3
	mov	r3, ip, asl #2
	movne	r2, #0
	moveq	r2, #1
	cmp	r4, #3
	movls	r2, #0
	andhi	r2, r2, #1
	eor	r2, r2, #1
	cmp	ip, r1
	orreq	r2, r2, #1
	cmp	r2, r1
	bne	.L262
	add	r7, lr, #12
	add	r0, r5, #12
	add	r1, sp, #100
.LVL230:
.L229:
	add	r2, r2, #1
	.loc 1 325 0
	ldr	fp, [r0, #4]!
	ldr	sl, [r7, #4]!
	cmp	r2, ip
	eor	sl, fp, sl
	str	sl, [r1, #4]!
	bcc	.L229
	cmp	r4, r3
	add	r7, sp, #104
.LVL231:
	addne	r2, r6, r4
	beq	.L230
.L283:
	ldrb	r0, [r2, r3]	@ zero_extendqisi2
	ldrb	r1, [r6, r3]	@ zero_extendqisi2
	eor	r1, r0, r1
	strb	r1, [r7, r3]
	.loc 1 324 0
	add	r3, r3, #1
.LVL232:
	cmp	r4, r3
	bhi	.L283
.LVL233:
.L230:
.LBB1508:
.LBB1509:
	.loc 1 309 0
	ldrb	r0, [sp, #104]	@ zero_extendqisi2
	.loc 1 310 0
	subs	r3, r4, #1
	str	r3, [sp, #20]
	.loc 1 309 0
	mov	sl, r0, lsr #7
.LVL234:
	.loc 1 310 0
	beq	.L305
.LBE1509:
.LBE1508:
.LBE1526:
.LBE1537:
.LBE1552:
.LBB1553:
.LBB1554:
.LBB1555:
	.loc 1 378 0
	sub	r3, r4, #2
.LVL235:
	cmp	r3, #1
	bls	.L306
.LVL236:
.L227:
.LBE1555:
.LBE1554:
.LBE1553:
.LBB1602:
.LBB1538:
.LBB1527:
	ldr	r1, [sp, #20]
.LBB1519:
.LBB1514:
	add	r2, sp, #105
.LBE1514:
.LBE1519:
	.loc 1 327 0
	mov	r3, r7
.L236:
.LBB1520:
.LBB1515:
.LBB1510:
	.loc 1 313 0
	mov	fp, r0, asl #1
	.loc 1 311 0
	ldrb	r0, [r2, #1]	@ zero_extendqisi2
	ldrb	ip, [r3, #1]	@ zero_extendqisi2
.LVL237:
	sub	lr, r1, #3
	cmp	lr, #1
.LBE1510:
	.loc 1 310 0
	sub	lr, r1, #2
.LBB1511:
	.loc 1 311 0
	mov	r9, r0, lsr #7
	.loc 1 313 0
	orr	r1, fp, ip, lsr #7
	orr	ip, r9, ip, asl #1
.LVL238:
	strb	r1, [r2, #-1]
.LVL239:
.LBE1511:
	.loc 1 310 0
	mov	r1, lr
.LBB1512:
	.loc 1 313 0
	strb	ip, [r3, #1]
	add	r2, r2, #2
	.loc 1 378 0
	add	r3, r3, #2
.LVL240:
	bhi	.L236
.LBE1512:
.LBE1515:
.LBE1520:
.LBE1527:
.LBE1538:
.LBE1602:
	.loc 1 313 0
	mov	r2, r3
.LVL241:
.L237:
.LBB1603:
.LBB1539:
.LBB1528:
.LBB1521:
.LBB1516:
	.loc 1 378 0
	add	lr, r2, lr
.LVL242:
.L234:
	mov	r1, r3
.LVL243:
	add	r3, r3, #1
.LVL244:
.LBB1513:
	.loc 1 311 0
	ldrb	ip, [r1, #1]	@ zero_extendqisi2
	.loc 1 313 0
	ldrb	r0, [r1, #0]	@ zero_extendqisi2
	.loc 1 311 0
	mov	r1, ip, lsr #7
	.loc 1 313 0
	orr	r1, r1, r0, asl #1
	strb	r1, [r2], #1
.LVL245:
.LBE1513:
	.loc 1 310 0
	cmp	r2, lr
	bne	.L234
	.loc 1 316 0
	ldr	fp, [sp, #20]
	add	ip, sp, #128
.LBE1516:
.LBE1521:
	.loc 1 329 0
	cmp	r4, #0
.LBB1522:
.LBB1517:
	.loc 1 316 0
	add	r3, ip, fp
.LVL246:
	ldrb	r2, [r3, #-24]	@ zero_extendqisi2
.LVL247:
	orr	sl, sl, r2, asl #1
	strb	sl, [r3, #-24]
.LVL248:
.LBE1517:
.LBE1522:
	.loc 1 329 0
	beq	.L245
	rsb	lr, r4, r5
	add	r9, r5, #16
	mov	ip, r4, lsr #2
.L238:
	add	r3, lr, #16
.LBE1528:
.LBE1539:
.LBE1603:
.LBB1604:
.LBB1587:
.LBB1572:
	.loc 1 378 0
	add	r0, lr, #20
	add	r2, r5, #20
	orr	r1, r3, r9
	cmp	r3, r2
	cmpcc	r9, r0
	mov	r3, ip, asl #2
	movcc	r0, #0
	movcs	r0, #1
	cmp	r4, #3
	movls	r0, #0
	andhi	r0, r0, #1
	tst	r1, #3
	movne	r1, #0
	andeq	r1, r0, #1
	eor	r1, r1, #1
	cmp	ip, #0
	orreq	r1, r1, #1
	cmp	r1, #0
	bne	.L263
	add	lr, lr, #12
	add	r9, sp, #100
.LBE1572:
.LBE1587:
.LBE1604:
.LBB1605:
.LBB1540:
.LBB1529:
	mov	sl, lr
.LVL249:
.L242:
.LBE1529:
.LBE1540:
.LBE1605:
.LBB1606:
.LBB1588:
.LBB1573:
	.loc 1 330 0
	ldr	r0, [r9, #4]!
	add	r1, r1, #1
	ldr	fp, [lr, #4]!
	cmp	r1, ip
	eor	fp, r0, fp
	str	fp, [sl, #4]!
	.loc 1 331 0
	ldr	fp, [r2, #-4]
	eor	r0, r0, fp
	str	r0, [r2, #-4]
	add	r2, r2, #4
	bcc	.L242
	cmp	r4, r3
	beq	.L245
	add	r2, r6, r4
.L282:
.LBE1573:
.LBE1588:
.LBE1606:
.LBB1607:
.LBB1541:
.LBB1530:
	.loc 1 330 0
	ldrb	r0, [r6, r3]	@ zero_extendqisi2
	ldrb	r1, [r7, r3]	@ zero_extendqisi2
	eor	r0, r1, r0
	strb	r0, [r6, r3]
	.loc 1 331 0
	ldrb	r0, [r2, r3]	@ zero_extendqisi2
	eor	r1, r1, r0
	strb	r1, [r2, r3]
	.loc 1 329 0
	add	r3, r3, #1
.LVL250:
	cmp	r4, r3
	bhi	.L282
.LVL251:
.L245:
.LBE1530:
.LBE1541:
.LBE1607:
	.loc 1 393 0
	ldr	r9, [sp, #16]
	.loc 1 397 0
	mov	r0, r5
.LBB1608:
.LBB1609:
	.loc 1 45 0
	ldr	sl, [sp, #12]
.LBE1609:
.LBE1608:
	.loc 1 397 0
	mov	r1, r5
.LBB1612:
.LBB1610:
	.loc 1 46 0
	ldr	fp, [sp, #4]
.LBE1610:
.LBE1612:
	.loc 1 393 0
	ldrb	r3, [r5, r9]	@ zero_extendqisi2
	.loc 1 397 0
	ldr	r2, [sp, #48]
	.loc 1 393 0
	eor	r3, r3, #127
	mvn	r3, r3
	strb	r3, [r5, r9]
.LVL252:
.LBB1613:
.LBB1611:
	.loc 1 46 0
	ldmia	r5, {r3, ip}
	.loc 1 47 0
	ldr	r9, [sp, #8]
	.loc 1 45 0
	eor	r3, r3, sl
	.loc 1 46 0
	eor	ip, ip, fp
	.loc 1 45 0
	str	r3, [r5, #0]
	.loc 1 46 0
	str	ip, [r5, #4]
	.loc 1 47 0
	ldr	r3, [r5, #8]
	.loc 1 48 0
	ldr	ip, [r5, #12]
	.loc 1 47 0
	eor	r3, r3, r9
	str	r3, [r5, #8]
	.loc 1 48 0
	eor	ip, ip, r8
	str	ip, [r5, #12]
.LBE1611:
.LBE1613:
	.loc 1 397 0
	bl	aesc_decrypt
.LVL253:
.LBB1614:
.LBB1615:
	.loc 1 46 0
	ldmia	r5, {r0, r1}
	.loc 1 47 0
	ldr	r3, [r5, #8]
.LBE1615:
.LBE1614:
.LBB1619:
.LBB1589:
.LBB1574:
	.loc 1 324 0
	cmp	r4, #0
.LBE1574:
.LBE1589:
.LBE1619:
.LBB1620:
.LBB1616:
	.loc 1 45 0
	eor	r0, r0, sl
.LBE1616:
.LBE1620:
	.loc 1 401 0
	ldr	sl, [sp, #16]
.LBB1621:
.LBB1617:
	.loc 1 48 0
	ldr	r2, [r5, #12]
	.loc 1 47 0
	eor	r3, r3, r9
	.loc 1 46 0
	eor	r1, r1, fp
	.loc 1 45 0
	str	r0, [r5, #0]
	.loc 1 46 0
	str	r1, [r5, #4]
	.loc 1 48 0
	eor	r8, r2, r8
	.loc 1 47 0
	str	r3, [r5, #8]
.LBE1617:
.LBE1621:
.LBB1622:
.LBB1590:
.LBB1575:
	.loc 1 321 0
	mov	r1, #0
.LBE1575:
.LBE1590:
.LBE1622:
.LBB1623:
.LBB1618:
	.loc 1 48 0
	str	r8, [r5, #12]
.LBE1618:
.LBE1623:
.LBB1624:
.LBB1591:
.LBB1576:
	.loc 1 324 0
	moveq	r9, r4
.LBE1576:
.LBE1591:
.LBE1624:
	.loc 1 401 0
	ldrb	r3, [r5, sl]	@ zero_extendqisi2
.LBB1625:
.LBB1592:
.LBB1577:
	.loc 1 321 0
	str	r1, [sp, #104]
.LBE1577:
.LBE1592:
.LBE1625:
	.loc 1 401 0
	eor	r3, r3, #127
.LBB1626:
.LBB1593:
.LBB1578:
	.loc 1 321 0
	str	r1, [sp, #108]
	str	r1, [sp, #112]
.LBE1578:
.LBE1593:
.LBE1626:
	.loc 1 401 0
	mvn	r3, r3
.LBB1627:
.LBB1594:
.LBB1579:
	.loc 1 321 0
	str	r1, [sp, #116]
.LBE1579:
.LBE1594:
.LBE1627:
	.loc 1 401 0
	strb	r3, [r5, sl]
.LVL254:
.LBB1628:
.LBB1595:
.LBB1580:
	.loc 1 324 0
	moveq	r3, r4
	beq	.L240
	rsb	ip, r4, r5
	mov	sl, r4, lsr #2
.LBE1580:
.LBE1595:
.LBE1628:
.LBB1629:
.LBB1542:
.LBB1531:
	.loc 1 378 0
	orr	r3, r5, ip
	tst	r3, #3
	mov	r3, sl, asl #2
	movne	r2, #0
	moveq	r2, #1
	cmp	r4, #3
	movls	r2, #0
	andhi	r2, r2, #1
	eor	r2, r2, #1
	cmp	sl, #0
	orreq	r2, r2, #1
	cmp	r2, #0
	bne	.L264
	add	ip, ip, #12
	add	r0, r5, #12
	add	r1, sp, #100
.LVL255:
.L247:
	add	r2, r2, #1
	.loc 1 325 0
	ldr	r8, [ip, #4]!
	ldr	lr, [r0, #4]!
	cmp	sl, r2
	eor	lr, r8, lr
	str	lr, [r1, #4]!
	bhi	.L247
	cmp	r4, r3
	beq	.L248
	add	r2, r6, r4
.L281:
.LBE1531:
.LBE1542:
.LBE1629:
.LBB1630:
.LBB1596:
.LBB1581:
	ldrb	r0, [r2, r3]	@ zero_extendqisi2
	ldrb	r1, [r6, r3]	@ zero_extendqisi2
	eor	r1, r0, r1
	strb	r1, [r7, r3]
	.loc 1 324 0
	add	r3, r3, #1
.LVL256:
	cmp	r4, r3
	bhi	.L281
.LVL257:
.L248:
	ldrb	r9, [sp, #104]	@ zero_extendqisi2
	mov	r3, r9, asl #1
	mov	r9, r9, lsr #7
	uxtb	r3, r3
.L240:
.LVL258:
.LBB1556:
.LBB1557:
	.loc 1 310 0
	ldr	fp, [sp, #20]
	cmp	fp, #0
	beq	.L265
	.loc 1 378 0
	sub	sl, fp, #1
	cmp	sl, #1
	bls	.L266
	ldrb	r0, [sp, #104]	@ zero_extendqisi2
	add	r2, sp, #105
.LBE1557:
.LBE1556:
	mov	r1, fp
	.loc 1 327 0
	mov	r3, r7
.LVL259:
.L252:
.LBB1567:
.LBB1562:
.LBB1558:
	.loc 1 313 0
	mov	fp, r0, asl #1
	.loc 1 311 0
	ldrb	r0, [r2, #1]	@ zero_extendqisi2
	ldrb	ip, [r3, #1]	@ zero_extendqisi2
.LVL260:
	sub	lr, r1, #3
	cmp	lr, #1
.LBE1558:
	.loc 1 310 0
	sub	lr, r1, #2
.LBB1559:
	.loc 1 311 0
	mov	r8, r0, lsr #7
	.loc 1 313 0
	orr	r1, fp, ip, lsr #7
.LVL261:
	orr	ip, r8, ip, asl #1
.LVL262:
	strb	r1, [r2, #-1]
.LVL263:
.LBE1559:
	.loc 1 310 0
	mov	r1, lr
.LBB1560:
	.loc 1 313 0
	strb	ip, [r3, #1]
	add	r2, r2, #2
	.loc 1 378 0
	add	r3, r3, #2
.LVL264:
	bhi	.L252
.LVL265:
.L251:
.LBE1560:
	add	lr, r3, lr
	mov	r2, r3
.LVL266:
.L253:
	mov	r1, r2
.LVL267:
	add	r2, r2, #1
.LVL268:
.LBB1561:
	.loc 1 311 0
	ldrb	ip, [r1, #1]	@ zero_extendqisi2
	.loc 1 313 0
	ldrb	r0, [r1, #0]	@ zero_extendqisi2
	.loc 1 311 0
	mov	r1, ip, lsr #7
	.loc 1 313 0
	orr	r1, r1, r0, asl #1
	strb	r1, [r3], #1
.LVL269:
.LBE1561:
	.loc 1 310 0
	cmp	r3, lr
	bne	.L253
	add	ip, sp, #128
	ldr	r3, [sp, #20]
.LVL270:
	add	sl, ip, sl
	add	r2, r7, r3
.LVL271:
	ldrb	r3, [sl, #-23]	@ zero_extendqisi2
	mov	r3, r3, asl #1
	uxtb	r3, r3
.L250:
.LBE1562:
.LBE1567:
	.loc 1 329 0
	cmp	r4, #0
.LBB1568:
.LBB1563:
	.loc 1 316 0
	orr	r3, r3, r9
	strb	r3, [r2, #0]
.LVL272:
.LBE1563:
.LBE1568:
	.loc 1 329 0
	beq	.L259
	rsb	ip, r4, r5
	add	r1, r5, #16
	add	r3, ip, #16
.LBE1581:
.LBE1596:
.LBE1630:
	.loc 1 378 0
	add	lr, ip, #20
	add	r2, r5, #20
	orr	r0, r1, r3
	cmp	r3, r2
	cmpcc	r1, lr
	mov	r9, r4, lsr #2
	movcc	r1, #0
	movcs	r1, #1
	cmp	r4, #3
	movls	r1, #0
	andhi	r1, r1, #1
	tst	r0, #3
	mov	r3, r9, asl #2
	movne	r1, #0
	andeq	r1, r1, #1
	eor	r1, r1, #1
	cmp	r9, #0
	orreq	r1, r1, #1
	cmp	r1, #0
	bne	.L267
	add	ip, ip, #12
	add	r8, sp, #100
.LBB1631:
.LBB1597:
.LBB1582:
.LBB1569:
.LBB1564:
	mov	lr, ip
.LVL273:
.L256:
.LBE1564:
.LBE1569:
.LBE1582:
.LBE1597:
.LBE1631:
	.loc 1 330 0
	ldr	r0, [r8, #4]!
	add	r1, r1, #1
	ldr	sl, [ip, #4]!
	cmp	r1, r9
	eor	sl, r0, sl
	str	sl, [lr, #4]!
	.loc 1 331 0
	ldr	sl, [r2, #-4]
	eor	r0, r0, sl
	str	r0, [r2, #-4]
	add	r2, r2, #4
	bcc	.L256
	cmp	r4, r3
	beq	.L259
	add	r2, r6, r4
.L280:
.LBB1632:
.LBB1598:
.LBB1583:
	.loc 1 330 0
	ldrb	r0, [r6, r3]	@ zero_extendqisi2
	ldrb	r1, [r7, r3]	@ zero_extendqisi2
	eor	r0, r1, r0
	strb	r0, [r6, r3]
	.loc 1 331 0
	ldrb	r0, [r2, r3]	@ zero_extendqisi2
	eor	r1, r1, r0
	strb	r1, [r2, r3]
	.loc 1 329 0
	add	r3, r3, #1
.LVL274:
	cmp	r4, r3
	bhi	.L280
.LVL275:
.L259:
.LBE1583:
.LBE1598:
.LBE1632:
.LBB1633:
.LBB1634:
	.loc 1 45 0
	ldr	lr, [r5, #0]
.LBE1634:
.LBE1633:
	.loc 1 409 0
	movw	r9, #:lower16:__stack_chk_guard
.LBB1640:
.LBB1635:
	.loc 1 46 0
	ldr	ip, [r5, #4]
.LBE1635:
.LBE1640:
	.loc 1 409 0
	movt	r9, #:upper16:__stack_chk_guard
.LBB1641:
.LBB1636:
	.loc 1 47 0
	ldr	r1, [r5, #8]
.LBE1636:
.LBE1641:
	.loc 1 407 0
	mov	r0, r5
.LBB1642:
.LBB1637:
	.loc 1 45 0
	ldr	r4, [sp, #24]
.LVL276:
	.loc 1 48 0
	ldr	r3, [r5, #12]
	.loc 1 46 0
	ldr	r6, [sp, #28]
.LVL277:
	.loc 1 45 0
	eor	lr, lr, r4
	.loc 1 47 0
	ldr	r7, [sp, #32]
.LVL278:
	.loc 1 48 0
	ldr	r8, [sp, #36]
	.loc 1 46 0
	eor	ip, ip, r6
.LBE1637:
.LBE1642:
	.loc 1 407 0
	ldr	r2, [sp, #48]
.LBB1643:
.LBB1638:
	.loc 1 47 0
	eor	r1, r1, r7
	.loc 1 48 0
	eor	r3, r3, r8
	.loc 1 47 0
	str	r1, [r5, #8]
	.loc 1 48 0
	str	r3, [r5, #12]
.LBE1638:
.LBE1643:
	.loc 1 407 0
	mov	r1, r5
.LBB1644:
.LBB1639:
	.loc 1 45 0
	str	lr, [r5, #0]
	.loc 1 46 0
	str	ip, [r5, #4]
.LBE1639:
.LBE1644:
	.loc 1 407 0
	bl	aesc_decrypt
.LVL279:
	.loc 1 409 0
	ldr	r2, [sp, #124]
	ldr	r3, [r9, #0]
.LBB1645:
.LBB1646:
	.loc 1 45 0
	ldr	r0, [r5, #0]
.LBE1646:
.LBE1645:
	.loc 1 409 0
	cmp	r2, r3
.LBB1648:
.LBB1647:
	.loc 1 47 0
	ldmib	r5, {r1, r2}
	.loc 1 48 0
	ldr	r3, [r5, #12]
	.loc 1 45 0
	eor	r0, r0, r4
	.loc 1 46 0
	eor	r1, r1, r6
	.loc 1 47 0
	eor	r2, r2, r7
	.loc 1 48 0
	eor	r3, r3, r8
	.loc 1 45 0
	str	r0, [r5, #0]
	.loc 1 46 0
	str	r1, [r5, #4]
	.loc 1 47 0
	str	r2, [r5, #8]
	.loc 1 48 0
	str	r3, [r5, #12]
.LBE1647:
.LBE1648:
	.loc 1 409 0
	bne	.L307
	add	sp, sp, #132
	ldmfd	sp!, {r4, r5, r6, r7, r8, r9, sl, fp, pc}
.LVL280:
.L306:
	.loc 1 378 0
	ldr	lr, [sp, #20]
	.loc 1 327 0
	mov	r2, r7
	mov	r3, r7
	b	.L237
.LVL281:
.L266:
.LBB1649:
.LBB1599:
.LBB1584:
	.loc 1 378 0
	ldr	lr, [sp, #20]
	.loc 1 327 0
	mov	r3, r7
	b	.L251
.LVL282:
.L305:
.LBE1584:
.LBE1599:
.LBE1649:
.LBB1650:
.LBB1543:
.LBB1532:
.LBB1523:
.LBB1518:
	.loc 1 316 0
	orr	r0, sl, r0, asl #1
	strb	r0, [sp, #104]
.LVL283:
	b	.L238
.LVL284:
.L265:
.LBE1518:
.LBE1523:
.LBE1532:
.LBE1543:
.LBE1650:
.LBB1651:
.LBB1600:
.LBB1585:
.LBB1570:
.LBB1565:
	.loc 1 327 0
	mov	r2, r7
	b	.L250
.LVL285:
.L261:
.LBE1565:
.LBE1570:
.LBE1585:
.LBE1600:
.LBE1651:
.LBB1652:
.LBB1544:
.LBB1533:
	.loc 1 310 0
	mvn	r9, #0
	ldrb	r0, [sp, #104]	@ zero_extendqisi2
	add	r7, sp, #104
.LVL286:
	.loc 1 309 0
	mov	sl, r4
	.loc 1 310 0
	str	r9, [sp, #20]
	b	.L227
.LVL287:
.L267:
	add	r2, r6, r4
.LBE1533:
.LBE1544:
.LBE1652:
.LBB1653:
.LBB1601:
.LBB1586:
.LBB1571:
.LBB1566:
	.loc 1 378 0
	mov	r3, #0
	b	.L280
.LVL288:
.L262:
	add	r7, sp, #104
.LVL289:
	add	r2, r6, r4
.LBE1566:
.LBE1571:
.LBE1586:
.LBE1601:
.LBE1653:
	mov	r3, r1
	b	.L283
.LVL290:
.L264:
	add	r2, r6, r4
.LBB1654:
.LBB1545:
.LBB1534:
	mov	r3, r1
	b	.L281
.LVL291:
.L263:
	add	r2, r6, r4
	mov	r3, #0
	b	.L282
.LVL292:
.L307:
.LBE1534:
.LBE1545:
.LBE1654:
	.loc 1 409 0
	bl	__stack_chk_fail
.LVL293:
	.cfi_endproc
.LFE74:
	.size	xlsinv, .-xlsinv
	.align	2
	.global	crypto_aead_encrypt
	.type	crypto_aead_encrypt, %function
crypto_aead_encrypt:
.LFB75:
	.loc 1 423 0
	.cfi_startproc
	@ args = 36, pretend = 0, frame = 496
	@ frame_needed = 0, uses_anonymous_args = 0
.LVL294:
	stmfd	sp!, {r4, r5, r6, r7, r8, r9, sl, fp, lr}
.LCFI11:
	.cfi_def_cfa_offset 36
	.cfi_offset 4, -36
	.cfi_offset 5, -32
	.cfi_offset 6, -28
	.cfi_offset 7, -24
	.cfi_offset 8, -20
	.cfi_offset 9, -16
	.cfi_offset 10, -12
	.cfi_offset 11, -8
	.cfi_offset 14, -4
	sub	sp, sp, #508
.LCFI12:
	.cfi_def_cfa_offset 544
	.loc 1 440 0
	add	sl, sp, #144
	.loc 1 423 0
	add	r6, sp, #512
	str	r0, [sp, #112]
	movw	r0, #:lower16:__stack_chk_guard
.LVL295:
	movt	r0, #:upper16:__stack_chk_guard
	ldr	ip, [sp, #576]
	mov	r8, r1
	.loc 1 442 0
	add	fp, sp, #512
	.loc 1 423 0
	ldr	r3, [r0, #0]
	.loc 1 431 0
	add	r1, sp, #324
.LVL296:
	mov	r0, ip
	.loc 1 423 0
	ldrd	r4, [r6, #48]
	ldr	r7, [sp, #572]
	.loc 1 435 0
	mov	r6, #0
	.loc 1 423 0
	str	r3, [sp, #500]
.LVL297:
	ldr	r9, [sp, #552]
	str	r2, [sp, #116]
	.loc 1 431 0
	bl	aesc_keyexp
.LVL298:
	.loc 1 440 0
	mov	r1, sl
	add	r2, sp, #324
	mov	r0, sl
	.loc 1 435 0
	str	r6, [sp, #208]
	str	r6, [sp, #212]
	str	r6, [sp, #216]
	str	r6, [sp, #220]
	.loc 1 437 0
	str	r6, [sp, #144]
	str	r6, [sp, #148]
	str	r6, [sp, #152]
	str	r6, [sp, #156]
	.loc 1 440 0
	bl	aesc_encrypt
.LVL299:
	.loc 1 442 0
	ldrd	r2, [fp, #32]
	.loc 1 445 0
	add	r0, r4, #16
	.loc 1 442 0
	adds	r2, r2, #16
	adc	r3, r3, #0
	strd	r2, [r8]
	.loc 1 445 0
	bl	malloc
.LVL300:
.LBB1780:
.LBB1781:
	.file 2 "/usr/include/arm-linux-gnueabihf/bits/string3.h"
	.loc 2 51 0
	mov	r1, r9
	mov	r2, r4
.LBE1781:
.LBE1780:
	.loc 1 445 0
	mov	r8, r0
.LVL301:
.LBB1783:
.LBB1782:
	.loc 2 51 0
	bl	memcpy
.LVL302:
.LBE1782:
.LBE1783:
.LBB1784:
.LBB1785:
	ldr	r9, [r7, #4]	@ unaligned
.LVL303:
.LBE1785:
.LBE1784:
	.loc 1 447 0
	add	ip, r8, r4
.LBB1791:
.LBB1786:
	.loc 2 51 0
	ldr	lr, [r7, #8]	@ unaligned
.LBE1786:
.LBE1791:
	.loc 1 448 0
	adds	r2, r4, #16
.LBB1792:
.LBB1787:
	.loc 2 51 0
	ldr	fp, [r7, #0]	@ unaligned
.LBE1787:
.LBE1792:
	.loc 1 448 0
	adc	r3, r5, #0
.LBB1793:
.LBB1788:
	.loc 2 51 0
	ldr	r4, [r7, #12]	@ unaligned
.LVL304:
.LBE1788:
.LBE1793:
	.loc 1 448 0
	mov	r1, r8
	str	sl, [sp, #0]
	add	r0, sp, #128
	add	r5, sp, #324
	str	r5, [sp, #4]
.LBB1794:
.LBB1789:
	.loc 2 51 0
	str	r9, [ip, #4]	@ unaligned
.LBE1789:
.LBE1794:
	.loc 1 450 0
	add	r9, sp, #512
.LVL305:
.LBB1795:
.LBB1790:
	.loc 2 51 0
	str	fp, [ip, #0]	@ unaligned
	str	lr, [ip, #8]	@ unaligned
	str	r4, [ip, #12]	@ unaligned
.LBE1790:
.LBE1795:
	.loc 1 448 0
	bl	mac
.LVL306:
	.loc 1 449 0
	mov	r0, r8
	bl	free
.LVL307:
	.loc 1 450 0
	ldrd	r8, [r9, #32]
.LVL308:
	cmp	r9, #0
	it eq
	cmpeq	r8, #15
	bls	.L411
.LVL309:
.LBB1796:
.LBB1797:
.LBB1798:
.LBB1799:
	.loc 1 90 0
	ldrb	r0, [sp, #147]	@ zero_extendqisi2
.LBE1799:
.LBE1798:
.LBE1797:
.LBE1796:
.LBB1899:
.LBB1900:
	.loc 1 45 0
	movw	r5, #65176
.LBE1900:
.LBE1899:
.LBB1916:
.LBB1872:
.LBB1826:
.LBB1800:
	.loc 1 89 0
	ldrb	ip, [sp, #146]	@ zero_extendqisi2
.LBE1800:
.LBE1826:
.LBE1872:
.LBE1916:
.LBB1917:
.LBB1901:
	.loc 1 45 0
	movt	r5, 65535
.LBE1901:
.LBE1917:
.LBB1918:
.LBB1873:
.LBB1827:
.LBB1801:
	.loc 1 91 0
	ldrb	r1, [sp, #148]	@ zero_extendqisi2
.LBE1801:
.LBE1827:
.LBE1873:
.LBE1918:
.LBB1919:
.LBB1920:
	.loc 1 45 0
	movw	r4, #65184
.LBE1920:
.LBE1919:
.LBB2552:
.LBB1874:
.LBB1828:
.LBB1802:
	.loc 1 90 0
	mov	sl, r0, lsr #7
.LVL310:
	str	sl, [sp, #16]
	.loc 1 98 0
	ldrb	sl, [sp, #155]	@ zero_extendqisi2
	.loc 1 89 0
	mov	r8, ip, lsr #7
	.loc 1 96 0
	ldrb	r2, [sp, #153]	@ zero_extendqisi2
	.loc 1 91 0
	mov	fp, r1, lsr #7
	.loc 1 89 0
	str	r8, [sp, #44]
.LBE1802:
.LBE1828:
.LBE1874:
.LBE2552:
.LBB2553:
.LBB2545:
	.loc 1 45 0
	movt	r4, 65535
.LBE2545:
.LBE2553:
.LBB2554:
.LBB1875:
.LBB1829:
.LBB1803:
	.loc 1 94 0
	ldrb	r8, [sp, #151]	@ zero_extendqisi2
	.loc 1 92 0
	ldrb	r9, [sp, #149]	@ zero_extendqisi2
.LVL311:
	.loc 1 88 0
	ldrb	lr, [sp, #145]	@ zero_extendqisi2
	.loc 1 98 0
	str	sl, [sp, #24]
	.loc 1 91 0
	str	fp, [sp, #28]
	.loc 1 94 0
	mov	fp, r8, lsr #7
	str	fp, [sp, #12]
	.loc 1 96 0
	mov	fp, r2, lsr #7
	str	fp, [sp, #40]
	.loc 1 88 0
	mov	r6, lr, lsr #7
	.loc 1 98 0
	ldr	fp, [sp, #24]
	.loc 1 92 0
	mov	r3, r9, lsr #7
	.loc 1 88 0
	str	r6, [sp, #48]
	.loc 1 92 0
	str	r3, [sp, #20]
	.loc 1 95 0
	ldrb	r6, [sp, #152]	@ zero_extendqisi2
	.loc 1 98 0
	mov	fp, fp, lsr #7
	.loc 1 97 0
	ldrb	r3, [sp, #154]	@ zero_extendqisi2
	.loc 1 98 0
	str	fp, [sp, #80]
.LBE1803:
.LBE1829:
.LBE1875:
.LBE2554:
.LBB2555:
.LBB1902:
	.loc 1 67 0
	add	fp, sp, #504
.LBE1902:
.LBE2555:
.LBB2556:
.LBB1876:
.LBB1830:
.LBB1804:
	.loc 1 95 0
	mov	sl, r6, lsr #7
	str	sl, [sp, #32]
	.loc 1 97 0
	mov	sl, r3, lsr #7
	str	sl, [sp, #72]
.LBE1804:
.LBE1830:
.LBE1876:
.LBE2556:
.LBB2557:
.LBB1903:
	.loc 1 67 0
	ldrd	sl, [fp, r5]
.LBE1903:
.LBE2557:
.LBB2558:
.LBB1877:
.LBB1831:
.LBB1805:
	.loc 1 93 0
	ldrb	r7, [sp, #150]	@ zero_extendqisi2
.LVL312:
	.loc 1 90 0
	ldr	r5, [sp, #16]
.LBE1805:
.LBE1831:
.LBE1877:
.LBE2558:
.LBB2559:
.LBB1904:
	.loc 1 67 0
	strd	sl, [sp, #64]
.LBE1904:
.LBE2559:
.LBB2560:
.LBB2546:
	.loc 1 45 0
	add	fp, sp, #504
.LBE2546:
.LBE2560:
.LBB2561:
.LBB1878:
.LBB1832:
.LBB1806:
	.loc 1 93 0
	str	r7, [sp, #76]
	mov	r7, r7, lsr #7
.LBE1806:
.LBE1832:
.LBE1878:
.LBE2561:
.LBB2562:
.LBB2547:
	.loc 1 45 0
	ldrd	sl, [fp, r4]
.LBE2547:
.LBE2562:
.LBB2563:
.LBB1879:
.LBB1833:
.LBB1807:
	.loc 1 90 0
	orr	ip, r5, ip, asl #1
	.loc 1 89 0
	ldr	r4, [sp, #44]
	.loc 1 93 0
	str	r7, [sp, #84]
	.loc 1 90 0
	uxtb	ip, ip
.LBE1807:
.LBE1833:
.LBE1879:
.LBE2563:
.LBB2564:
.LBB2548:
	.loc 1 45 0
	strd	sl, [sp, #56]
.LBE2548:
.LBE2564:
.LBB2565:
.LBB1880:
.LBB1834:
.LBB1808:
	.loc 1 89 0
	orr	lr, r4, lr, asl #1
	.loc 1 91 0
	ldr	sl, [sp, #28]
	.loc 1 92 0
	ldr	fp, [sp, #20]
	.loc 1 89 0
	uxtb	lr, lr
	.loc 1 91 0
	orr	r0, sl, r0, asl #1
	.loc 1 94 0
	ldr	sl, [sp, #76]
	.loc 1 93 0
	ldr	r4, [sp, #84]
	.loc 1 92 0
	orr	r1, fp, r1, asl #1
	.loc 1 94 0
	ldr	r5, [sp, #12]
	.loc 1 91 0
	uxtb	r0, r0
	.loc 1 93 0
	orr	fp, r4, r9, asl #1
	.loc 1 95 0
	ldr	r4, [sp, #32]
	.loc 1 94 0
	orr	r9, r5, sl, asl #1
	.loc 1 96 0
	ldr	r5, [sp, #40]
	.loc 1 95 0
	orr	sl, r4, r8, asl #1
	.loc 1 98 0
	ldr	r4, [sp, #80]
	.loc 1 96 0
	orr	r8, r5, r6, asl #1
	.loc 1 97 0
	ldr	r6, [sp, #72]
.LBE1808:
.LBE1834:
	.loc 1 119 0
	ldrb	r7, [sp, #144]	@ zero_extendqisi2
.LBB1835:
.LBB1809:
	.loc 1 98 0
	orr	r3, r4, r3, asl #1
	.loc 1 97 0
	orr	r2, r6, r2, asl #1
	.loc 1 88 0
	ldr	r5, [sp, #48]
	.loc 1 92 0
	uxtb	r1, r1
	.loc 1 89 0
	str	lr, [sp, #48]
	.loc 1 94 0
	uxtb	r9, r9
	.loc 1 96 0
	uxtb	r8, r8
	.loc 1 91 0
	str	r0, [sp, #16]
	.loc 1 93 0
	uxtb	fp, fp
	.loc 1 92 0
	str	r1, [sp, #28]
	.loc 1 97 0
	uxtb	r2, r2
	.loc 1 91 0
	strb	r0, [sp, #291]
.LBE1809:
.LBE1835:
.LBE1880:
.LBE2565:
.LBB2566:
.LBB1905:
	.loc 1 67 0
	movw	r4, #65272
.LBE1905:
.LBE2566:
.LBB2567:
.LBB1881:
.LBB1836:
.LBB1810:
	.loc 1 92 0
	strb	r1, [sp, #292]
.LBE1810:
.LBE1836:
.LBE1881:
.LBE2567:
.LBB2568:
.LBB1906:
	.loc 1 67 0
	movt	r4, 65535
	ldrd	r0, [sp, #56]
.LBE1906:
.LBE2568:
.LBB2569:
.LBB1882:
.LBB1837:
.LBB1811:
	.loc 1 88 0
	orr	r6, r5, r7, asl #1
	.loc 1 94 0
	str	r9, [sp, #12]
.LBE1811:
.LBE1837:
.LBE1882:
.LBE2569:
.LBB2570:
.LBB1907:
	.loc 1 67 0
	mvn	r5, #255
.LBE1907:
.LBE2570:
.LBB2571:
.LBB1883:
.LBB1838:
.LBB1812:
	.loc 1 94 0
	strb	r9, [sp, #294]
	.loc 1 88 0
	uxtb	r6, r6
	.loc 1 96 0
	str	r8, [sp, #32]
	strb	r8, [sp, #296]
.LBE1812:
.LBE1838:
.LBE1883:
.LBE2571:
.LBB2572:
.LBB1908:
	.loc 1 67 0
	ldrd	r8, [sp, #64]
.LBE1908:
.LBE2572:
.LBB2573:
.LBB1884:
.LBB1839:
.LBB1813:
	.loc 1 90 0
	str	ip, [sp, #44]
	strb	ip, [sp, #290]
.LBE1813:
.LBE1839:
.LBE1884:
.LBE2573:
.LBB2574:
.LBB1909:
	.loc 1 67 0
	add	ip, sp, #504
.LBE1909:
.LBE2574:
.LBB2575:
.LBB1885:
.LBB1840:
.LBB1814:
	.loc 1 93 0
	str	fp, [sp, #20]
	strb	fp, [sp, #293]
	.loc 1 95 0
	uxtb	fp, sl
	.loc 1 97 0
	str	r2, [sp, #40]
	.loc 1 98 0
	uxtb	sl, r3
	.loc 1 97 0
	strb	r2, [sp, #297]
.LBE1814:
.LBE1840:
.LBE1885:
.LBE2575:
.LBB2576:
.LBB1910:
	.loc 1 45 0
	ldr	r3, [sp, #128]
	ldr	r2, [sp, #144]
	.loc 1 67 0
	strd	r8, [ip, r4]
.LBE1910:
.LBE2576:
.LBB2577:
	.loc 1 119 0
	bic	r9, r7, #127
.LBE2577:
.LBB2578:
.LBB1911:
	.loc 1 67 0
	strd	r0, [ip, r5]
	.loc 1 45 0
	eor	r3, r2, r3
	.loc 1 46 0
	ldr	ip, [sp, #148]
.LBE1911:
.LBE2578:
.LBB2579:
.LBB1886:
	.loc 1 121 0
	ands	r9, r9, #255
.LBB1841:
.LBB1815:
	.loc 1 89 0
	strb	lr, [sp, #289]
.LBE1815:
.LBE1841:
.LBE1886:
.LBE2579:
.LBB2580:
.LBB1912:
	.loc 1 46 0
	ldr	r1, [sp, #132]
	.loc 1 47 0
	ldr	lr, [sp, #152]
	.loc 1 45 0
	str	r3, [sp, #80]
	.loc 1 46 0
	eor	r1, ip, r1
	.loc 1 47 0
	ldr	r3, [sp, #136]
	.loc 1 48 0
	ldr	r8, [sp, #156]
	.loc 1 47 0
	eor	r3, lr, r3
.LBE1912:
.LBE2580:
.LBB2581:
.LBB1887:
.LBB1842:
.LBB1816:
	.loc 1 95 0
	strb	fp, [sp, #295]
	.loc 1 88 0
	strb	r6, [sp, #288]
.LBE1816:
.LBE1842:
	.loc 1 121 0
	str	r9, [sp, #72]
.LBE1887:
.LBE2581:
.LBB2582:
.LBB1913:
	.loc 1 46 0
	str	r1, [sp, #84]
	.loc 1 47 0
	str	r3, [sp, #88]
	.loc 1 48 0
	ldr	r1, [sp, #140]
.LBE1913:
.LBE2582:
.LBB2583:
.LBB1888:
.LBB1843:
.LBB1817:
	.loc 1 98 0
	strb	sl, [sp, #298]
	.loc 1 100 0
	ldrb	r0, [sp, #157]	@ zero_extendqisi2
.LBE1817:
.LBE1843:
.LBE1888:
.LBE2583:
.LBB2584:
.LBB1914:
	.loc 1 48 0
	eor	r1, r8, r1
.LBE1914:
.LBE2584:
.LBB2585:
.LBB1889:
.LBB1844:
.LBB1818:
	.loc 1 99 0
	ldrb	r4, [sp, #156]	@ zero_extendqisi2
	.loc 1 102 0
	ldrb	r3, [sp, #159]	@ zero_extendqisi2
	.loc 1 100 0
	mov	r7, r0, lsr #7
	.loc 1 99 0
	ldr	r9, [sp, #24]
.LBE1818:
.LBE1844:
.LBE1889:
.LBE2585:
.LBB2586:
.LBB1915:
	.loc 1 48 0
	str	r1, [sp, #92]
.LVL313:
.LBE1915:
.LBE2586:
.LBB2587:
.LBB1890:
.LBB1845:
.LBB1819:
	.loc 1 99 0
	mov	r5, r4, lsr #7
	.loc 1 101 0
	ldrb	r1, [sp, #158]	@ zero_extendqisi2
	.loc 1 100 0
	orr	r4, r7, r4, asl #1
	.loc 1 102 0
	mov	r7, r3, lsr #7
	.loc 1 104 0
	mov	r3, r3, asl #1
	.loc 1 99 0
	orr	r5, r5, r9, asl #1
	.loc 1 100 0
	uxtb	r4, r4
	.loc 1 104 0
	uxtb	r3, r3
	.loc 1 101 0
	mov	r9, r1, lsr #7
	.loc 1 102 0
	orr	r1, r7, r1, asl #1
.LBE1819:
.LBE1845:
	.loc 1 122 0
	eorne	r7, r3, #120
.LBB1846:
.LBB1820:
	.loc 1 104 0
	strb	r3, [sp, #303]
	.loc 1 101 0
	orr	r0, r9, r0, asl #1
.LBE1820:
.LBE1846:
	.loc 1 122 0
	mvnne	r7, r7
	strneb	r7, [sp, #303]
.LVL314:
.LBE1890:
.LBE2587:
.LBB2588:
.LBB2589:
	.loc 1 111 0
	ldr	r7, [sp, #72]
.LBE2589:
.LBE2588:
.LBB2613:
.LBB1891:
.LBB1847:
.LBB1821:
	.loc 1 99 0
	uxtb	r5, r5
.LBE1821:
.LBE1847:
.LBB1848:
.LBB1849:
	.loc 1 46 0
	ldr	r9, [sp, #292]
.LBE1849:
.LBE1848:
.LBB1859:
.LBB1822:
	.loc 1 101 0
	uxtb	r0, r0
.LBE1822:
.LBE1859:
.LBE1891:
.LBE2613:
.LBB2614:
.LBB2604:
	.loc 1 111 0
	cmp	r7, #0
.LBE2604:
.LBE2614:
.LBB2615:
.LBB1892:
.LBB1860:
.LBB1850:
	.loc 1 45 0
	ldr	r7, [sp, #288]
.LBE1850:
.LBE1860:
.LBB1861:
.LBB1823:
	.loc 1 99 0
	strb	r5, [sp, #299]
	.loc 1 102 0
	uxtb	r1, r1
	.loc 1 100 0
	strb	r4, [sp, #300]
.LBE1823:
.LBE1861:
.LBB1862:
.LBB1851:
	.loc 1 46 0
	eor	ip, ip, r9
.LBE1851:
.LBE1862:
.LBB1863:
.LBB1824:
	.loc 1 101 0
	strb	r0, [sp, #301]
.LBE1824:
.LBE1863:
.LBB1864:
.LBB1852:
	.loc 1 45 0
	eor	r2, r2, r7
.LBE1852:
.LBE1864:
.LBE1892:
.LBE2615:
.LBB2616:
.LBB2605:
.LBB2590:
.LBB2591:
	.loc 1 89 0
	ldr	r9, [sp, #48]
.LBE2591:
.LBE2590:
	.loc 1 112 0
	eorne	r3, r3, #120
.LBE2605:
.LBE2616:
.LBB2617:
.LBB1893:
.LBB1865:
.LBB1825:
	.loc 1 102 0
	strb	r1, [sp, #302]
.LBE1825:
.LBE1865:
.LBB1866:
.LBB1853:
	.loc 1 48 0
	ldr	r7, [sp, #300]
.LBE1853:
.LBE1866:
.LBE1893:
.LBE2617:
.LBB2618:
.LBB2606:
	.loc 1 112 0
	mvnne	r3, r3
.LBB2598:
.LBB2592:
	.loc 1 88 0
	strb	r6, [sp, #224]
.LBE2592:
.LBE2598:
.LBE2606:
.LBE2618:
.LBB2619:
.LBB1894:
.LBB1867:
.LBB1854:
	.loc 1 47 0
	ldr	r6, [sp, #296]
	.loc 1 48 0
	eor	r8, r8, r7
.LBE1854:
.LBE1867:
.LBE1894:
.LBE2619:
.LBB2620:
.LBB2607:
.LBB2599:
.LBB2593:
	.loc 1 89 0
	strb	r9, [sp, #225]
	.loc 1 91 0
	ldr	r7, [sp, #16]
.LBE2593:
.LBE2599:
.LBE2607:
.LBE2620:
.LBB2621:
.LBB1895:
.LBB1868:
.LBB1855:
	.loc 1 47 0
	eor	lr, lr, r6
.LBE1855:
.LBE1868:
.LBE1895:
.LBE2621:
.LBB2622:
.LBB2608:
.LBB2600:
.LBB2594:
	.loc 1 92 0
	ldr	r9, [sp, #28]
	.loc 1 90 0
	ldr	r6, [sp, #44]
	.loc 1 91 0
	strb	r7, [sp, #227]
	.loc 1 92 0
	strb	r9, [sp, #228]
	.loc 1 94 0
	ldr	r7, [sp, #12]
	.loc 1 96 0
	ldr	r9, [sp, #32]
	.loc 1 90 0
	strb	r6, [sp, #226]
	.loc 1 95 0
	strb	fp, [sp, #231]
	.loc 1 93 0
	ldr	r6, [sp, #20]
	.loc 1 97 0
	ldr	fp, [sp, #40]
	.loc 1 94 0
	strb	r7, [sp, #230]
	.loc 1 93 0
	strb	r6, [sp, #229]
	.loc 1 96 0
	strb	r9, [sp, #232]
	.loc 1 97 0
	strb	fp, [sp, #233]
	.loc 1 99 0
	strb	r5, [sp, #235]
.LBE2594:
.LBE2600:
.LBE2608:
.LBE2622:
	.loc 1 415 0
	add	r5, sp, #512
.LVL315:
.LBB2623:
.LBB2609:
.LBB2601:
.LBB2595:
	.loc 1 100 0
	strb	r4, [sp, #236]
.LBE2595:
.LBE2601:
.LBE2609:
.LBE2623:
	.loc 1 415 0
	ldrd	r4, [r5, #32]
.LBB2624:
.LBB1896:
.LBB1869:
.LBB1856:
	.loc 1 45 0
	str	r2, [sp, #192]
	.loc 1 46 0
	str	ip, [sp, #196]
.LBE1856:
.LBE1869:
.LBE1896:
.LBE2624:
	.loc 1 415 0
	strd	r4, [sp, #48]
	ldrb	r6, [sp, #193]	@ zero_extendqisi2
	ldrb	r5, [sp, #198]	@ zero_extendqisi2
.LVL316:
	ldrb	r7, [sp, #194]	@ zero_extendqisi2
	ldrb	r9, [sp, #195]	@ zero_extendqisi2
	ldrb	fp, [sp, #197]	@ zero_extendqisi2
.LBB2625:
.LBB2610:
.LBB2602:
.LBB2596:
	.loc 1 98 0
	strb	sl, [sp, #234]
.LBE2596:
.LBE2602:
.LBE2610:
.LBE2625:
.LBB2626:
.LBB1897:
.LBB1870:
.LBB1857:
	.loc 1 48 0
	str	r8, [sp, #204]
.LVL317:
	ldrb	sl, [sp, #196]	@ zero_extendqisi2
.LBE1857:
.LBE1870:
.LBE1897:
.LBE2626:
.LBB2627:
.LBB2611:
	.loc 1 112 0
	strb	r3, [sp, #239]
	str	r6, [sp, #16]
	ldrb	r3, [sp, #192]	@ zero_extendqisi2
	ldrb	r6, [sp, #199]	@ zero_extendqisi2
	str	r5, [sp, #32]
	ldrb	r5, [sp, #204]	@ zero_extendqisi2
.LBE2611:
.LBE2627:
.LBB2628:
.LBB1898:
.LBB1871:
.LBB1858:
	.loc 1 47 0
	str	lr, [sp, #200]
.LBE1858:
.LBE1871:
.LBE1898:
.LBE2628:
	.loc 1 415 0
	ldr	r4, [sp, #116]
	str	r3, [sp, #44]
	str	r7, [sp, #28]
	str	r9, [sp, #72]
	ldrb	r7, [sp, #203]	@ zero_extendqisi2
	ldrb	r9, [sp, #202]	@ zero_extendqisi2
	ldr	r3, [sp, #112]
	str	sl, [sp, #20]
	str	fp, [sp, #12]
	ldrb	sl, [sp, #200]	@ zero_extendqisi2
	ldrb	fp, [sp, #201]	@ zero_extendqisi2
	str	r6, [sp, #40]
.LBB2629:
.LBB2612:
.LBB2603:
.LBB2597:
	.loc 1 101 0
	strb	r0, [sp, #237]
	.loc 1 102 0
	strb	r1, [sp, #238]
	str	r5, [sp, #24]
	ldrb	r6, [sp, #206]	@ zero_extendqisi2
	ldrb	r5, [sp, #205]	@ zero_extendqisi2
	str	sl, [sp, #56]
	mov	sl, r4
	str	fp, [sp, #64]
	mov	r4, r7
	ldr	fp, [sp, #72]
	mov	r7, r6
	str	r9, [sp, #72]
	mov	r6, r5
	mov	r9, r3
	b	.L349
.LVL318:
.L345:
.LBE2597:
.LBE2603:
.LBE2612:
.LBE2629:
	.loc 1 481 0
	subs	r0, r0, #16
	.loc 1 459 0
	mov	r2, #15
	.loc 1 481 0
	sbc	r1, r1, #0
	.loc 1 459 0
	mov	r3, #0
	cmp	r3, r1
	it eq
	cmpeq	r2, r0
	.loc 1 481 0
	strd	r0, [sp, #48]
	.loc 1 479 0
	add	sl, sl, #16
.LVL319:
	.loc 1 480 0
	add	r9, r9, #16
.LVL320:
	.loc 1 459 0
	bcs	.L348
	add	r2, sp, #192
.LVL321:
	ldr	r8, [sp, #204]
	ldmia	r2, {r2, ip, lr}
.LVL322:
.L349:
.LBB2630:
.LBB2631:
	.loc 1 45 0
	ldr	r5, [sp, #208]
.LBE2631:
.LBE2630:
	.loc 1 464 0
	add	r0, sp, #256
.LBB2639:
.LBB2632:
	.loc 1 45 0
	ldr	r3, [sl, #0]
.LBE2632:
.LBE2639:
	.loc 1 464 0
	mov	r1, r0
.LBB2640:
.LBB2641:
	.loc 1 45 0
	eor	r2, r2, r3
.LBE2641:
.LBE2640:
.LBB2648:
.LBB2633:
	eor	r3, r5, r3
	.loc 1 46 0
	ldr	r5, [sp, #212]
	.loc 1 45 0
	str	r3, [sp, #208]
	.loc 1 46 0
	ldr	r3, [sl, #4]
.LBE2633:
.LBE2648:
.LBB2649:
.LBB2642:
	.loc 1 45 0
	str	r2, [sp, #256]
.LBE2642:
.LBE2649:
	.loc 1 464 0
	add	r2, sp, #324
.LBB2650:
.LBB2643:
	.loc 1 46 0
	eor	ip, ip, r3
.LBE2643:
.LBE2650:
.LBB2651:
.LBB2634:
	eor	r3, r5, r3
.LBE2634:
.LBE2651:
.LBB2652:
.LBB2644:
	str	ip, [sp, #260]
.LBE2644:
.LBE2652:
.LBB2653:
.LBB2635:
	str	r3, [sp, #212]
	.loc 1 47 0
	ldr	ip, [sp, #216]
	ldr	r3, [sl, #8]
.LBE2635:
.LBE2653:
.LBB2654:
.LBB2645:
	eor	lr, lr, r3
.LBE2645:
.LBE2654:
.LBB2655:
.LBB2636:
	eor	ip, ip, r3
	.loc 1 48 0
	ldr	r3, [sl, #12]
	.loc 1 47 0
	str	ip, [sp, #216]
	.loc 1 48 0
	ldr	ip, [sp, #220]
.LBE2636:
.LBE2655:
.LBB2656:
.LBB2646:
	eor	r8, r8, r3
	.loc 1 47 0
	str	lr, [sp, #264]
.LBE2646:
.LBE2656:
.LBB2657:
.LBB2637:
	.loc 1 48 0
	eor	r3, ip, r3
.LBE2637:
.LBE2657:
.LBB2658:
.LBB2647:
	str	r8, [sp, #268]
.LBE2647:
.LBE2658:
.LBB2659:
.LBB2638:
	str	r3, [sp, #220]
.LVL323:
.LBE2638:
.LBE2659:
	.loc 1 464 0
	bl	aesc_encrypt
.LVL324:
.LBB2660:
.LBB2661:
	.loc 1 45 0
	ldr	r2, [sp, #256]
.LBE2661:
.LBE2660:
	.loc 1 468 0
	add	r0, sp, #256
.LVL325:
.LBB2666:
.LBB2662:
	.loc 1 45 0
	ldr	r8, [sp, #80]
	.loc 1 47 0
	ldr	ip, [sp, #264]
.LBE2662:
.LBE2666:
	.loc 1 468 0
	mov	r1, r0
.LBB2667:
.LBB2663:
	.loc 1 45 0
	eor	r8, r8, r2
	str	r8, [sp, #80]
	str	r8, [sp, #256]
.LBE2663:
.LBE2667:
	.loc 1 468 0
	add	r2, sp, #324
.LBB2668:
.LBB2664:
	.loc 1 47 0
	ldr	r8, [sp, #88]
	.loc 1 46 0
	ldr	lr, [sp, #260]
	.loc 1 48 0
	ldr	r3, [sp, #268]
	.loc 1 47 0
	eor	r8, r8, ip
	.loc 1 46 0
	ldr	r5, [sp, #84]
	.loc 1 48 0
	ldr	ip, [sp, #92]
	.loc 1 46 0
	eor	r5, r5, lr
	.loc 1 47 0
	str	r8, [sp, #88]
	.loc 1 48 0
	eor	ip, ip, r3
	.loc 1 46 0
	str	r5, [sp, #84]
	str	r5, [sp, #260]
.LBE2664:
.LBE2668:
.LBB2669:
.LBB2670:
.LBB2671:
.LBB2672:
	.loc 1 100 0
	mov	r5, r6, lsr #7
.LBE2672:
.LBE2671:
.LBE2670:
.LBE2669:
.LBB2718:
.LBB2665:
	.loc 1 48 0
	str	ip, [sp, #92]
	.loc 1 47 0
	str	r8, [sp, #264]
	.loc 1 48 0
	str	ip, [sp, #268]
.LVL326:
.LBE2665:
.LBE2718:
	.loc 1 468 0
	bl	aesc_encrypt
.LVL327:
.LBB2719:
.LBB2705:
.LBB2689:
.LBB2673:
	.loc 1 102 0
	ldrb	r3, [sp, #207]	@ zero_extendqisi2
	.loc 1 101 0
	mov	r1, r7, lsr #7
	orr	r6, r1, r6, asl #1
	str	r6, [sp, #76]
	.loc 1 99 0
	ldr	r8, [sp, #24]
	.loc 1 98 0
	mov	lr, r4, lsr #7
	.loc 1 102 0
	mov	r6, r3, lsr #7
	.loc 1 104 0
	mov	r3, r3, asl #1
	.loc 1 102 0
	orr	r6, r6, r7, asl #1
	.loc 1 96 0
	ldr	r7, [sp, #64]
	.loc 1 99 0
	mov	r2, r8, lsr #7
	.loc 1 97 0
	ldr	r8, [sp, #72]
	.loc 1 99 0
	orr	r4, r2, r4, asl #1
	.loc 1 104 0
	uxtb	r3, r3
	.loc 1 96 0
	mov	r0, r7, lsr #7
	.loc 1 95 0
	ldr	r7, [sp, #56]
	.loc 1 97 0
	mov	ip, r8, lsr #7
	.loc 1 100 0
	ldr	r8, [sp, #24]
	.loc 1 99 0
	uxtb	r4, r4
	.loc 1 95 0
	mov	r1, r7, lsr #7
	.loc 1 98 0
	ldr	r7, [sp, #72]
	.loc 1 100 0
	orr	r5, r5, r8, asl #1
	.loc 1 94 0
	ldr	r8, [sp, #40]
	.loc 1 98 0
	orr	lr, lr, r7, asl #1
	.loc 1 93 0
	ldr	r7, [sp, #32]
	.loc 1 94 0
	mov	r2, r8, lsr #7
	.loc 1 100 0
	uxtb	r5, r5
	.loc 1 98 0
	uxtb	lr, lr
	.loc 1 93 0
	mov	r8, r7, lsr #7
	.loc 1 97 0
	ldr	r7, [sp, #64]
	orr	ip, ip, r7, asl #1
	str	ip, [sp, #64]
	.loc 1 92 0
	ldr	ip, [sp, #12]
	mov	r7, ip, lsr #7
	.loc 1 96 0
	ldr	ip, [sp, #56]
	orr	r0, r0, ip, asl #1
	.loc 1 91 0
	ldr	ip, [sp, #20]
	.loc 1 96 0
	uxtb	r0, r0
	.loc 1 91 0
	mov	ip, ip, lsr #7
	str	ip, [sp, #24]
	.loc 1 95 0
	ldr	ip, [sp, #40]
	orr	r1, r1, ip, asl #1
	.loc 1 90 0
	mov	ip, fp, lsr #7
	str	ip, [sp, #40]
	.loc 1 94 0
	ldr	ip, [sp, #32]
	.loc 1 95 0
	uxtb	r1, r1
	.loc 1 94 0
	orr	r2, r2, ip, asl #1
	.loc 1 93 0
	ldr	ip, [sp, #12]
	.loc 1 94 0
	str	r2, [sp, #96]
	.loc 1 89 0
	ldr	r2, [sp, #28]
	.loc 1 93 0
	orr	r8, r8, ip, asl #1
	.loc 1 88 0
	ldr	ip, [sp, #16]
	.loc 1 93 0
	str	r8, [sp, #12]
	.loc 1 89 0
	mov	r2, r2, lsr #7
	str	r2, [sp, #32]
	.loc 1 88 0
	mov	r8, ip, lsr #7
	.loc 1 92 0
	ldr	ip, [sp, #20]
	.loc 1 91 0
	ldr	r2, [sp, #24]
	.loc 1 92 0
	orr	r7, r7, ip, asl #1
.LBE2673:
.LBE2689:
.LBE2705:
	.loc 1 109 0
	ldr	ip, [sp, #44]
.LBB2706:
.LBB2690:
.LBB2674:
	.loc 1 91 0
	orr	fp, r2, fp, asl #1
	.loc 1 90 0
	ldr	r2, [sp, #28]
	.loc 1 92 0
	str	r7, [sp, #20]
.LBE2674:
.LBE2690:
.LBE2706:
	.loc 1 109 0
	bic	r7, ip, #127
.LBB2707:
.LBB2691:
.LBB2675:
	.loc 1 90 0
	ldr	ip, [sp, #40]
.LBE2675:
.LBE2691:
	.loc 1 111 0
	cmp	r7, #0
.LBB2692:
.LBB2676:
	.loc 1 102 0
	uxtb	r7, r6
.LBE2676:
.LBE2692:
	.loc 1 112 0
	eorne	r3, r3, #120
.LBB2693:
.LBB2677:
	.loc 1 90 0
	orr	ip, ip, r2, asl #1
	.loc 1 89 0
	ldr	r2, [sp, #16]
	.loc 1 90 0
	str	ip, [sp, #28]
.LBE2677:
.LBE2693:
	.loc 1 112 0
	mvnne	r3, r3
.LBB2694:
.LBB2678:
	.loc 1 89 0
	ldr	ip, [sp, #32]
	.loc 1 91 0
	uxtb	fp, fp
	.loc 1 89 0
	orr	ip, ip, r2, asl #1
	str	ip, [sp, #16]
	.loc 1 101 0
	ldr	r2, [sp, #76]
	.loc 1 100 0
	str	r5, [sp, #24]
	.loc 1 98 0
	str	lr, [sp, #72]
	.loc 1 97 0
	ldr	lr, [sp, #64]
	.loc 1 101 0
	uxtb	r6, r2
	.loc 1 96 0
	str	r0, [sp, #56]
	.loc 1 95 0
	str	r1, [sp, #40]
	.loc 1 100 0
	ldr	r0, [sp, #24]
	.loc 1 97 0
	uxtb	lr, lr
	.loc 1 98 0
	ldr	r2, [sp, #72]
	.loc 1 94 0
	ldr	r1, [sp, #96]
	.loc 1 97 0
	str	lr, [sp, #64]
	.loc 1 100 0
	strb	r0, [sp, #204]
	.loc 1 93 0
	ldr	lr, [sp, #12]
	.loc 1 94 0
	uxtb	r1, r1
	.loc 1 97 0
	ldr	r0, [sp, #64]
	.loc 1 94 0
	str	r1, [sp, #32]
	.loc 1 98 0
	strb	r2, [sp, #202]
	.loc 1 93 0
	uxtb	lr, lr
	.loc 1 92 0
	ldr	r1, [sp, #20]
	.loc 1 96 0
	ldr	r2, [sp, #56]
	.loc 1 88 0
	ldr	ip, [sp, #44]
	.loc 1 93 0
	str	lr, [sp, #12]
	.loc 1 92 0
	uxtb	r1, r1
	.loc 1 95 0
	ldr	lr, [sp, #40]
	.loc 1 97 0
	strb	r0, [sp, #201]
	.loc 1 88 0
	orr	r8, r8, ip, asl #1
	.loc 1 90 0
	ldr	r0, [sp, #28]
	.loc 1 92 0
	str	r1, [sp, #20]
	.loc 1 88 0
	uxtb	r8, r8
	.loc 1 94 0
	ldr	r1, [sp, #32]
	.loc 1 96 0
	strb	r2, [sp, #200]
	.loc 1 90 0
	uxtb	r0, r0
	.loc 1 89 0
	ldr	r2, [sp, #16]
.LBE2678:
.LBE2694:
.LBE2707:
.LBE2719:
.LBB2720:
.LBB2721:
	.loc 1 46 0
	ldr	r5, [sp, #260]
	.loc 1 45 0
	ldr	ip, [sp, #224]
.LBE2721:
.LBE2720:
.LBB2730:
.LBB2708:
.LBB2695:
.LBB2679:
	.loc 1 95 0
	strb	lr, [sp, #199]
	.loc 1 89 0
	uxtb	r2, r2
	.loc 1 90 0
	str	r0, [sp, #28]
	.loc 1 94 0
	strb	r1, [sp, #198]
	.loc 1 102 0
	strb	r7, [sp, #206]
	.loc 1 101 0
	strb	r6, [sp, #205]
	.loc 1 99 0
	strb	r4, [sp, #203]
	.loc 1 89 0
	str	r2, [sp, #16]
	.loc 1 92 0
	ldr	r0, [sp, #20]
	.loc 1 93 0
	ldr	lr, [sp, #12]
.LBE2679:
.LBE2695:
.LBE2708:
.LBE2730:
.LBB2731:
.LBB2722:
	.loc 1 46 0
	ldr	r2, [sp, #228]
.LBE2722:
.LBE2731:
.LBB2732:
.LBB2709:
.LBB2696:
.LBB2680:
	.loc 1 92 0
	strb	r0, [sp, #196]
.LBE2680:
.LBE2696:
.LBE2709:
.LBE2732:
.LBB2733:
.LBB2723:
	.loc 1 46 0
	eor	r0, r2, r5
.LBE2723:
.LBE2733:
.LBB2734:
.LBB2710:
.LBB2697:
.LBB2681:
	.loc 1 90 0
	ldr	r5, [sp, #28]
.LBE2681:
.LBE2697:
.LBE2710:
.LBE2734:
.LBB2735:
.LBB2724:
	.loc 1 45 0
	ldr	r1, [sp, #256]
.LBE2724:
.LBE2735:
.LBB2736:
.LBB2711:
.LBB2698:
.LBB2682:
	.loc 1 93 0
	strb	lr, [sp, #197]
.LBE2682:
.LBE2698:
.LBE2711:
.LBE2736:
.LBB2737:
.LBB2725:
	.loc 1 48 0
	ldr	r2, [sp, #268]
	.loc 1 45 0
	eor	ip, ip, r1
	.loc 1 48 0
	ldr	lr, [sp, #236]
.LBE2725:
.LBE2737:
.LBB2738:
.LBB2712:
.LBB2699:
.LBB2683:
	.loc 1 88 0
	str	r8, [sp, #44]
.LBE2683:
.LBE2699:
.LBE2712:
.LBE2738:
.LBB2739:
.LBB2726:
	.loc 1 48 0
	eor	r2, lr, r2
	.loc 1 47 0
	ldr	r8, [sp, #232]
.LBE2726:
.LBE2739:
.LBB2740:
.LBB2741:
.LBB2742:
.LBB2743:
	.loc 1 102 0
	ldrb	lr, [sp, #239]	@ zero_extendqisi2
.LBE2743:
.LBE2742:
.LBE2741:
.LBE2740:
.LBB2774:
.LBB2727:
	.loc 1 47 0
	ldr	r1, [sp, #264]
.LBE2727:
.LBE2774:
.LBB2775:
.LBB2713:
.LBB2700:
.LBB2684:
	.loc 1 90 0
	strb	r5, [sp, #194]
	.loc 1 89 0
	ldr	r5, [sp, #16]
.LBE2684:
.LBE2700:
.LBE2713:
.LBE2775:
.LBB2776:
.LBB2728:
	.loc 1 47 0
	eor	r1, r8, r1
	.loc 1 45 0
	str	ip, [r9, #0]
.LBE2728:
.LBE2776:
.LBB2777:
.LBB2764:
.LBB2754:
.LBB2744:
	.loc 1 101 0
	ldrb	ip, [sp, #238]	@ zero_extendqisi2
.LBE2744:
.LBE2754:
.LBE2764:
.LBE2777:
.LBB2778:
.LBB2729:
	.loc 1 48 0
	stmib	r9, {r0, r1, r2}
.LVL328:
.LBE2729:
.LBE2778:
.LBB2779:
.LBB2765:
.LBB2755:
.LBB2745:
	.loc 1 100 0
	ldrb	r0, [sp, #237]	@ zero_extendqisi2
	.loc 1 99 0
	ldrb	r1, [sp, #236]	@ zero_extendqisi2
.LBE2745:
.LBE2755:
.LBE2765:
.LBE2779:
.LBB2780:
.LBB2714:
.LBB2701:
.LBB2685:
	.loc 1 89 0
	strb	r5, [sp, #193]
.LBE2685:
.LBE2701:
.LBE2714:
.LBE2780:
.LBB2781:
.LBB2766:
.LBB2756:
.LBB2746:
	.loc 1 104 0
	mov	r5, lr, asl #1
	.loc 1 102 0
	mov	lr, lr, lsr #7
	.loc 1 98 0
	ldrb	r2, [sp, #235]	@ zero_extendqisi2
	.loc 1 102 0
	orr	lr, lr, ip, asl #1
	.loc 1 101 0
	mov	ip, ip, lsr #7
	orr	ip, ip, r0, asl #1
.LBE2746:
.LBE2756:
.LBE2766:
.LBE2781:
.LBB2782:
.LBB2715:
.LBB2702:
.LBB2686:
	.loc 1 88 0
	ldr	r8, [sp, #44]
.LBE2686:
.LBE2702:
	.loc 1 112 0
	strb	r3, [sp, #207]
.LBE2715:
.LBE2782:
.LBB2783:
.LBB2767:
.LBB2757:
.LBB2747:
	.loc 1 100 0
	mov	r0, r0, lsr #7
	.loc 1 97 0
	ldrb	r3, [sp, #234]	@ zero_extendqisi2
	.loc 1 100 0
	orr	r0, r0, r1, asl #1
	.loc 1 101 0
	strb	ip, [sp, #237]
	.loc 1 99 0
	mov	r1, r1, lsr #7
	.loc 1 96 0
	ldrb	ip, [sp, #233]	@ zero_extendqisi2
	.loc 1 99 0
	orr	r1, r1, r2, asl #1
	.loc 1 100 0
	strb	r0, [sp, #236]
	.loc 1 98 0
	mov	r2, r2, lsr #7
	.loc 1 95 0
	ldrb	r0, [sp, #232]	@ zero_extendqisi2
	.loc 1 98 0
	orr	r2, r2, r3, asl #1
.LBE2747:
.LBE2757:
.LBE2767:
.LBE2783:
.LBB2784:
.LBB2716:
.LBB2703:
.LBB2687:
	.loc 1 91 0
	strb	fp, [sp, #195]
.LBE2687:
.LBE2703:
.LBE2716:
.LBE2784:
.LBB2785:
.LBB2768:
.LBB2758:
.LBB2748:
	.loc 1 97 0
	mov	r3, r3, lsr #7
.LBE2748:
.LBE2758:
.LBE2768:
.LBE2785:
.LBB2786:
.LBB2717:
.LBB2704:
.LBB2688:
	.loc 1 88 0
	strb	r8, [sp, #192]
.LBE2688:
.LBE2704:
.LBE2717:
.LBE2786:
.LBB2787:
.LBB2769:
.LBB2759:
.LBB2749:
	.loc 1 97 0
	orr	r3, r3, ip, asl #1
	.loc 1 102 0
	strb	lr, [sp, #238]
	.loc 1 96 0
	mov	ip, ip, lsr #7
	.loc 1 99 0
	strb	r1, [sp, #235]
	.loc 1 96 0
	orr	ip, ip, r0, asl #1
	.loc 1 94 0
	ldrb	r1, [sp, #231]	@ zero_extendqisi2
	.loc 1 95 0
	mov	r0, r0, lsr #7
	.loc 1 98 0
	strb	r2, [sp, #234]
	.loc 1 104 0
	uxtb	r5, r5
	.loc 1 93 0
	ldrb	r2, [sp, #230]	@ zero_extendqisi2
	.loc 1 97 0
	strb	r3, [sp, #233]
	.loc 1 95 0
	orr	r0, r0, r1, asl #1
	.loc 1 92 0
	ldrb	r3, [sp, #229]	@ zero_extendqisi2
	.loc 1 94 0
	mov	r1, r1, lsr #7
	.loc 1 96 0
	strb	ip, [sp, #232]
	.loc 1 94 0
	orr	r1, r1, r2, asl #1
	.loc 1 91 0
	ldrb	ip, [sp, #228]	@ zero_extendqisi2
	.loc 1 93 0
	mov	r2, r2, lsr #7
	.loc 1 95 0
	strb	r0, [sp, #231]
	.loc 1 93 0
	orr	r2, r2, r3, asl #1
	.loc 1 90 0
	ldrb	r0, [sp, #227]	@ zero_extendqisi2
	.loc 1 92 0
	mov	r3, r3, lsr #7
	.loc 1 94 0
	strb	r1, [sp, #230]
	.loc 1 92 0
	orr	r3, r3, ip, asl #1
	.loc 1 89 0
	ldrb	r1, [sp, #226]	@ zero_extendqisi2
	.loc 1 91 0
	mov	ip, ip, lsr #7
	.loc 1 93 0
	strb	r2, [sp, #229]
	.loc 1 91 0
	orr	ip, ip, r0, asl #1
	.loc 1 88 0
	ldrb	r2, [sp, #225]	@ zero_extendqisi2
	.loc 1 90 0
	mov	r0, r0, lsr #7
	.loc 1 92 0
	strb	r3, [sp, #228]
	.loc 1 90 0
	orr	r0, r0, r1, asl #1
.LBE2749:
.LBE2759:
	.loc 1 109 0
	ldrb	r3, [sp, #224]	@ zero_extendqisi2
.LVL329:
.LBB2760:
.LBB2750:
	.loc 1 89 0
	mov	r1, r1, lsr #7
	orr	r1, r1, r2, asl #1
	.loc 1 88 0
	mov	r2, r2, lsr #7
.LBE2750:
.LBE2760:
	.loc 1 111 0
	tst	r3, #128
.LBB2761:
.LBB2751:
	.loc 1 90 0
	strb	r0, [sp, #226]
	.loc 1 88 0
	orr	r3, r2, r3, asl #1
.LVL330:
	strb	r3, [sp, #224]
.LBE2751:
.LBE2761:
.LBE2769:
.LBE2787:
	.loc 1 474 0
	add	r3, sp, #512
.LVL331:
.LBB2788:
.LBB2770:
	.loc 1 112 0
	eorne	r5, r5, #120
.LBB2762:
.LBB2752:
	.loc 1 89 0
	strb	r1, [sp, #225]
.LBE2752:
.LBE2762:
.LBE2770:
.LBE2788:
	.loc 1 474 0
	ldrd	r2, [r3, #32]
.LBB2789:
.LBB2771:
	.loc 1 112 0
	mvnne	r5, r5
.LBE2771:
.LBE2789:
	.loc 1 474 0
	ldrd	r0, [sp, #48]
.LBB2790:
.LBB2772:
.LBB2763:
.LBB2753:
	.loc 1 91 0
	strb	ip, [sp, #227]
.LBE2753:
.LBE2763:
.LBE2772:
.LBE2790:
	.loc 1 474 0
	cmp	r1, r3
	it eq
	cmpeq	r0, r2
.LBB2791:
.LBB2773:
	.loc 1 112 0
	strb	r5, [sp, #239]
.LBE2773:
.LBE2791:
	.loc 1 474 0
	bcs	.L345
.LVL332:
.LBB2792:
.LBB2793:
.LBB2794:
.LBB2795:
	.loc 1 102 0
	ldrb	lr, [sp, #255]	@ zero_extendqisi2
	.loc 1 101 0
	ldrb	ip, [sp, #254]	@ zero_extendqisi2
	.loc 1 100 0
	ldrb	r0, [sp, #253]	@ zero_extendqisi2
	.loc 1 99 0
	ldrb	r1, [sp, #252]	@ zero_extendqisi2
	.loc 1 104 0
	mov	r5, lr, asl #1
	.loc 1 102 0
	mov	lr, lr, lsr #7
	.loc 1 98 0
	ldrb	r2, [sp, #251]	@ zero_extendqisi2
	.loc 1 102 0
	orr	lr, lr, ip, asl #1
	.loc 1 101 0
	mov	ip, ip, lsr #7
	.loc 1 97 0
	ldrb	r3, [sp, #250]	@ zero_extendqisi2
.LVL333:
	.loc 1 101 0
	orr	ip, ip, r0, asl #1
	.loc 1 100 0
	mov	r0, r0, lsr #7
	.loc 1 101 0
	strb	ip, [sp, #253]
	.loc 1 100 0
	orr	r0, r0, r1, asl #1
	.loc 1 96 0
	ldrb	ip, [sp, #249]	@ zero_extendqisi2
	.loc 1 99 0
	mov	r1, r1, lsr #7
	.loc 1 100 0
	strb	r0, [sp, #252]
	.loc 1 99 0
	orr	r1, r1, r2, asl #1
	.loc 1 95 0
	ldrb	r0, [sp, #248]	@ zero_extendqisi2
	.loc 1 98 0
	mov	r2, r2, lsr #7
	.loc 1 99 0
	strb	r1, [sp, #251]
	.loc 1 98 0
	orr	r2, r2, r3, asl #1
	.loc 1 94 0
	ldrb	r1, [sp, #247]	@ zero_extendqisi2
	.loc 1 97 0
	mov	r3, r3, lsr #7
	.loc 1 98 0
	strb	r2, [sp, #250]
	.loc 1 97 0
	orr	r3, r3, ip, asl #1
	.loc 1 93 0
	ldrb	r2, [sp, #246]	@ zero_extendqisi2
	.loc 1 96 0
	mov	ip, ip, lsr #7
	.loc 1 97 0
	strb	r3, [sp, #249]
	.loc 1 96 0
	orr	ip, ip, r0, asl #1
	.loc 1 92 0
	ldrb	r3, [sp, #245]	@ zero_extendqisi2
	.loc 1 95 0
	mov	r0, r0, lsr #7
	.loc 1 96 0
	strb	ip, [sp, #248]
	.loc 1 95 0
	orr	r0, r0, r1, asl #1
	.loc 1 91 0
	ldrb	ip, [sp, #244]	@ zero_extendqisi2
	.loc 1 94 0
	mov	r1, r1, lsr #7
	.loc 1 95 0
	strb	r0, [sp, #247]
	.loc 1 94 0
	orr	r1, r1, r2, asl #1
	.loc 1 93 0
	mov	r2, r2, lsr #7
	.loc 1 90 0
	ldrb	r0, [sp, #243]	@ zero_extendqisi2
	.loc 1 93 0
	orr	r2, r2, r3, asl #1
	.loc 1 92 0
	mov	r3, r3, lsr #7
	.loc 1 94 0
	strb	r1, [sp, #246]
	.loc 1 92 0
	orr	r3, r3, ip, asl #1
	.loc 1 89 0
	ldrb	r1, [sp, #242]	@ zero_extendqisi2
	.loc 1 92 0
	strb	r3, [sp, #244]
	.loc 1 91 0
	mov	ip, ip, lsr #7
.LBE2795:
.LBE2794:
	.loc 1 109 0
	ldrb	r3, [sp, #240]	@ zero_extendqisi2
.LVL334:
.LBB2800:
.LBB2796:
	.loc 1 104 0
	uxtb	r5, r5
	.loc 1 93 0
	strb	r2, [sp, #245]
	.loc 1 91 0
	orr	ip, ip, r0, asl #1
	.loc 1 88 0
	ldrb	r2, [sp, #241]	@ zero_extendqisi2
.LBE2796:
.LBE2800:
	.loc 1 111 0
	tst	r3, #128
.LBB2801:
.LBB2797:
	.loc 1 90 0
	mov	r0, r0, lsr #7
.LBE2797:
.LBE2801:
	.loc 1 112 0
	eorne	r5, r5, #120
.LBB2802:
.LBB2798:
	.loc 1 90 0
	orr	r0, r0, r1, asl #1
	.loc 1 89 0
	mov	r1, r1, lsr #7
	orr	r1, r1, r2, asl #1
	.loc 1 88 0
	mov	r2, r2, lsr #7
	.loc 1 90 0
	strb	r0, [sp, #242]
	.loc 1 88 0
	orr	r3, r2, r3, asl #1
.LVL335:
	.loc 1 89 0
	strb	r1, [sp, #241]
.LBE2798:
.LBE2802:
	.loc 1 112 0
	mvnne	r5, r5
.LBB2803:
.LBB2799:
	.loc 1 102 0
	strb	lr, [sp, #254]
	.loc 1 91 0
	strb	ip, [sp, #243]
	.loc 1 88 0
	strb	r3, [sp, #240]
.LBE2799:
.LBE2803:
	.loc 1 112 0
	strb	r5, [sp, #255]
	ldrd	r0, [sp, #48]
	b	.L345
.LVL336:
.L348:
.LBE2793:
.LBE2792:
	.loc 1 415 0
	add	r4, sp, #512
.LVL337:
.LBB2804:
.LBB2805:
.LBB2806:
.LBB2807:
	.loc 1 102 0
	ldrb	lr, [sp, #255]	@ zero_extendqisi2
	.loc 1 101 0
	ldrb	ip, [sp, #254]	@ zero_extendqisi2
.LBE2807:
.LBE2806:
.LBE2805:
.LBE2804:
	.loc 1 415 0
	ldrd	r0, [r4, #32]
.LVL338:
	ldrd	r6, [r4, #32]
.LBB2863:
.LBB2850:
.LBB2821:
.LBB2808:
	.loc 1 104 0
	mov	r5, lr, asl #1
.LBE2808:
.LBE2821:
.LBE2850:
.LBE2863:
	.loc 1 415 0
	subs	r0, r0, #16
.LBB2864:
.LBB2851:
.LBB2822:
.LBB2809:
	.loc 1 102 0
	mov	lr, lr, lsr #7
.LBE2809:
.LBE2822:
.LBE2851:
.LBE2864:
	.loc 1 415 0
	sbc	r1, r1, #0
	and	r7, r7, r3
	mov	r3, r0, lsr #4
.LBB2865:
.LBB2852:
.LBB2823:
.LBB2810:
	.loc 1 100 0
	ldrb	r0, [sp, #253]	@ zero_extendqisi2
.LBE2810:
.LBE2823:
.LBE2852:
.LBE2865:
	.loc 1 415 0
	orr	r3, r3, r1, asl #28
.LBB2866:
.LBB2853:
.LBB2824:
.LBB2811:
	.loc 1 99 0
	ldrb	r1, [sp, #252]	@ zero_extendqisi2
.LBE2811:
.LBE2824:
.LBE2853:
.LBE2866:
	.loc 1 415 0
	add	r3, r3, #1
	and	r6, r6, r2
.LBB2867:
.LBB2854:
.LBB2825:
.LBB2812:
	.loc 1 102 0
	orr	lr, lr, ip, asl #1
	.loc 1 98 0
	ldrb	r2, [sp, #251]	@ zero_extendqisi2
	.loc 1 101 0
	mov	ip, ip, lsr #7
.LBE2812:
.LBE2825:
.LBE2854:
.LBE2867:
	.loc 1 415 0
	mov	r4, r3, asl #4
.LVL339:
.LBB2868:
.LBB2855:
.LBB2826:
.LBB2813:
	.loc 1 101 0
	orr	ip, ip, r0, asl #1
.LBE2813:
.LBE2826:
.LBE2855:
.LBE2868:
	.loc 1 415 0
	str	r3, [sp, #56]
.LBB2869:
.LBB2856:
.LBB2827:
.LBB2814:
	.loc 1 100 0
	mov	r0, r0, lsr #7
	.loc 1 97 0
	ldrb	r3, [sp, #250]	@ zero_extendqisi2
	.loc 1 100 0
	orr	r0, r0, r1, asl #1
	.loc 1 101 0
	strb	ip, [sp, #301]
	.loc 1 99 0
	mov	r1, r1, lsr #7
	.loc 1 96 0
	ldrb	ip, [sp, #249]	@ zero_extendqisi2
	.loc 1 99 0
	orr	r1, r1, r2, asl #1
	.loc 1 100 0
	strb	r0, [sp, #300]
	.loc 1 98 0
	mov	r2, r2, lsr #7
	.loc 1 95 0
	ldrb	r0, [sp, #248]	@ zero_extendqisi2
	.loc 1 98 0
	orr	r2, r2, r3, asl #1
	.loc 1 99 0
	strb	r1, [sp, #299]
	.loc 1 97 0
	mov	r3, r3, lsr #7
	.loc 1 94 0
	ldrb	r1, [sp, #247]	@ zero_extendqisi2
	.loc 1 97 0
	orr	r3, r3, ip, asl #1
	.loc 1 98 0
	strb	r2, [sp, #298]
	.loc 1 96 0
	mov	ip, ip, lsr #7
	.loc 1 93 0
	ldrb	r2, [sp, #246]	@ zero_extendqisi2
	.loc 1 96 0
	orr	ip, ip, r0, asl #1
	.loc 1 97 0
	strb	r3, [sp, #297]
	.loc 1 95 0
	mov	r0, r0, lsr #7
	.loc 1 92 0
	ldrb	r3, [sp, #245]	@ zero_extendqisi2
	.loc 1 95 0
	orr	r0, r0, r1, asl #1
	.loc 1 96 0
	strb	ip, [sp, #296]
	.loc 1 94 0
	mov	r1, r1, lsr #7
	.loc 1 91 0
	ldrb	ip, [sp, #244]	@ zero_extendqisi2
	ldr	sl, [sp, #112]
.LVL340:
	.loc 1 94 0
	orr	r1, r1, r2, asl #1
	ldr	r9, [sp, #116]
.LVL341:
	.loc 1 93 0
	mov	r2, r2, lsr #7
	orr	r2, r2, r3, asl #1
	.loc 1 95 0
	strb	r0, [sp, #295]
	.loc 1 92 0
	mov	r3, r3, lsr #7
	.loc 1 90 0
	ldrb	r0, [sp, #243]	@ zero_extendqisi2
	.loc 1 104 0
	uxtb	r5, r5
	strd	r6, [sp, #32]
.LVL342:
	strb	r5, [sp, #303]
	add	r9, r9, r4
	.loc 1 92 0
	orr	r3, r3, ip, asl #1
	add	r4, sl, r4
	str	r9, [sp, #96]
	.loc 1 91 0
	mov	ip, ip, lsr #7
	str	r4, [sp, #40]
	orr	ip, ip, r0, asl #1
	.loc 1 102 0
	strb	lr, [sp, #302]
	.loc 1 90 0
	mov	r0, r0, lsr #7
	.loc 1 94 0
	strb	r1, [sp, #294]
	.loc 1 93 0
	strb	r2, [sp, #293]
	.loc 1 89 0
	ldrb	r1, [sp, #242]	@ zero_extendqisi2
	.loc 1 88 0
	ldrb	r2, [sp, #241]	@ zero_extendqisi2
	.loc 1 92 0
	strb	r3, [sp, #292]
.LBE2814:
.LBE2827:
	.loc 1 119 0
	ldrb	r3, [sp, #240]	@ zero_extendqisi2
.LVL343:
.LBB2828:
.LBB2815:
	.loc 1 90 0
	orr	r0, r0, r1, asl #1
	.loc 1 89 0
	mov	r1, r1, lsr #7
	.loc 1 90 0
	strb	r0, [sp, #290]
.LBE2815:
.LBE2828:
	.loc 1 121 0
	tst	r3, #128
.LBB2829:
.LBB2816:
	.loc 1 89 0
	orr	r1, r1, r2, asl #1
.LBE2816:
.LBE2829:
	.loc 1 122 0
	eorne	r5, r5, #120
.LBB2830:
.LBB2817:
	.loc 1 88 0
	mov	r2, r2, lsr #7
	orr	r3, r2, r3, asl #1
.LVL344:
.LBE2817:
.LBE2830:
.LBB2831:
.LBB2832:
	.loc 1 48 0
	ldr	r0, [sp, #252]
.LBE2832:
.LBE2831:
.LBB2840:
.LBB2818:
	.loc 1 88 0
	strb	r3, [sp, #288]
.LBE2818:
.LBE2840:
	.loc 1 122 0
	mvnne	r5, r5
	strneb	r5, [sp, #303]
.LBB2841:
.LBB2833:
	.loc 1 48 0
	ldr	r3, [sp, #300]
	.loc 1 47 0
	ldr	r2, [sp, #296]
	.loc 1 48 0
	eor	r3, r0, r3
.LBE2833:
.LBE2841:
.LBB2842:
.LBB2819:
	.loc 1 89 0
	strb	r1, [sp, #289]
.LBE2819:
.LBE2842:
.LBB2843:
.LBB2834:
	.loc 1 47 0
	ldr	r1, [sp, #248]
.LBE2834:
.LBE2843:
.LBE2856:
.LBE2869:
.LBB2870:
.LBB2871:
.LBB2872:
.LBB2873:
	.loc 1 101 0
	ubfx	r7, r3, #16, #8
.LBE2873:
.LBE2872:
.LBE2871:
.LBE2870:
.LBB2923:
.LBB2857:
.LBB2844:
.LBB2820:
	.loc 1 91 0
	strb	ip, [sp, #291]
.LBE2820:
.LBE2844:
.LBE2857:
.LBE2923:
.LBB2924:
.LBB2910:
.LBB2884:
.LBB2874:
	.loc 1 100 0
	ubfx	r5, r3, #8, #8
.LBE2874:
.LBE2884:
.LBE2910:
.LBE2924:
.LBB2925:
.LBB2858:
.LBB2845:
.LBB2835:
	.loc 1 47 0
	eor	r1, r1, r2
.LBE2835:
.LBE2845:
.LBE2858:
.LBE2925:
.LBB2926:
.LBB2911:
.LBB2885:
.LBB2875:
	.loc 1 102 0
	mov	r2, r3, lsr #24
.LBE2875:
.LBE2885:
.LBE2911:
.LBE2926:
.LBB2927:
.LBB2859:
.LBB2846:
.LBB2836:
	.loc 1 46 0
	ldr	ip, [sp, #292]
	.loc 1 45 0
	ldr	r4, [sp, #288]
.LBE2836:
.LBE2846:
.LBE2859:
.LBE2927:
.LBB2928:
.LBB2912:
.LBB2886:
.LBB2876:
	.loc 1 104 0
	mov	r6, r2, asl #1
.LBE2876:
.LBE2886:
.LBE2912:
.LBE2928:
.LBB2929:
.LBB2860:
.LBB2847:
.LBB2837:
	.loc 1 45 0
	ldr	lr, [sp, #240]
.LBE2837:
.LBE2847:
.LBE2860:
.LBE2929:
.LBB2930:
.LBB2913:
.LBB2887:
.LBB2877:
	.loc 1 102 0
	mov	r2, r2, lsr #7
.LBE2877:
.LBE2887:
.LBE2913:
.LBE2930:
.LBB2931:
.LBB2861:
.LBB2848:
.LBB2838:
	.loc 1 46 0
	ldr	r0, [sp, #244]
.LBE2838:
.LBE2848:
.LBE2861:
.LBE2931:
.LBB2932:
.LBB2914:
.LBB2888:
.LBB2878:
	.loc 1 102 0
	orr	r2, r2, r7, asl #1
	.loc 1 101 0
	mov	r7, r7, lsr #7
	.loc 1 102 0
	strb	r2, [sp, #302]
.LBE2878:
.LBE2888:
.LBE2914:
.LBE2932:
.LBB2933:
.LBB2862:
.LBB2849:
.LBB2839:
	.loc 1 46 0
	eor	r0, r0, ip
	.loc 1 45 0
	eor	ip, lr, r4
.LBE2839:
.LBE2849:
.LBE2862:
.LBE2933:
.LBB2934:
.LBB2915:
.LBB2889:
.LBB2879:
	.loc 1 99 0
	uxtb	r4, r3
	.loc 1 98 0
	mov	lr, r1, lsr #24
	.loc 1 101 0
	orr	r7, r7, r5, asl #1
	.loc 1 100 0
	mov	r5, r5, lsr #7
	.loc 1 97 0
	ubfx	r2, r1, #16, #8
	.loc 1 100 0
	orr	r5, r5, r4, asl #1
	.loc 1 99 0
	mov	r4, r4, lsr #7
	.loc 1 101 0
	strb	r7, [sp, #301]
	.loc 1 99 0
	orr	r4, r4, lr, asl #1
	.loc 1 96 0
	ubfx	r7, r1, #8, #8
	.loc 1 98 0
	mov	lr, lr, lsr #7
	.loc 1 100 0
	strb	r5, [sp, #300]
	.loc 1 98 0
	orr	lr, lr, r2, asl #1
	.loc 1 95 0
	uxtb	r5, r1
	.loc 1 97 0
	mov	r2, r2, lsr #7
	.loc 1 99 0
	strb	r4, [sp, #299]
	.loc 1 97 0
	orr	r2, r2, r7, asl #1
	.loc 1 94 0
	mov	r4, r0, lsr #24
	.loc 1 96 0
	mov	r7, r7, lsr #7
	.loc 1 98 0
	strb	lr, [sp, #298]
	.loc 1 96 0
	orr	r7, r7, r5, asl #1
	.loc 1 93 0
	ubfx	lr, r0, #16, #8
	.loc 1 95 0
	mov	r5, r5, lsr #7
	.loc 1 97 0
	strb	r2, [sp, #297]
	.loc 1 95 0
	orr	r5, r5, r4, asl #1
	.loc 1 92 0
	ubfx	r2, r0, #8, #8
	.loc 1 94 0
	mov	r4, r4, lsr #7
	.loc 1 96 0
	strb	r7, [sp, #296]
	.loc 1 94 0
	orr	r4, r4, lr, asl #1
	.loc 1 91 0
	uxtb	r7, r0
	.loc 1 93 0
	mov	lr, lr, lsr #7
	.loc 1 95 0
	strb	r5, [sp, #295]
	.loc 1 93 0
	orr	lr, lr, r2, asl #1
	.loc 1 90 0
	mov	r5, ip, lsr #24
	.loc 1 92 0
	mov	r2, r2, lsr #7
	.loc 1 94 0
	strb	r4, [sp, #294]
	.loc 1 92 0
	orr	r2, r2, r7, asl #1
	.loc 1 89 0
	ubfx	r4, ip, #16, #8
	.loc 1 91 0
	mov	r7, r7, lsr #7
	.loc 1 93 0
	strb	lr, [sp, #293]
	.loc 1 91 0
	orr	r7, r7, r5, asl #1
	.loc 1 88 0
	ubfx	lr, ip, #8, #8
	.loc 1 90 0
	mov	r5, r5, lsr #7
	.loc 1 92 0
	strb	r2, [sp, #292]
	.loc 1 90 0
	orr	r5, r5, r4, asl #1
.LBE2879:
.LBE2889:
	.loc 1 119 0
	uxtb	r2, ip
.LVL345:
.LBB2890:
.LBB2880:
	.loc 1 89 0
	mov	r4, r4, lsr #7
.LBE2880:
.LBE2890:
	.loc 1 121 0
	movs	fp, r2, lsr #7
.LBB2891:
.LBB2881:
	.loc 1 104 0
	uxtb	r6, r6
	.loc 1 89 0
	orr	r4, r4, lr, asl #1
	.loc 1 88 0
	mov	lr, lr, lsr #7
	.loc 1 104 0
	strb	r6, [sp, #303]
	.loc 1 91 0
	strb	r7, [sp, #291]
.LBE2881:
.LBE2891:
	.loc 1 122 0
	eorne	r6, r6, #120
.LBB2892:
.LBB2882:
	.loc 1 90 0
	strb	r5, [sp, #290]
	.loc 1 88 0
	orr	lr, lr, r2, asl #1
	.loc 1 89 0
	strb	r4, [sp, #289]
.LBE2882:
.LBE2892:
	.loc 1 122 0
	mvnne	r6, r6
.LBB2893:
.LBB2883:
	.loc 1 88 0
	strb	lr, [sp, #288]
.LBE2883:
.LBE2893:
.LBE2915:
.LBE2934:
	.loc 1 487 0
	add	r2, sp, #324
.LVL346:
.LBB2935:
.LBB2916:
.LBB2894:
.LBB2895:
	.loc 1 45 0
	ldr	lr, [sp, #288]
	.loc 1 46 0
	ldr	r4, [sp, #292]
.LBE2895:
.LBE2894:
	.loc 1 122 0
	strneb	r6, [sp, #303]
.LBB2903:
.LBB2896:
	.loc 1 45 0
	eor	ip, ip, lr
.LVL347:
	.loc 1 47 0
	ldr	r5, [sp, #296]
	.loc 1 46 0
	eor	lr, r0, r4
	.loc 1 48 0
	ldr	r6, [sp, #300]
.LBE2896:
.LBE2903:
.LBE2916:
.LBE2935:
	.loc 1 487 0
	add	r0, sp, #208
.LVL348:
.LBB2936:
.LBB2917:
.LBB2904:
.LBB2897:
	.loc 1 47 0
	eor	r4, r1, r5
.LBE2897:
.LBE2904:
.LBE2917:
.LBE2936:
.LBB2937:
.LBB2938:
	.loc 1 45 0
	ldr	r7, [sp, #208]
.LBE2938:
.LBE2937:
.LBB2945:
.LBB2918:
.LBB2905:
.LBB2898:
	.loc 1 48 0
	eor	r3, r3, r6
.LBE2898:
.LBE2905:
.LBE2918:
.LBE2945:
.LBB2946:
.LBB2939:
	.loc 1 46 0
	ldr	r5, [sp, #212]
	.loc 1 47 0
	ldr	r6, [sp, #216]
.LBE2939:
.LBE2946:
	.loc 1 487 0
	mov	r1, r0
.LBB2947:
.LBB2940:
	.loc 1 48 0
	ldr	r8, [sp, #220]
.LBE2940:
.LBE2947:
.LBB2948:
.LBB2919:
.LBB2906:
.LBB2899:
	.loc 1 45 0
	str	ip, [sp, #144]
.LBE2899:
.LBE2906:
.LBE2919:
.LBE2948:
.LBB2949:
.LBB2941:
	eor	ip, r7, ip
.LBE2941:
.LBE2949:
.LBB2950:
.LBB2920:
.LBB2907:
.LBB2900:
	.loc 1 46 0
	str	lr, [sp, #148]
.LBE2900:
.LBE2907:
.LBE2920:
.LBE2950:
.LBB2951:
.LBB2942:
	eor	lr, r5, lr
	.loc 1 45 0
	str	ip, [sp, #208]
	.loc 1 47 0
	eor	ip, r6, r4
	.loc 1 46 0
	str	lr, [sp, #212]
	.loc 1 48 0
	eor	lr, r8, r3
.LBE2942:
.LBE2951:
.LBB2952:
.LBB2921:
.LBB2908:
.LBB2901:
	.loc 1 47 0
	str	r4, [sp, #152]
.LBE2901:
.LBE2908:
.LBE2921:
.LBE2952:
.LBB2953:
.LBB2943:
	str	ip, [sp, #216]
.LBE2943:
.LBE2953:
.LBB2954:
.LBB2922:
.LBB2909:
.LBB2902:
	.loc 1 48 0
	str	r3, [sp, #156]
.LVL349:
.LBE2902:
.LBE2909:
.LBE2922:
.LBE2954:
.LBB2955:
.LBB2944:
	str	lr, [sp, #220]
.LBE2944:
.LBE2955:
	.loc 1 487 0
	bl	aesc_encrypt
.LVL350:
	.loc 1 491 0
	add	r0, sp, #208
.LVL351:
.LBB2956:
.LBB2957:
	.loc 1 45 0
	ldr	ip, [sp, #208]
	.loc 1 46 0
	ldr	r3, [sp, #212]
.LBE2957:
.LBE2956:
	.loc 1 491 0
	add	r2, sp, #324
.LBB2960:
.LBB2958:
	.loc 1 47 0
	ldr	lr, [sp, #216]
.LBE2958:
.LBE2960:
	.loc 1 491 0
	mov	r1, r0
.LBB2961:
.LBB2959:
	.loc 1 48 0
	ldr	r4, [sp, #220]
	.loc 1 45 0
	ldr	r5, [sp, #80]
	.loc 1 46 0
	ldr	r6, [sp, #84]
	.loc 1 47 0
	ldr	r7, [sp, #88]
	.loc 1 45 0
	eor	ip, ip, r5
	.loc 1 48 0
	ldr	r8, [sp, #92]
	.loc 1 46 0
	eor	r3, r3, r6
	.loc 1 47 0
	eor	lr, lr, r7
	.loc 1 45 0
	str	ip, [sp, #208]
	.loc 1 48 0
	eor	r4, r4, r8
	.loc 1 46 0
	str	r3, [sp, #212]
	.loc 1 48 0
	str	r4, [sp, #220]
	.loc 1 47 0
	str	lr, [sp, #216]
.LBE2959:
.LBE2961:
	.loc 1 491 0
	bl	aesc_encrypt
.LVL352:
.LBB2962:
.LBB2963:
.LBB2964:
.LBB2965:
	.loc 1 96 0
	ldrb	r6, [sp, #249]	@ zero_extendqisi2
	.loc 1 91 0
	ldrb	r0, [sp, #244]	@ zero_extendqisi2
	.loc 1 89 0
	ldrb	r4, [sp, #242]	@ zero_extendqisi2
	.loc 1 94 0
	ldrb	r3, [sp, #247]	@ zero_extendqisi2
	.loc 1 96 0
	str	r6, [sp, #44]
	.loc 1 91 0
	mov	sl, r0, lsr #7
	.loc 1 97 0
	ldrb	r6, [sp, #250]	@ zero_extendqisi2
	.loc 1 89 0
	mov	fp, r4, lsr #7
	.loc 1 93 0
	ldrb	r2, [sp, #246]	@ zero_extendqisi2
	.loc 1 91 0
	str	sl, [sp, #48]
	.loc 1 88 0
	ldrb	r5, [sp, #241]	@ zero_extendqisi2
	.loc 1 95 0
	ldrb	sl, [sp, #248]	@ zero_extendqisi2
	.loc 1 93 0
	mov	r7, r2, lsr #7
	.loc 1 90 0
	ldrb	ip, [sp, #243]	@ zero_extendqisi2
	.loc 1 97 0
	str	r6, [sp, #16]
	.loc 1 94 0
	mov	r6, r3, lsr #7
	.loc 1 88 0
	mov	r9, r5, lsr #7
	.loc 1 94 0
	orr	r6, r6, r2, asl #1
	.loc 1 89 0
	orr	r5, fp, r5, asl #1
	.loc 1 95 0
	mov	r2, sl, lsr #7
	.loc 1 88 0
	str	r9, [sp, #28]
	.loc 1 95 0
	orr	r3, r2, r3, asl #1
	.loc 1 92 0
	ldrb	r1, [sp, #245]	@ zero_extendqisi2
	.loc 1 90 0
	mov	r9, ip, lsr #7
	.loc 1 96 0
	ldr	r2, [sp, #44]
	.loc 1 90 0
	orr	r9, r9, r4, asl #1
	.loc 1 89 0
	uxtb	r5, r5
	.loc 1 90 0
	str	r9, [sp, #20]
	.loc 1 91 0
	ldr	r9, [sp, #48]
	.loc 1 92 0
	mov	r8, r1, lsr #7
	.loc 1 89 0
	str	r5, [sp, #48]
	.loc 1 92 0
	orr	r8, r8, r0, asl #1
	.loc 1 97 0
	ldr	r5, [sp, #16]
	.loc 1 91 0
	orr	ip, r9, ip, asl #1
	.loc 1 93 0
	str	r7, [sp, #12]
	.loc 1 92 0
	uxtb	r8, r8
	.loc 1 98 0
	ldrb	r7, [sp, #251]	@ zero_extendqisi2
	.loc 1 95 0
	uxtb	r3, r3
	.loc 1 100 0
	ldrb	r4, [sp, #253]	@ zero_extendqisi2
	.loc 1 93 0
	ldr	r9, [sp, #12]
	.loc 1 94 0
	str	r6, [sp, #64]
	.loc 1 96 0
	mov	r6, r2, lsr #7
	.loc 1 99 0
	ldrb	fp, [sp, #252]	@ zero_extendqisi2
	.loc 1 96 0
	orr	r6, r6, sl, asl #1
	.loc 1 102 0
	ldrb	r0, [sp, #255]	@ zero_extendqisi2
	.loc 1 97 0
	mov	sl, r5, lsr #7
	.loc 1 93 0
	orr	r1, r9, r1, asl #1
	.loc 1 91 0
	str	ip, [sp, #76]
	.loc 1 93 0
	str	r1, [sp, #12]
	.loc 1 97 0
	orr	sl, sl, r2, asl #1
	.loc 1 101 0
	ldrb	ip, [sp, #254]	@ zero_extendqisi2
	.loc 1 98 0
	mov	r2, r7, lsr #7
.LBE2965:
.LBE2964:
	.loc 1 130 0
	ldrb	r1, [sp, #240]	@ zero_extendqisi2
.LVL353:
.LBB2976:
.LBB2966:
	.loc 1 98 0
	orr	r2, r2, r5, asl #1
	.loc 1 88 0
	ldr	r9, [sp, #28]
	.loc 1 99 0
	mov	r5, fp, lsr #7
	.loc 1 98 0
	str	r2, [sp, #16]
	.loc 1 100 0
	mov	r2, r4, lsr #7
	orr	r2, r2, fp, asl #1
	str	r2, [sp, #72]
	.loc 1 102 0
	mov	r2, r0, lsr #7
.LBE2966:
.LBE2976:
	.loc 1 132 0
	tst	r1, #128
.LBB2977:
.LBB2967:
	.loc 1 102 0
	orr	r2, r2, ip, asl #1
	.loc 1 88 0
	orr	r9, r9, r1, asl #1
	.loc 1 99 0
	orr	r5, r5, r7, asl #1
	.loc 1 102 0
	str	r2, [sp, #80]
	.loc 1 101 0
	mov	r7, ip, lsr #7
	.loc 1 88 0
	str	r9, [sp, #24]
	.loc 1 90 0
	ldr	ip, [sp, #20]
	.loc 1 101 0
	orr	r7, r7, r4, asl #1
	.loc 1 93 0
	ldr	r2, [sp, #12]
	.loc 1 104 0
	mov	r0, r0, asl #1
	.loc 1 91 0
	ldr	r1, [sp, #76]
.LVL354:
	.loc 1 99 0
	uxtb	r5, r5
	.loc 1 94 0
	ldr	r9, [sp, #64]
	.loc 1 104 0
	uxtb	r0, r0
	.loc 1 99 0
	str	r5, [sp, #28]
	.loc 1 90 0
	uxtb	r4, ip
	.loc 1 99 0
	strb	r5, [sp, #283]
	.loc 1 91 0
	uxtb	ip, r1
	.loc 1 100 0
	ldr	r5, [sp, #72]
	.loc 1 93 0
	uxtb	r1, r2
	.loc 1 89 0
	ldr	fp, [sp, #48]
	.loc 1 94 0
	uxtb	r2, r9
	.loc 1 101 0
	uxtb	r7, r7
	.loc 1 88 0
	ldr	r9, [sp, #24]
	.loc 1 101 0
	str	r7, [sp, #12]
	.loc 1 97 0
	uxtb	sl, sl
	.loc 1 101 0
	strb	r7, [sp, #285]
	.loc 1 100 0
	uxtb	r5, r5
	.loc 1 102 0
	ldr	r7, [sp, #80]
	.loc 1 104 0
	strb	r0, [sp, #287]
.LBE2967:
.LBE2977:
	.loc 1 133 0
	eorne	r0, r0, #135
.LBB2978:
.LBB2968:
	.loc 1 97 0
	str	sl, [sp, #44]
	strb	sl, [sp, #281]
	.loc 1 100 0
	str	r5, [sp, #20]
	.loc 1 98 0
	ldr	sl, [sp, #16]
	.loc 1 100 0
	strb	r5, [sp, #284]
.LBE2968:
.LBE2978:
.LBB2979:
.LBB2980:
	.loc 1 88 0
	ldr	r5, [sp, #48]
.LBE2980:
.LBE2979:
.LBB2993:
.LBB2969:
	.loc 1 89 0
	strb	fp, [sp, #273]
	.loc 1 96 0
	uxtb	fp, r6
	.loc 1 102 0
	uxtb	r6, r7
	.loc 1 88 0
	uxtb	r7, r9
.LVL355:
.LBE2969:
.LBE2993:
.LBB2994:
.LBB2981:
	.loc 1 104 0
	mov	r9, r0, asl #1
.LBE2981:
.LBE2994:
.LBB2995:
.LBB2970:
	.loc 1 98 0
	uxtb	sl, sl
	str	sl, [sp, #16]
	strb	sl, [sp, #282]
.LBE2970:
.LBE2995:
.LBB2996:
.LBB2982:
	.loc 1 104 0
	uxtb	r9, r9
	.loc 1 88 0
	mov	sl, r5, lsr #7
	.loc 1 104 0
	str	r9, [sp, #24]
.LBE2982:
.LBE2996:
	.loc 1 133 0
	strneb	r0, [sp, #287]
	.loc 1 137 0
	tst	r7, #128
.LBB2997:
.LBB2971:
	.loc 1 88 0
	strb	r7, [sp, #272]
.LBE2971:
.LBE2997:
.LBB2998:
.LBB2983:
	orr	r7, sl, r7, asl #1
.LVL356:
	.loc 1 104 0
	ldr	sl, [sp, #24]
	.loc 1 90 0
	mov	r9, ip, lsr #7
.LBE2983:
.LBE2998:
.LBB2999:
.LBB2972:
	strb	r4, [sp, #274]
.LBE2972:
.LBE2999:
.LBB3000:
.LBB2984:
	.loc 1 89 0
	mov	r5, r4, lsr #7
.LBE2984:
.LBE3000:
.LBB3001:
.LBB2973:
	.loc 1 91 0
	strb	ip, [sp, #275]
.LBE2973:
.LBE3001:
.LBB3002:
.LBB2985:
	.loc 1 90 0
	orr	r4, r9, r4, asl #1
.LBE2985:
.LBE3002:
.LBB3003:
.LBB2974:
	.loc 1 92 0
	strb	r8, [sp, #276]
.LBE2974:
.LBE3003:
.LBB3004:
.LBB2986:
	.loc 1 94 0
	mov	r9, r3, lsr #7
.LBE2986:
.LBE3004:
.LBB3005:
.LBB2975:
	.loc 1 93 0
	strb	r1, [sp, #277]
	.loc 1 94 0
	strb	r2, [sp, #278]
	.loc 1 95 0
	strb	r3, [sp, #279]
	.loc 1 96 0
	strb	fp, [sp, #280]
	.loc 1 102 0
	strb	r6, [sp, #286]
.LBE2975:
.LBE3005:
.LBB3006:
.LBB2987:
	.loc 1 104 0
	strb	sl, [sp, #303]
	.loc 1 91 0
	mov	sl, r8, lsr #7
	orr	sl, sl, ip, asl #1
	.loc 1 96 0
	ldr	ip, [sp, #44]
	.loc 1 88 0
	strb	r7, [sp, #288]
	.loc 1 89 0
	ldr	r7, [sp, #48]
	.loc 1 96 0
	mov	ip, ip, lsr #7
	str	ip, [sp, #48]
	.loc 1 97 0
	ldr	ip, [sp, #16]
	.loc 1 91 0
	strb	sl, [sp, #291]
	.loc 1 89 0
	orr	r5, r5, r7, asl #1
	.loc 1 92 0
	mov	r7, r1, lsr #7
	.loc 1 90 0
	strb	r4, [sp, #290]
	.loc 1 97 0
	mov	sl, ip, lsr #7
	.loc 1 98 0
	ldr	ip, [sp, #28]
	.loc 1 95 0
	mov	r4, fp, lsr #7
	.loc 1 92 0
	orr	r8, r7, r8, asl #1
	.loc 1 95 0
	orr	r3, r4, r3, asl #1
	strb	r3, [sp, #295]
	.loc 1 98 0
	mov	r7, ip, lsr #7
	.loc 1 99 0
	ldr	ip, [sp, #20]
	.loc 1 97 0
	ldr	r3, [sp, #44]
	.loc 1 89 0
	strb	r5, [sp, #289]
	.loc 1 93 0
	mov	r5, r2, lsr #7
	.loc 1 94 0
	orr	r2, r9, r2, asl #1
	strb	r2, [sp, #294]
	.loc 1 96 0
	ldr	r2, [sp, #48]
	.loc 1 97 0
	orr	sl, sl, r3, asl #1
	.loc 1 99 0
	ldr	r9, [sp, #28]
	.loc 1 93 0
	orr	r1, r5, r1, asl #1
	.loc 1 92 0
	strb	r8, [sp, #292]
	.loc 1 99 0
	mov	r8, ip, lsr #7
	.loc 1 100 0
	ldr	ip, [sp, #12]
	.loc 1 96 0
	orr	fp, r2, fp, asl #1
	.loc 1 97 0
	strb	sl, [sp, #297]
	.loc 1 99 0
	orr	r8, r8, r9, asl #1
	.loc 1 96 0
	strb	fp, [sp, #296]
	.loc 1 98 0
	ldr	r4, [sp, #16]
	.loc 1 100 0
	mov	r5, ip, lsr #7
.LBE2987:
.LBE3006:
	.loc 1 138 0
	ldrne	fp, [sp, #24]
.LBB3007:
.LBB2988:
	.loc 1 100 0
	ldr	sl, [sp, #20]
	.loc 1 93 0
	strb	r1, [sp, #293]
	.loc 1 101 0
	mov	r1, r6, lsr #7
	.loc 1 102 0
	mov	r6, r6, asl #1
.LBE2988:
.LBE3007:
	.loc 1 138 0
	eorne	r9, fp, #120
.LBB3008:
.LBB2989:
	.loc 1 102 0
	orr	r6, r6, r0, lsr #7
.LBE2989:
.LBE3008:
.LBB3009:
.LBB3010:
	.loc 1 46 0
	ldr	r2, [sp, #292]
	ldr	r0, [sp, #276]
.LBE3010:
.LBE3009:
.LBB3016:
.LBB2990:
	.loc 1 101 0
	orr	r1, r1, ip, asl #1
	.loc 1 102 0
	strb	r6, [sp, #302]
	.loc 1 98 0
	orr	r7, r7, r4, asl #1
	.loc 1 101 0
	strb	r1, [sp, #301]
	.loc 1 100 0
	orr	r5, r5, sl, asl #1
	.loc 1 98 0
	strb	r7, [sp, #298]
.LBE2990:
.LBE3016:
	.loc 1 138 0
	mvnne	r9, r9
.LBB3017:
.LBB2991:
	.loc 1 100 0
	strb	r5, [sp, #300]
.LBE2991:
.LBE3017:
.LBB3018:
.LBB3011:
	.loc 1 46 0
	eor	r0, r0, r2
.LBE3011:
.LBE3018:
.LBB3019:
.LBB2992:
	.loc 1 99 0
	strb	r8, [sp, #299]
.LBE2992:
.LBE3019:
.LBE2963:
.LBE2962:
	.loc 1 494 0
	ldrd	r4, [sp, #32]
.LBB3048:
.LBB3040:
	.loc 1 138 0
	strneb	r9, [sp, #303]
.LVL357:
.LBB3020:
.LBB3012:
	.loc 1 47 0
	ldr	r3, [sp, #296]
.LBE3012:
.LBE3020:
.LBE3040:
.LBE3048:
	.loc 1 494 0
	orrs	r5, r4, r5
.LBB3049:
.LBB3041:
.LBB3021:
.LBB3013:
	.loc 1 48 0
	ldr	ip, [sp, #284]
	.loc 1 47 0
	ldr	r1, [sp, #280]
	.loc 1 48 0
	ldr	r2, [sp, #300]
	.loc 1 45 0
	ldr	r4, [sp, #272]
	.loc 1 47 0
	eor	r1, r1, r3
	.loc 1 48 0
	eor	r2, ip, r2
.LVL358:
.LBE3013:
.LBE3021:
.LBB3022:
.LBB3023:
	.loc 1 46 0
	ldr	r3, [sp, #244]
.LBE3023:
.LBE3022:
.LBB3031:
.LBB3014:
	.loc 1 45 0
	ldr	ip, [sp, #288]
.LBE3014:
.LBE3031:
.LBB3032:
.LBB3024:
	.loc 1 46 0
	eor	r0, r0, r3
.LBE3024:
.LBE3032:
.LBE3041:
.LBE3049:
.LBB3050:
.LBB3051:
	ldr	r5, [sp, #212]
.LBE3051:
.LBE3050:
.LBB3058:
.LBB3042:
.LBB3033:
.LBB3015:
	.loc 1 45 0
	eor	r3, r4, ip
.LBE3015:
.LBE3033:
.LBB3034:
.LBB3025:
	.loc 1 47 0
	ldr	ip, [sp, #248]
	.loc 1 48 0
	ldr	r6, [sp, #252]
.LBE3025:
.LBE3034:
.LBE3042:
.LBE3058:
.LBB3059:
.LBB3052:
	.loc 1 46 0
	eor	r4, r0, r5
.LBE3052:
.LBE3059:
.LBB3060:
.LBB3043:
.LBB3035:
.LBB3026:
	.loc 1 47 0
	eor	r1, r1, ip
	.loc 1 45 0
	ldr	ip, [sp, #240]
	.loc 1 48 0
	eor	r2, r2, r6
	.loc 1 46 0
	str	r0, [sp, #148]
.LBE3026:
.LBE3035:
.LBE3043:
.LBE3060:
.LBB3061:
.LBB3053:
	.loc 1 47 0
	ldr	r0, [sp, #216]
.LBE3053:
.LBE3061:
.LBB3062:
.LBB3044:
.LBB3036:
.LBB3027:
	.loc 1 45 0
	eor	r3, r3, ip
.LBE3027:
.LBE3036:
.LBE3044:
.LBE3062:
.LBB3063:
.LBB3054:
	.loc 1 48 0
	ldr	r5, [sp, #220]
	.loc 1 45 0
	ldr	r6, [sp, #208]
	.loc 1 47 0
	eor	ip, r1, r0
.LBE3054:
.LBE3063:
.LBB3064:
.LBB3045:
.LBB3037:
.LBB3028:
	str	r1, [sp, #152]
.LBE3028:
.LBE3037:
.LBE3045:
.LBE3064:
.LBB3065:
.LBB3055:
	.loc 1 48 0
	eor	r0, r2, r5
	.loc 1 45 0
	eor	r1, r3, r6
	.loc 1 46 0
	str	r4, [sp, #276]
	.loc 1 47 0
	str	ip, [sp, #280]
.LBE3055:
.LBE3065:
.LBB3066:
.LBB3046:
.LBB3038:
.LBB3029:
	.loc 1 48 0
	str	r2, [sp, #156]
.LVL359:
.LBE3029:
.LBE3038:
.LBE3046:
.LBE3066:
.LBB3067:
.LBB3056:
	str	r0, [sp, #284]
.LBE3056:
.LBE3067:
.LBB3068:
.LBB3047:
.LBB3039:
.LBB3030:
	.loc 1 45 0
	str	r3, [sp, #144]
.LBE3030:
.LBE3039:
.LBE3047:
.LBE3068:
.LBB3069:
.LBB3057:
	str	r1, [sp, #272]
.LBE3057:
.LBE3069:
	.loc 1 494 0
	bne	.L354
.LVL360:
.LBB3070:
.LBB3071:
	.loc 1 68 0
	ldr	r8, [sp, #40]
	.loc 1 67 0
	ldr	r6, [sp, #56]
	ldr	r7, [sp, #112]
	str	r1, [r7, r6, asl #4]
	.loc 1 69 0
	stmib	r8, {r4, ip}
	.loc 1 70 0
	str	r0, [r8, #12]
.LVL361:
.L331:
.LBE3071:
.LBE3070:
	.loc 1 508 0
	movw	ip, #:lower16:__stack_chk_guard
	movt	ip, #:upper16:__stack_chk_guard
	ldr	r2, [sp, #500]
	mov	r0, #0
	ldr	r3, [ip, #0]
	cmp	r2, r3
	bne	.L412
	add	sp, sp, #508
	ldmfd	sp!, {r4, r5, r6, r7, r8, r9, sl, fp, pc}
.LVL362:
.L354:
.LBB3072:
.LBB3073:
.LBB3074:
	.loc 2 51 0
	ldr	r1, [sp, #96]
	mov	r3, #32
	ldr	r2, [sp, #32]
	add	r0, sp, #288
.LVL363:
	bl	__memcpy_chk
.LVL364:
	add	ip, sp, #272
.LVL365:
	ldr	r9, [sp, #32]
	add	sl, sp, #504
	ldmia	ip!, {r0, r1, r2, r3}
.LVL366:
	add	lr, sl, r9
	str	r0, [lr, #-216]	@ unaligned
.LBE3074:
.LBE3073:
	.loc 1 502 0
	add	r0, sp, #288
.LVL367:
.LBB3078:
.LBB3075:
	.loc 2 51 0
	str	r1, [lr, #-212]	@ unaligned
.LBE3075:
.LBE3078:
	.loc 1 502 0
	mov	r1, r9
.LBB3079:
.LBB3076:
	.loc 2 51 0
	str	r2, [lr, #-208]	@ unaligned
.LBE3076:
.LBE3079:
	.loc 1 502 0
	add	r2, sp, #240
.LVL368:
.LBB3080:
.LBB3077:
	.loc 2 51 0
	str	r3, [lr, #-204]	@ unaligned
.LBE3077:
.LBE3080:
	.loc 1 502 0
	add	r3, sp, #324
	bl	xls
.LVL369:
.LBB3081:
.LBB3082:
	.loc 2 51 0
	ldr	fp, [sp, #32]
	ldr	r0, [sp, #40]
	add	r1, sp, #288
.LVL370:
	add	r2, fp, #16
.LVL371:
	bl	memcpy
.LVL372:
	b	.L331
.LVL373:
.L411:
.LBE3082:
.LBE3081:
.LBE3072:
.LBB3083:
.LBB2549:
.LBB1921:
.LBB1922:
	.loc 1 70 0
	ldr	r0, [sp, #156]
	.loc 1 69 0
	ldr	r1, [sp, #152]
.LBE1922:
.LBE1921:
.LBB1929:
.LBB1930:
.LBB1931:
.LBB1932:
	.loc 1 101 0
	ubfx	r5, r0, #16, #8
	.loc 1 100 0
	ubfx	r4, r0, #8, #8
	.loc 1 102 0
	mov	r7, r0, lsr #24
.LVL374:
	.loc 1 99 0
	uxtb	lr, r0
.LBE1932:
.LBE1931:
.LBE1930:
.LBE1929:
.LBB2166:
.LBB1923:
	.loc 1 70 0
	str	r0, [sp, #172]
.LBE1923:
.LBE2166:
.LBB2167:
.LBB2145:
.LBB1994:
.LBB1933:
	.loc 1 98 0
	mov	ip, r1, lsr #24
	.loc 1 104 0
	mov	r0, r7, asl #1
	.loc 1 102 0
	mov	r7, r7, lsr #7
	orr	r7, r7, r5, asl #1
	.loc 1 101 0
	mov	r5, r5, lsr #7
	orr	r5, r5, r4, asl #1
	.loc 1 100 0
	mov	r4, r4, lsr #7
.LBE1933:
.LBE1994:
.LBE2145:
.LBE2167:
.LBB2168:
.LBB1924:
	.loc 1 68 0
	ldr	r2, [sp, #148]
.LBE1924:
.LBE2168:
.LBB2169:
.LBB2146:
.LBB1995:
.LBB1934:
	.loc 1 100 0
	orr	r4, r4, lr, asl #1
.LBE1934:
.LBE1995:
.LBE2146:
.LBE2169:
	.loc 1 212 0
	str	r6, [sp, #224]
.LBB2170:
.LBB2147:
.LBB1996:
.LBB1935:
	.loc 1 99 0
	mov	lr, lr, lsr #7
.LBE1935:
.LBE1996:
.LBE2147:
.LBE2170:
	.loc 1 212 0
	str	r6, [sp, #228]
.LBB2171:
.LBB2148:
.LBB1997:
.LBB1936:
	.loc 1 99 0
	orr	lr, lr, ip, asl #1
.LBE1936:
.LBE1997:
.LBE2148:
.LBE2171:
	.loc 1 212 0
	str	r6, [sp, #232]
.LBB2172:
.LBB2149:
.LBB1998:
.LBB1937:
	.loc 1 98 0
	mov	ip, ip, lsr #7
.LBE1937:
.LBE1998:
.LBE2149:
.LBE2172:
	.loc 1 212 0
	str	r6, [sp, #236]
.LBB2173:
.LBB2150:
.LBB1999:
.LBB1938:
	.loc 1 97 0
	ubfx	r6, r1, #16, #8
.LBE1938:
.LBE1999:
.LBE2150:
.LBE2173:
.LBB2174:
.LBB1925:
	.loc 1 67 0
	ldr	r3, [sp, #144]
.LBE1925:
.LBE2174:
.LBB2175:
.LBB2151:
.LBB2000:
.LBB1939:
	.loc 1 104 0
	uxtb	r0, r0
	.loc 1 101 0
	strb	r5, [sp, #301]
	.loc 1 96 0
	ubfx	r5, r1, #8, #8
.LBE1939:
.LBE2000:
.LBE2151:
.LBE2175:
.LBB2176:
.LBB1926:
	.loc 1 69 0
	str	r1, [sp, #168]
.LBE1926:
.LBE2176:
.LBB2177:
.LBB2152:
.LBB2001:
.LBB1940:
	.loc 1 98 0
	orr	ip, ip, r6, asl #1
	.loc 1 95 0
	uxtb	r1, r1
	.loc 1 97 0
	mov	r6, r6, lsr #7
	.loc 1 100 0
	strb	r4, [sp, #300]
	.loc 1 97 0
	orr	r6, r6, r5, asl #1
	.loc 1 94 0
	mov	r4, r2, lsr #24
	.loc 1 96 0
	mov	r5, r5, lsr #7
	.loc 1 99 0
	strb	lr, [sp, #299]
	.loc 1 96 0
	orr	r5, r5, r1, asl #1
	.loc 1 93 0
	ubfx	lr, r2, #16, #8
	.loc 1 98 0
	strb	ip, [sp, #298]
	.loc 1 97 0
	strb	r6, [sp, #297]
	.loc 1 92 0
	ubfx	ip, r2, #8, #8
	.loc 1 91 0
	uxtb	r6, r2
.LBE1940:
.LBE2001:
.LBE2152:
.LBE2177:
.LBB2178:
.LBB1927:
	.loc 1 68 0
	str	r2, [sp, #164]
.LBE1927:
.LBE2178:
.LBB2179:
.LBB2153:
.LBB2002:
.LBB1941:
	.loc 1 95 0
	mov	r1, r1, lsr #7
.LBE1941:
.LBE2002:
	.loc 1 119 0
	uxtb	r2, r3
	.loc 1 121 0
	movs	sl, r2, lsr #7
.LBB2003:
.LBB1942:
	.loc 1 102 0
	strb	r7, [sp, #302]
	.loc 1 95 0
	orr	r1, r1, r4, asl #1
	.loc 1 89 0
	ubfx	r7, r3, #16, #8
	.loc 1 94 0
	mov	r4, r4, lsr #7
	.loc 1 104 0
	strb	r0, [sp, #303]
	.loc 1 95 0
	strb	r1, [sp, #295]
.LBE1942:
.LBE2003:
	.loc 1 122 0
	eorne	r0, r0, #120
.LBB2004:
.LBB1943:
	.loc 1 88 0
	ubfx	r1, r3, #8, #8
	.loc 1 94 0
	orr	r4, r4, lr, asl #1
	.loc 1 93 0
	mov	lr, lr, lsr #7
	.loc 1 96 0
	strb	r5, [sp, #296]
	.loc 1 93 0
	orr	lr, lr, ip, asl #1
	.loc 1 90 0
	mov	r5, r3, lsr #24
.LBE1943:
.LBE2004:
.LBE2153:
.LBE2179:
.LBB2180:
.LBB1928:
	.loc 1 67 0
	str	r3, [sp, #160]
.LBE1928:
.LBE2180:
.LBB2181:
.LBB2154:
.LBB2005:
.LBB1944:
	.loc 1 92 0
	mov	ip, ip, lsr #7
	.loc 1 89 0
	mov	r3, r7, lsr #7
	.loc 1 92 0
	orr	ip, ip, r6, asl #1
	.loc 1 89 0
	orr	r3, r3, r1, asl #1
	.loc 1 92 0
	strb	ip, [sp, #292]
	.loc 1 89 0
	strb	r3, [sp, #289]
	.loc 1 88 0
	mov	ip, r1, lsr #7
.LBE1944:
.LBE2005:
	.loc 1 122 0
	mvnne	r0, r0
.LBB2006:
.LBB2007:
	.loc 1 48 0
	ldr	r1, [sp, #172]
.LBE2007:
.LBE2006:
	.loc 1 122 0
	strneb	r0, [sp, #303]
.LBB2052:
.LBB1945:
	.loc 1 91 0
	mov	r6, r6, lsr #7
.LBE1945:
.LBE2052:
.LBB2053:
.LBB2008:
	.loc 1 48 0
	ldr	r3, [sp, #300]
.LBE2008:
.LBE2053:
.LBB2054:
.LBB1946:
	.loc 1 91 0
	orr	r6, r6, r5, asl #1
	.loc 1 88 0
	orr	r2, ip, r2, asl #1
.LBE1946:
.LBE2054:
.LBB2055:
.LBB2009:
	.loc 1 47 0
	ldr	r0, [sp, #168]
	.loc 1 48 0
	eor	r3, r1, r3
.LBE2009:
.LBE2055:
.LBB2056:
.LBB1947:
	.loc 1 88 0
	strb	r2, [sp, #288]
	.loc 1 90 0
	mov	r5, r5, lsr #7
.LBE1947:
.LBE2056:
.LBB2057:
.LBB2010:
	.loc 1 47 0
	ldr	r2, [sp, #296]
.LBE2010:
.LBE2057:
.LBB2058:
.LBB1948:
	.loc 1 91 0
	strb	r6, [sp, #291]
	.loc 1 90 0
	orr	r5, r5, r7, asl #1
	.loc 1 102 0
	mov	ip, r3, lsr #24
	.loc 1 90 0
	strb	r5, [sp, #290]
.LBE1948:
.LBE2058:
.LBB2059:
.LBB2011:
	.loc 1 47 0
	eor	r2, r0, r2
.LBE2011:
.LBE2059:
.LBB2060:
.LBB1949:
	.loc 1 94 0
	strb	r4, [sp, #294]
	.loc 1 93 0
	strb	lr, [sp, #293]
	.loc 1 101 0
	ubfx	r7, r3, #16, #8
.LBE1949:
.LBE2060:
.LBB2061:
.LBB2012:
	.loc 1 45 0
	ldr	r4, [sp, #288]
.LBE2012:
.LBE2061:
.LBB2062:
.LBB1950:
	.loc 1 100 0
	ubfx	r5, r3, #8, #8
.LBE1950:
.LBE2062:
.LBB2063:
.LBB2013:
	.loc 1 45 0
	ldr	r0, [sp, #160]
.LBE2013:
.LBE2063:
.LBB2064:
.LBB1951:
	.loc 1 104 0
	mov	r6, ip, asl #1
.LBE1951:
.LBE2064:
.LBB2065:
.LBB2014:
	.loc 1 46 0
	ldr	lr, [sp, #164]
.LBE2014:
.LBE2065:
.LBB2066:
.LBB1952:
	.loc 1 102 0
	mov	ip, ip, lsr #7
.LBE1952:
.LBE2066:
.LBB2067:
.LBB2015:
	.loc 1 46 0
	ldr	r1, [sp, #292]
	.loc 1 45 0
	eor	r0, r0, r4
.LBE2015:
.LBE2067:
.LBB2068:
.LBB1953:
	.loc 1 102 0
	orr	ip, ip, r7, asl #1
	.loc 1 99 0
	uxtb	r4, r3
	.loc 1 101 0
	mov	r7, r7, lsr #7
.LBE1953:
.LBE2068:
.LBB2069:
.LBB2016:
	.loc 1 46 0
	eor	r1, lr, r1
.LBE2016:
.LBE2069:
.LBB2070:
.LBB1954:
	.loc 1 101 0
	orr	r7, r7, r5, asl #1
	.loc 1 98 0
	mov	lr, r2, lsr #24
	.loc 1 100 0
	mov	r5, r5, lsr #7
	.loc 1 104 0
	uxtb	r6, r6
	.loc 1 100 0
	orr	r5, r5, r4, asl #1
.LBE1954:
.LBE2070:
.LBE2154:
.LBE2181:
.LBE2549:
.LBE3083:
	.loc 1 451 0
	ldr	r8, [sp, #544]
.LVL375:
.LBB3084:
.LBB2550:
.LBB2182:
.LBB2155:
.LBB2071:
.LBB1955:
	.loc 1 99 0
	mov	r4, r4, lsr #7
	.loc 1 104 0
	strb	r6, [sp, #303]
	.loc 1 102 0
	strb	ip, [sp, #302]
	.loc 1 97 0
	ubfx	ip, r2, #16, #8
	.loc 1 101 0
	strb	r7, [sp, #301]
	.loc 1 99 0
	orr	r4, r4, lr, asl #1
	.loc 1 96 0
	ubfx	r7, r2, #8, #8
	.loc 1 98 0
	mov	lr, lr, lsr #7
	.loc 1 100 0
	strb	r5, [sp, #300]
	.loc 1 98 0
	orr	lr, lr, ip, asl #1
	.loc 1 95 0
	uxtb	r5, r2
	.loc 1 97 0
	mov	ip, ip, lsr #7
	.loc 1 99 0
	strb	r4, [sp, #299]
	.loc 1 97 0
	orr	ip, ip, r7, asl #1
	.loc 1 94 0
	mov	r4, r1, lsr #24
	.loc 1 96 0
	mov	r7, r7, lsr #7
	.loc 1 98 0
	strb	lr, [sp, #298]
	.loc 1 96 0
	orr	r7, r7, r5, asl #1
	.loc 1 93 0
	ubfx	lr, r1, #16, #8
	.loc 1 95 0
	mov	r5, r5, lsr #7
	.loc 1 97 0
	strb	ip, [sp, #297]
	.loc 1 95 0
	orr	r5, r5, r4, asl #1
	.loc 1 92 0
	ubfx	ip, r1, #8, #8
	.loc 1 94 0
	mov	r4, r4, lsr #7
	.loc 1 96 0
	strb	r7, [sp, #296]
	.loc 1 94 0
	orr	r4, r4, lr, asl #1
	.loc 1 91 0
	uxtb	r7, r1
	.loc 1 93 0
	mov	lr, lr, lsr #7
	.loc 1 95 0
	strb	r5, [sp, #295]
	.loc 1 93 0
	orr	lr, lr, ip, asl #1
	.loc 1 90 0
	mov	r5, r0, lsr #24
	.loc 1 92 0
	mov	ip, ip, lsr #7
	.loc 1 94 0
	strb	r4, [sp, #294]
	.loc 1 92 0
	orr	ip, ip, r7, asl #1
	.loc 1 89 0
	ubfx	r4, r0, #16, #8
	.loc 1 92 0
	strb	ip, [sp, #292]
	.loc 1 91 0
	mov	r7, r7, lsr #7
.LBE1955:
.LBE2071:
	.loc 1 119 0
	uxtb	ip, r0
.LVL376:
	.loc 1 121 0
	movs	fp, ip, lsr #7
.LBB2072:
.LBB1956:
	.loc 1 93 0
	strb	lr, [sp, #293]
	.loc 1 91 0
	orr	r7, r7, r5, asl #1
	.loc 1 88 0
	ubfx	lr, r0, #8, #8
	.loc 1 90 0
	mov	r5, r5, lsr #7
.LBE1956:
.LBE2072:
	.loc 1 122 0
	eorne	r6, r6, #120
.LBB2073:
.LBB1957:
	.loc 1 90 0
	orr	r5, r5, r4, asl #1
	.loc 1 89 0
	mov	r4, r4, lsr #7
	orr	r4, r4, lr, asl #1
	.loc 1 88 0
	mov	lr, lr, lsr #7
	orr	lr, lr, ip, asl #1
.LBE1957:
.LBE2073:
	.loc 1 122 0
	mvnne	r6, r6
.LBB2074:
.LBB1958:
	.loc 1 88 0
	strb	lr, [sp, #288]
.LBE1958:
.LBE2074:
	.loc 1 122 0
	strneb	r6, [sp, #303]
.LBB2075:
.LBB2017:
	.loc 1 48 0
	ldr	lr, [sp, #300]
	.loc 1 47 0
	ldr	ip, [sp, #296]
.LVL377:
	.loc 1 48 0
	eor	r3, r3, lr
.LBE2017:
.LBE2075:
.LBB2076:
.LBB1959:
	.loc 1 91 0
	strb	r7, [sp, #291]
	.loc 1 90 0
	strb	r5, [sp, #290]
.LBE1959:
.LBE2076:
.LBB2077:
.LBB2018:
	.loc 1 47 0
	eor	r2, r2, ip
.LBE2018:
.LBE2077:
.LBB2078:
.LBB1960:
	.loc 1 89 0
	strb	r4, [sp, #289]
	.loc 1 102 0
	mov	r7, r3, lsr #24
.LBE1960:
.LBE2078:
.LBB2079:
.LBB2019:
	.loc 1 45 0
	ldr	ip, [sp, #288]
.LBE2019:
.LBE2079:
.LBB2080:
.LBB1961:
	.loc 1 100 0
	ubfx	r5, r3, #8, #8
.LBE1961:
.LBE2080:
.LBB2081:
.LBB2020:
	.loc 1 46 0
	ldr	lr, [sp, #292]
.LBE2020:
.LBE2081:
.LBB2082:
.LBB1962:
	.loc 1 104 0
	mov	r6, r7, asl #1
.LBE1962:
.LBE2082:
.LBB2083:
.LBB2021:
	.loc 1 45 0
	eor	r0, r0, ip
.LVL378:
.LBE2021:
.LBE2083:
.LBB2084:
.LBB1963:
	.loc 1 101 0
	ubfx	ip, r3, #16, #8
	.loc 1 102 0
	mov	r7, r7, lsr #7
	.loc 1 99 0
	uxtb	r4, r3
	.loc 1 102 0
	orr	r7, r7, ip, asl #1
	.loc 1 101 0
	mov	ip, ip, lsr #7
.LBE1963:
.LBE2084:
.LBB2085:
.LBB2022:
	.loc 1 46 0
	eor	r1, r1, lr
.LBE2022:
.LBE2085:
.LBB2086:
.LBB1964:
	.loc 1 101 0
	orr	ip, ip, r5, asl #1
	.loc 1 98 0
	mov	lr, r2, lsr #24
	.loc 1 100 0
	mov	r5, r5, lsr #7
	orr	r5, r5, r4, asl #1
	.loc 1 101 0
	strb	ip, [sp, #301]
	.loc 1 99 0
	mov	r4, r4, lsr #7
	.loc 1 97 0
	ubfx	ip, r2, #16, #8
	.loc 1 99 0
	orr	r4, r4, lr, asl #1
	.loc 1 102 0
	strb	r7, [sp, #302]
	.loc 1 98 0
	mov	lr, lr, lsr #7
	.loc 1 96 0
	ubfx	r7, r2, #8, #8
	.loc 1 98 0
	orr	lr, lr, ip, asl #1
	.loc 1 100 0
	strb	r5, [sp, #300]
	.loc 1 97 0
	mov	ip, ip, lsr #7
	.loc 1 95 0
	uxtb	r5, r2
	.loc 1 97 0
	orr	ip, ip, r7, asl #1
	.loc 1 99 0
	strb	r4, [sp, #299]
	.loc 1 96 0
	mov	r7, r7, lsr #7
	.loc 1 94 0
	mov	r4, r1, lsr #24
	.loc 1 96 0
	orr	r7, r7, r5, asl #1
	.loc 1 98 0
	strb	lr, [sp, #298]
	.loc 1 95 0
	mov	r5, r5, lsr #7
	.loc 1 93 0
	ubfx	lr, r1, #16, #8
	.loc 1 95 0
	orr	r5, r5, r4, asl #1
	.loc 1 97 0
	strb	ip, [sp, #297]
	.loc 1 94 0
	mov	r4, r4, lsr #7
	.loc 1 92 0
	ubfx	ip, r1, #8, #8
	.loc 1 94 0
	orr	r4, r4, lr, asl #1
	.loc 1 96 0
	strb	r7, [sp, #296]
	.loc 1 93 0
	mov	lr, lr, lsr #7
	.loc 1 91 0
	uxtb	r7, r1
	.loc 1 93 0
	orr	lr, lr, ip, asl #1
	.loc 1 95 0
	strb	r5, [sp, #295]
	.loc 1 92 0
	mov	ip, ip, lsr #7
	.loc 1 90 0
	mov	r5, r0, lsr #24
	.loc 1 92 0
	orr	ip, ip, r7, asl #1
	.loc 1 94 0
	strb	r4, [sp, #294]
	.loc 1 92 0
	strb	ip, [sp, #292]
	.loc 1 89 0
	ubfx	r4, r0, #16, #8
.LBE1964:
.LBE2086:
	.loc 1 119 0
	uxtb	ip, r0
.LVL379:
.LBB2087:
.LBB1965:
	.loc 1 91 0
	mov	r7, r7, lsr #7
.LBE1965:
.LBE2087:
	.loc 1 121 0
	movs	r9, ip, lsr #7
.LVL380:
.LBB2088:
.LBB1966:
	.loc 1 104 0
	uxtb	r6, r6
	.loc 1 91 0
	orr	r7, r7, r5, asl #1
	.loc 1 93 0
	strb	lr, [sp, #293]
	.loc 1 90 0
	mov	r5, r5, lsr #7
	.loc 1 88 0
	ubfx	lr, r0, #8, #8
	.loc 1 104 0
	strb	r6, [sp, #303]
	.loc 1 90 0
	orr	r5, r5, r4, asl #1
.LBE1966:
.LBE2088:
	.loc 1 122 0
	eorne	r6, r6, #120
.LBB2089:
.LBB1967:
	.loc 1 89 0
	mov	r4, r4, lsr #7
	orr	r4, r4, lr, asl #1
	.loc 1 88 0
	mov	lr, lr, lsr #7
	orr	lr, lr, ip, asl #1
.LBE1967:
.LBE2089:
	.loc 1 122 0
	mvnne	r6, r6
.LBB2090:
.LBB1968:
	.loc 1 91 0
	strb	r7, [sp, #291]
	.loc 1 90 0
	strb	r5, [sp, #290]
.LBE1968:
.LBE2090:
	.loc 1 122 0
	strneb	r6, [sp, #303]
.LBB2091:
.LBB1969:
	.loc 1 88 0
	strb	lr, [sp, #288]
.LBE1969:
.LBE2091:
.LBB2092:
.LBB2023:
	.loc 1 48 0
	ldr	lr, [sp, #300]
	.loc 1 47 0
	ldr	ip, [sp, #296]
.LVL381:
	.loc 1 48 0
	eor	r3, r3, lr
.LBE2023:
.LBE2092:
.LBB2093:
.LBB1970:
	.loc 1 89 0
	strb	r4, [sp, #289]
.LBE1970:
.LBE2093:
.LBB2094:
.LBB2024:
	.loc 1 47 0
	eor	r2, r2, ip
	.loc 1 45 0
	ldr	ip, [sp, #288]
.LBE2024:
.LBE2094:
.LBB2095:
.LBB1971:
	.loc 1 102 0
	mov	r7, r3, lsr #24
.LBE1971:
.LBE2095:
.LBB2096:
.LBB2025:
	.loc 1 46 0
	ldr	lr, [sp, #292]
	.loc 1 45 0
	eor	r0, r0, ip
.LVL382:
.LBE2025:
.LBE2096:
.LBB2097:
.LBB1972:
	.loc 1 101 0
	ubfx	ip, r3, #16, #8
	.loc 1 100 0
	ubfx	r5, r3, #8, #8
	.loc 1 104 0
	mov	r6, r7, asl #1
	.loc 1 102 0
	mov	r7, r7, lsr #7
	.loc 1 99 0
	uxtb	r4, r3
	.loc 1 102 0
	orr	r7, r7, ip, asl #1
	.loc 1 101 0
	mov	ip, ip, lsr #7
.LBE1972:
.LBE2097:
.LBB2098:
.LBB2026:
	.loc 1 46 0
	eor	r1, r1, lr
.LBE2026:
.LBE2098:
.LBB2099:
.LBB1973:
	.loc 1 101 0
	orr	ip, ip, r5, asl #1
	.loc 1 98 0
	mov	lr, r2, lsr #24
	.loc 1 100 0
	mov	r5, r5, lsr #7
	.loc 1 101 0
	strb	ip, [sp, #301]
	.loc 1 100 0
	orr	r5, r5, r4, asl #1
	.loc 1 97 0
	ubfx	ip, r2, #16, #8
	.loc 1 99 0
	mov	r4, r4, lsr #7
	.loc 1 102 0
	strb	r7, [sp, #302]
	.loc 1 99 0
	orr	r4, r4, lr, asl #1
	.loc 1 96 0
	ubfx	r7, r2, #8, #8
	.loc 1 98 0
	mov	lr, lr, lsr #7
	.loc 1 100 0
	strb	r5, [sp, #300]
	.loc 1 98 0
	orr	lr, lr, ip, asl #1
	.loc 1 95 0
	uxtb	r5, r2
	.loc 1 97 0
	mov	ip, ip, lsr #7
	.loc 1 99 0
	strb	r4, [sp, #299]
	.loc 1 97 0
	orr	ip, ip, r7, asl #1
	.loc 1 94 0
	mov	r4, r1, lsr #24
	.loc 1 96 0
	mov	r7, r7, lsr #7
	.loc 1 98 0
	strb	lr, [sp, #298]
	.loc 1 96 0
	orr	r7, r7, r5, asl #1
	.loc 1 93 0
	ubfx	lr, r1, #16, #8
	.loc 1 95 0
	mov	r5, r5, lsr #7
	.loc 1 97 0
	strb	ip, [sp, #297]
	.loc 1 95 0
	orr	r5, r5, r4, asl #1
	.loc 1 92 0
	ubfx	ip, r1, #8, #8
	.loc 1 94 0
	mov	r4, r4, lsr #7
	.loc 1 96 0
	strb	r7, [sp, #296]
	.loc 1 94 0
	orr	r4, r4, lr, asl #1
	.loc 1 91 0
	uxtb	r7, r1
	.loc 1 93 0
	mov	lr, lr, lsr #7
	.loc 1 95 0
	strb	r5, [sp, #295]
	.loc 1 93 0
	orr	lr, lr, ip, asl #1
	.loc 1 90 0
	mov	r5, r0, lsr #24
	.loc 1 92 0
	mov	ip, ip, lsr #7
	.loc 1 94 0
	strb	r4, [sp, #294]
	.loc 1 92 0
	orr	ip, ip, r7, asl #1
	.loc 1 89 0
	ubfx	r4, r0, #16, #8
	.loc 1 92 0
	strb	ip, [sp, #292]
	.loc 1 91 0
	mov	r7, r7, lsr #7
.LBE1973:
.LBE2099:
	.loc 1 119 0
	uxtb	ip, r0
.LVL383:
	.loc 1 121 0
	movs	sl, ip, lsr #7
.LBB2100:
.LBB1974:
	.loc 1 104 0
	uxtb	r6, r6
	.loc 1 93 0
	strb	lr, [sp, #293]
	.loc 1 91 0
	orr	r7, r7, r5, asl #1
	.loc 1 88 0
	ubfx	lr, r0, #8, #8
	.loc 1 90 0
	mov	r5, r5, lsr #7
	.loc 1 104 0
	strb	r6, [sp, #303]
	.loc 1 90 0
	orr	r5, r5, r4, asl #1
.LBE1974:
.LBE2100:
	.loc 1 122 0
	eorne	r6, r6, #120
.LBB2101:
.LBB1975:
	.loc 1 89 0
	mov	r4, r4, lsr #7
	orr	r4, r4, lr, asl #1
	.loc 1 88 0
	mov	lr, lr, lsr #7
	orr	lr, lr, ip, asl #1
.LBE1975:
.LBE2101:
	.loc 1 122 0
	mvnne	r6, r6
.LBB2102:
.LBB1976:
	.loc 1 88 0
	strb	lr, [sp, #288]
.LBE1976:
.LBE2102:
	.loc 1 122 0
	strneb	r6, [sp, #303]
.LBB2103:
.LBB2027:
	.loc 1 48 0
	ldr	lr, [sp, #300]
	.loc 1 47 0
	ldr	ip, [sp, #296]
.LVL384:
	.loc 1 48 0
	eor	r3, r3, lr
.LBE2027:
.LBE2103:
.LBB2104:
.LBB1977:
	.loc 1 91 0
	strb	r7, [sp, #291]
	.loc 1 90 0
	strb	r5, [sp, #290]
.LBE1977:
.LBE2104:
.LBB2105:
.LBB2028:
	.loc 1 47 0
	eor	r2, r2, ip
.LBE2028:
.LBE2105:
.LBB2106:
.LBB1978:
	.loc 1 89 0
	strb	r4, [sp, #289]
	.loc 1 102 0
	mov	r7, r3, lsr #24
.LBE1978:
.LBE2106:
.LBB2107:
.LBB2029:
	.loc 1 45 0
	ldr	ip, [sp, #288]
.LBE2029:
.LBE2107:
.LBB2108:
.LBB1979:
	.loc 1 100 0
	ubfx	r5, r3, #8, #8
.LBE1979:
.LBE2108:
.LBB2109:
.LBB2030:
	.loc 1 46 0
	ldr	lr, [sp, #292]
.LBE2030:
.LBE2109:
.LBB2110:
.LBB1980:
	.loc 1 104 0
	mov	r6, r7, asl #1
.LBE1980:
.LBE2110:
.LBB2111:
.LBB2031:
	.loc 1 45 0
	eor	r0, r0, ip
.LVL385:
.LBE2031:
.LBE2111:
.LBB2112:
.LBB1981:
	.loc 1 101 0
	ubfx	ip, r3, #16, #8
	.loc 1 102 0
	mov	r7, r7, lsr #7
	.loc 1 99 0
	uxtb	r4, r3
	.loc 1 102 0
	orr	r7, r7, ip, asl #1
	.loc 1 101 0
	mov	ip, ip, lsr #7
.LBE1981:
.LBE2112:
.LBB2113:
.LBB2032:
	.loc 1 46 0
	eor	r1, r1, lr
.LBE2032:
.LBE2113:
.LBB2114:
.LBB1982:
	.loc 1 101 0
	orr	ip, ip, r5, asl #1
	.loc 1 98 0
	mov	lr, r2, lsr #24
	.loc 1 100 0
	mov	r5, r5, lsr #7
	orr	r5, r5, r4, asl #1
	.loc 1 101 0
	strb	ip, [sp, #301]
	.loc 1 99 0
	mov	r4, r4, lsr #7
	.loc 1 97 0
	ubfx	ip, r2, #16, #8
	.loc 1 99 0
	orr	r4, r4, lr, asl #1
	.loc 1 102 0
	strb	r7, [sp, #302]
	.loc 1 98 0
	mov	lr, lr, lsr #7
	.loc 1 96 0
	ubfx	r7, r2, #8, #8
	.loc 1 98 0
	orr	lr, lr, ip, asl #1
	.loc 1 100 0
	strb	r5, [sp, #300]
	.loc 1 97 0
	mov	ip, ip, lsr #7
	.loc 1 95 0
	uxtb	r5, r2
	.loc 1 97 0
	orr	ip, ip, r7, asl #1
	.loc 1 99 0
	strb	r4, [sp, #299]
	.loc 1 96 0
	mov	r7, r7, lsr #7
	.loc 1 94 0
	mov	r4, r1, lsr #24
	.loc 1 104 0
	uxtb	r6, r6
	.loc 1 96 0
	orr	r7, r7, r5, asl #1
	.loc 1 104 0
	strb	r6, [sp, #303]
	.loc 1 95 0
	mov	r5, r5, lsr #7
	.loc 1 98 0
	strb	lr, [sp, #298]
	.loc 1 93 0
	ubfx	lr, r1, #16, #8
	.loc 1 97 0
	strb	ip, [sp, #297]
	.loc 1 95 0
	orr	r5, r5, r4, asl #1
	.loc 1 92 0
	ubfx	ip, r1, #8, #8
	.loc 1 94 0
	mov	r4, r4, lsr #7
	.loc 1 96 0
	strb	r7, [sp, #296]
	.loc 1 94 0
	orr	r4, r4, lr, asl #1
	.loc 1 91 0
	uxtb	r7, r1
	.loc 1 93 0
	mov	lr, lr, lsr #7
	.loc 1 95 0
	strb	r5, [sp, #295]
	.loc 1 93 0
	orr	lr, lr, ip, asl #1
	.loc 1 90 0
	mov	r5, r0, lsr #24
	.loc 1 92 0
	mov	ip, ip, lsr #7
	.loc 1 94 0
	strb	r4, [sp, #294]
	.loc 1 92 0
	orr	ip, ip, r7, asl #1
	.loc 1 89 0
	ubfx	r4, r0, #16, #8
	.loc 1 92 0
	strb	ip, [sp, #292]
	.loc 1 91 0
	mov	r7, r7, lsr #7
.LBE1982:
.LBE2114:
	.loc 1 119 0
	uxtb	ip, r0
.LVL386:
	.loc 1 121 0
	movs	fp, ip, lsr #7
.LBB2115:
.LBB1983:
	.loc 1 93 0
	strb	lr, [sp, #293]
	.loc 1 91 0
	orr	r7, r7, r5, asl #1
	.loc 1 88 0
	ubfx	lr, r0, #8, #8
	.loc 1 90 0
	mov	r5, r5, lsr #7
.LBE1983:
.LBE2115:
	.loc 1 122 0
	eorne	r6, r6, #120
.LBB2116:
.LBB1984:
	.loc 1 90 0
	orr	r5, r5, r4, asl #1
	.loc 1 89 0
	mov	r4, r4, lsr #7
	orr	r4, r4, lr, asl #1
	.loc 1 88 0
	mov	lr, lr, lsr #7
	orr	lr, lr, ip, asl #1
.LBE1984:
.LBE2116:
	.loc 1 122 0
	mvnne	r6, r6
.LBB2117:
.LBB1985:
	.loc 1 88 0
	strb	lr, [sp, #288]
.LBE1985:
.LBE2117:
	.loc 1 122 0
	strneb	r6, [sp, #303]
.LBB2118:
.LBB2033:
	.loc 1 48 0
	ldr	lr, [sp, #300]
	.loc 1 47 0
	ldr	ip, [sp, #296]
.LVL387:
	.loc 1 48 0
	eor	r3, r3, lr
.LBE2033:
.LBE2118:
.LBB2119:
.LBB1986:
	.loc 1 91 0
	strb	r7, [sp, #291]
	.loc 1 90 0
	strb	r5, [sp, #290]
.LBE1986:
.LBE2119:
.LBB2120:
.LBB2034:
	.loc 1 47 0
	eor	r2, r2, ip
.LBE2034:
.LBE2120:
.LBB2121:
.LBB1987:
	.loc 1 89 0
	strb	r4, [sp, #289]
	.loc 1 102 0
	mov	r7, r3, lsr #24
.LBE1987:
.LBE2121:
.LBB2122:
.LBB2035:
	.loc 1 45 0
	ldr	ip, [sp, #288]
.LBE2035:
.LBE2122:
.LBB2123:
.LBB1988:
	.loc 1 100 0
	ubfx	r5, r3, #8, #8
.LBE1988:
.LBE2123:
.LBB2124:
.LBB2036:
	.loc 1 46 0
	ldr	lr, [sp, #292]
.LBE2036:
.LBE2124:
.LBB2125:
.LBB1989:
	.loc 1 104 0
	mov	r6, r7, asl #1
.LBE1989:
.LBE2125:
.LBB2126:
.LBB2037:
	.loc 1 45 0
	eor	r0, r0, ip
.LVL388:
.LBE2037:
.LBE2126:
.LBB2127:
.LBB1990:
	.loc 1 101 0
	ubfx	ip, r3, #16, #8
	.loc 1 102 0
	mov	r7, r7, lsr #7
	.loc 1 99 0
	uxtb	r4, r3
	.loc 1 102 0
	orr	r7, r7, ip, asl #1
	.loc 1 101 0
	mov	ip, ip, lsr #7
.LBE1990:
.LBE2127:
.LBB2128:
.LBB2038:
	.loc 1 46 0
	eor	r1, r1, lr
.LBE2038:
.LBE2128:
.LBB2129:
.LBB1991:
	.loc 1 101 0
	orr	ip, ip, r5, asl #1
	.loc 1 98 0
	mov	lr, r2, lsr #24
	.loc 1 100 0
	mov	r5, r5, lsr #7
	orr	r5, r5, r4, asl #1
	.loc 1 101 0
	strb	ip, [sp, #301]
	.loc 1 99 0
	mov	r4, r4, lsr #7
	.loc 1 97 0
	ubfx	ip, r2, #16, #8
	.loc 1 99 0
	orr	r4, r4, lr, asl #1
	.loc 1 102 0
	strb	r7, [sp, #302]
	.loc 1 98 0
	mov	lr, lr, lsr #7
	.loc 1 96 0
	ubfx	r7, r2, #8, #8
	.loc 1 98 0
	orr	lr, lr, ip, asl #1
	.loc 1 100 0
	strb	r5, [sp, #300]
	.loc 1 97 0
	mov	ip, ip, lsr #7
	.loc 1 95 0
	uxtb	r5, r2
	.loc 1 99 0
	strb	r4, [sp, #299]
	.loc 1 97 0
	orr	ip, ip, r7, asl #1
	.loc 1 94 0
	mov	r4, r1, lsr #24
	.loc 1 96 0
	mov	r7, r7, lsr #7
	.loc 1 98 0
	strb	lr, [sp, #298]
	.loc 1 96 0
	orr	r7, r7, r5, asl #1
	.loc 1 93 0
	ubfx	lr, r1, #16, #8
	.loc 1 95 0
	mov	r5, r5, lsr #7
	.loc 1 97 0
	strb	ip, [sp, #297]
	.loc 1 95 0
	orr	r5, r5, r4, asl #1
	.loc 1 92 0
	ubfx	ip, r1, #8, #8
	.loc 1 94 0
	mov	r4, r4, lsr #7
	.loc 1 96 0
	strb	r7, [sp, #296]
	.loc 1 94 0
	orr	r4, r4, lr, asl #1
	.loc 1 91 0
	uxtb	r7, r1
	.loc 1 93 0
	mov	lr, lr, lsr #7
	.loc 1 95 0
	strb	r5, [sp, #295]
	.loc 1 93 0
	orr	lr, lr, ip, asl #1
	.loc 1 90 0
	mov	r5, r0, lsr #24
	.loc 1 92 0
	mov	ip, ip, lsr #7
	.loc 1 94 0
	strb	r4, [sp, #294]
	.loc 1 92 0
	orr	ip, ip, r7, asl #1
	.loc 1 89 0
	ubfx	r4, r0, #16, #8
	.loc 1 91 0
	mov	r7, r7, lsr #7
	.loc 1 93 0
	strb	lr, [sp, #293]
	.loc 1 91 0
	orr	r7, r7, r5, asl #1
	.loc 1 88 0
	ubfx	lr, r0, #8, #8
	.loc 1 90 0
	mov	r5, r5, lsr #7
	.loc 1 92 0
	strb	ip, [sp, #292]
	.loc 1 90 0
	orr	r5, r5, r4, asl #1
.LBE1991:
.LBE2129:
	.loc 1 119 0
	uxtb	ip, r0
.LVL389:
.LBB2130:
.LBB1992:
	.loc 1 89 0
	mov	r4, r4, lsr #7
	orr	r4, r4, lr, asl #1
	.loc 1 88 0
	mov	lr, lr, lsr #7
.LBE1992:
.LBE2130:
	.loc 1 121 0
	movs	r9, ip, lsr #7
.LBB2131:
.LBB1993:
	.loc 1 104 0
	uxtb	r6, r6
	.loc 1 91 0
	strb	r7, [sp, #291]
	.loc 1 88 0
	orr	lr, lr, ip, asl #1
	.loc 1 90 0
	strb	r5, [sp, #290]
	.loc 1 88 0
	strb	lr, [sp, #288]
	.loc 1 89 0
	strb	r4, [sp, #289]
	.loc 1 104 0
	strb	r6, [sp, #303]
.LBE1993:
.LBE2131:
	.loc 1 122 0
	eorne	r6, r6, #120
.LBB2132:
.LBB2039:
	.loc 1 45 0
	ldr	r4, [sp, #288]
.LBE2039:
.LBE2132:
	.loc 1 122 0
	mvnne	r6, r6
.LBB2133:
.LBB2040:
	.loc 1 46 0
	ldr	lr, [sp, #292]
	.loc 1 45 0
	eor	r4, r0, r4
.LBE2040:
.LBE2133:
	.loc 1 122 0
	strneb	r6, [sp, #303]
.LBB2134:
.LBB2041:
	.loc 1 47 0
	ldr	ip, [sp, #296]
.LVL390:
	.loc 1 46 0
	eor	lr, r1, lr
	.loc 1 45 0
	str	r4, [sp, #48]
.LBE2041:
.LBE2134:
.LBE2155:
.LBE2182:
.LBB2183:
.LBB2184:
.LBB2185:
.LBB2186:
	.loc 1 90 0
	mov	fp, r4, lsr #24
.LBE2186:
.LBE2185:
.LBE2184:
.LBE2183:
.LBB2252:
.LBB2156:
.LBB2135:
.LBB2042:
	.loc 1 48 0
	ldr	r0, [sp, #300]
.LVL391:
	.loc 1 47 0
	eor	ip, r2, ip
	str	ip, [sp, #16]
.LBE2042:
.LBE2135:
.LBE2156:
.LBE2252:
.LBB2253:
.LBB2233:
.LBB2202:
.LBB2187:
	.loc 1 89 0
	ubfx	sl, r4, #16, #8
.LBE2187:
.LBE2202:
.LBE2233:
.LBE2253:
.LBB2254:
.LBB2157:
.LBB2136:
.LBB2043:
	.loc 1 48 0
	eor	r0, r3, r0
	str	r0, [sp, #28]
.LBE2043:
.LBE2136:
.LBE2157:
.LBE2254:
.LBB2255:
.LBB2234:
.LBB2203:
.LBB2188:
	.loc 1 90 0
	str	fp, [sp, #12]
	.loc 1 88 0
	ubfx	r9, r4, #8, #8
	.loc 1 97 0
	ldr	r3, [sp, #16]
	.loc 1 91 0
	uxtb	r7, lr
	.loc 1 99 0
	ldr	fp, [sp, #28]
	.loc 1 92 0
	ubfx	r6, lr, #8, #8
	.loc 1 97 0
	ubfx	r0, r3, #16, #8
	.loc 1 93 0
	ubfx	r5, lr, #16, #8
	.loc 1 98 0
	mov	r1, r3, lsr #24
	.loc 1 100 0
	ubfx	r3, fp, #8, #8
	.loc 1 99 0
	uxtb	r2, fp
	.loc 1 101 0
	ubfx	fp, fp, #16, #8
	str	fp, [sp, #72]
	.loc 1 94 0
	mov	r4, lr, lsr #24
	.loc 1 102 0
	ldr	fp, [sp, #28]
.LBE2188:
.LBE2203:
.LBE2234:
.LBE2255:
.LBB2256:
.LBB2158:
.LBB2137:
.LBB2044:
	.loc 1 46 0
	str	lr, [sp, #44]
.LBE2044:
.LBE2137:
.LBE2158:
.LBE2256:
.LBB2257:
.LBB2235:
.LBB2204:
.LBB2189:
	.loc 1 95 0
	uxtb	lr, ip
	.loc 1 96 0
	ubfx	ip, ip, #8, #8
	.loc 1 102 0
	mov	fp, fp, lsr #24
	str	fp, [sp, #32]
.LBE2189:
.LBE2204:
	.loc 1 119 0
	ldr	fp, [sp, #48]
	uxtb	fp, fp
	str	fp, [sp, #20]
.LBB2205:
.LBB2190:
	.loc 1 88 0
	mov	fp, r9, lsr #7
	str	fp, [sp, #40]
	.loc 1 89 0
	mov	fp, sl, lsr #7
	orr	r9, fp, r9, asl #1
	.loc 1 90 0
	ldr	fp, [sp, #12]
	.loc 1 89 0
	str	r9, [sp, #24]
	.loc 1 90 0
	mov	r9, fp, lsr #7
	orr	r9, r9, sl, asl #1
	.loc 1 91 0
	mov	sl, r7, lsr #7
	orr	sl, sl, fp, asl #1
	.loc 1 92 0
	mov	fp, r6, lsr #7
	orr	r7, fp, r7, asl #1
	str	r7, [sp, #12]
	.loc 1 93 0
	mov	r7, r5, lsr #7
	.loc 1 91 0
	uxtb	sl, sl
	.loc 1 93 0
	orr	r7, r7, r6, asl #1
	.loc 1 94 0
	mov	r6, r4, lsr #7
	orr	r6, r6, r5, asl #1
	.loc 1 95 0
	mov	r5, lr, lsr #7
	orr	r5, r5, r4, asl #1
	.loc 1 96 0
	mov	r4, ip, lsr #7
	orr	r4, r4, lr, asl #1
	.loc 1 97 0
	mov	lr, r0, lsr #7
	orr	lr, lr, ip, asl #1
	.loc 1 98 0
	mov	ip, r1, lsr #7
	orr	ip, ip, r0, asl #1
	.loc 1 99 0
	mov	r0, r2, lsr #7
	orr	r0, r0, r1, asl #1
	.loc 1 100 0
	mov	r1, r3, lsr #7
	orr	r1, r1, r2, asl #1
	str	r1, [sp, #92]
	.loc 1 101 0
	ldr	r1, [sp, #72]
	.loc 1 98 0
	uxtb	ip, ip
	.loc 1 90 0
	uxtb	r9, r9
	strb	r9, [sp, #290]
	.loc 1 96 0
	uxtb	r4, r4
	.loc 1 93 0
	uxtb	r7, r7
	.loc 1 101 0
	mov	r2, r1, lsr #7
	.loc 1 94 0
	uxtb	r6, r6
	.loc 1 101 0
	orr	r2, r2, r3, asl #1
	str	r2, [sp, #96]
	.loc 1 102 0
	ldr	r2, [sp, #32]
	.loc 1 95 0
	uxtb	r5, r5
	.loc 1 91 0
	str	sl, [sp, #32]
	.loc 1 97 0
	uxtb	lr, lr
.LBE2190:
.LBE2205:
.LBE2235:
.LBE2257:
.LBB2258:
.LBB2159:
.LBB2138:
.LBB2045:
	.loc 1 46 0
	ldr	sl, [sp, #44]
.LBE2045:
.LBE2138:
.LBE2159:
.LBE2258:
.LBB2259:
.LBB2236:
.LBB2206:
.LBB2191:
	.loc 1 99 0
	uxtb	r0, r0
	.loc 1 102 0
	mov	r3, r2, lsr #7
	.loc 1 104 0
	mov	r2, r2, asl #1
	.loc 1 102 0
	orr	fp, r3, r1, asl #1
.LBE2191:
.LBE2206:
.LBE2236:
	.loc 1 119 0
	ldr	r1, [sp, #20]
.LBB2237:
.LBB2207:
.LBB2192:
	.loc 1 104 0
	str	r2, [sp, #76]
	.loc 1 88 0
	ldr	r2, [sp, #40]
.LBE2192:
.LBE2207:
.LBE2237:
	.loc 1 119 0
	bic	r3, r1, #127
.LBB2238:
	.loc 1 121 0
	ands	r3, r3, #255
	str	r3, [sp, #104]
.LBB2208:
.LBB2193:
	.loc 1 88 0
	orr	r1, r2, r1, asl #1
.LBE2193:
.LBE2208:
.LBE2238:
.LBE2259:
.LBB2260:
.LBB2160:
.LBB2139:
.LBB2046:
	.loc 1 45 0
	ldr	r3, [sp, #48]
.LBE2046:
.LBE2139:
.LBE2160:
.LBE2260:
.LBB2261:
.LBB2239:
.LBB2209:
.LBB2194:
	.loc 1 88 0
	str	r1, [sp, #20]
	.loc 1 102 0
	uxtb	fp, fp
	.loc 1 89 0
	ldr	r1, [sp, #24]
	.loc 1 92 0
	ldr	r2, [sp, #12]
.LBE2194:
.LBE2209:
.LBE2239:
.LBE2261:
.LBB2262:
.LBB2161:
.LBB2140:
.LBB2047:
	.loc 1 45 0
	str	r3, [sp, #160]
.LBE2047:
.LBE2140:
.LBE2161:
.LBE2262:
.LBB2263:
.LBB2240:
.LBB2210:
.LBB2195:
	.loc 1 89 0
	uxtb	r3, r1
	strb	r3, [sp, #289]
	.loc 1 92 0
	uxtb	r2, r2
	str	r2, [sp, #40]
.LBE2195:
.LBE2210:
.LBE2240:
.LBE2263:
.LBB2264:
.LBB2162:
.LBB2141:
.LBB2048:
	.loc 1 46 0
	str	sl, [sp, #164]
.LBE2048:
.LBE2141:
.LBE2162:
.LBE2264:
.LBB2265:
.LBB2241:
.LBB2211:
.LBB2196:
	.loc 1 98 0
	str	ip, [sp, #84]
	strb	ip, [sp, #298]
	.loc 1 104 0
	ldr	ip, [sp, #76]
	.loc 1 96 0
	str	r4, [sp, #72]
	.loc 1 91 0
	ldr	r1, [sp, #32]
.LBE2196:
.LBE2211:
.LBE2241:
.LBE2265:
.LBB2266:
.LBB2163:
.LBB2142:
.LBB2049:
	.loc 1 47 0
	ldr	r4, [sp, #16]
	.loc 1 48 0
	ldr	sl, [sp, #28]
.LBE2049:
.LBE2142:
.LBE2163:
.LBE2266:
.LBB2267:
.LBB2242:
.LBB2212:
.LBB2197:
	.loc 1 93 0
	str	r7, [sp, #24]
	.loc 1 94 0
	str	r6, [sp, #56]
	.loc 1 92 0
	strb	r2, [sp, #292]
	.loc 1 104 0
	uxtb	r2, ip
	.loc 1 95 0
	str	r5, [sp, #64]
	.loc 1 93 0
	strb	r7, [sp, #293]
	.loc 1 94 0
	strb	r6, [sp, #294]
	.loc 1 97 0
	str	lr, [sp, #80]
	.loc 1 100 0
	ldr	r6, [sp, #92]
	.loc 1 95 0
	strb	r5, [sp, #295]
	.loc 1 97 0
	strb	lr, [sp, #297]
	.loc 1 96 0
	ldr	r5, [sp, #72]
	.loc 1 100 0
	uxtb	r6, r6
	.loc 1 88 0
	ldr	lr, [sp, #20]
	.loc 1 101 0
	ldr	r7, [sp, #96]
	.loc 1 99 0
	str	r0, [sp, #88]
	strb	r0, [sp, #299]
.LBE2197:
.LBE2212:
	.loc 1 122 0
	eorne	r0, r2, #120
.LBB2213:
.LBB2198:
	.loc 1 101 0
	uxtb	r7, r7
	.loc 1 91 0
	strb	r1, [sp, #291]
.LBE2198:
.LBE2213:
	.loc 1 122 0
	mvnne	r0, r0
.LBB2214:
.LBB2199:
	.loc 1 88 0
	uxtb	r1, lr
.LBE2199:
.LBE2214:
.LBE2242:
.LBE2267:
.LBB2268:
.LBB2164:
.LBB2143:
.LBB2050:
	.loc 1 47 0
	str	r4, [sp, #168]
.LBE2050:
.LBE2143:
.LBE2164:
.LBE2268:
.LBB2269:
.LBB2243:
.LBB2215:
.LBB2200:
	.loc 1 96 0
	strb	r5, [sp, #296]
	.loc 1 100 0
	str	r6, [sp, #92]
	.loc 1 101 0
	str	r7, [sp, #100]
.LBE2200:
.LBE2215:
.LBE2243:
.LBE2269:
.LBB2270:
.LBB2165:
.LBB2144:
.LBB2051:
	.loc 1 48 0
	str	sl, [sp, #172]
.LVL392:
.LBE2051:
.LBE2144:
.LBE2165:
.LBE2270:
.LBB2271:
.LBB2244:
.LBB2216:
.LBB2201:
	.loc 1 100 0
	strb	r6, [sp, #300]
	.loc 1 101 0
	strb	r7, [sp, #301]
	.loc 1 102 0
	strb	fp, [sp, #302]
	.loc 1 104 0
	strb	r2, [sp, #303]
	.loc 1 88 0
	strb	r1, [sp, #288]
.LBE2201:
.LBE2216:
	.loc 1 122 0
	strneb	r0, [sp, #303]
.LVL393:
.LBB2217:
.LBB2218:
	.loc 1 48 0
	ldr	sl, [sp, #300]
	ldr	r4, [sp, #28]
	.loc 1 47 0
	ldr	r0, [sp, #296]
	.loc 1 48 0
	eor	sl, r4, sl
	.loc 1 47 0
	ldr	r5, [sp, #16]
	.loc 1 46 0
	ldr	r6, [sp, #44]
.LBE2218:
.LBE2217:
.LBE2244:
.LBE2271:
.LBB2272:
.LBB2273:
.LBB2274:
.LBB2275:
	.loc 1 100 0
	ubfx	r4, sl, #8, #8
.LBE2275:
.LBE2274:
.LBE2273:
.LBE2272:
.LBB2339:
.LBB2245:
.LBB2226:
.LBB2219:
	.loc 1 46 0
	ldr	ip, [sp, #292]
	.loc 1 47 0
	eor	r0, r5, r0
	.loc 1 45 0
	ldr	lr, [sp, #288]
	.loc 1 47 0
	str	r0, [sp, #12]
	.loc 1 46 0
	eor	ip, r6, ip
.LBE2219:
.LBE2226:
.LBE2245:
.LBE2339:
.LBB2340:
.LBB2320:
.LBB2291:
.LBB2276:
	.loc 1 102 0
	mov	r0, sl, lsr #24
.LBE2276:
.LBE2291:
.LBE2320:
.LBE2340:
.LBB2341:
.LBB2246:
.LBB2227:
.LBB2220:
	.loc 1 46 0
	str	ip, [sp, #20]
	.loc 1 45 0
	ldr	ip, [sp, #48]
.LBE2220:
.LBE2227:
.LBE2246:
.LBE2341:
.LBB2342:
.LBB2321:
.LBB2292:
.LBB2277:
	.loc 1 101 0
	ubfx	r6, sl, #16, #8
	.loc 1 98 0
	ldr	r5, [sp, #12]
.LBE2277:
.LBE2292:
.LBE2321:
.LBE2342:
.LBB2343:
.LBB2247:
.LBB2228:
.LBB2221:
	.loc 1 45 0
	eor	r7, ip, lr
.LBE2221:
.LBE2228:
.LBE2247:
.LBE2343:
.LBB2344:
.LBB2322:
.LBB2293:
.LBB2278:
	.loc 1 104 0
	mov	lr, r0, asl #1
	str	lr, [sp, #76]
	.loc 1 102 0
	mov	r0, r0, lsr #7
	str	r0, [sp, #96]
	.loc 1 98 0
	mov	ip, r5, lsr #24
	.loc 1 104 0
	ldr	r0, [sp, #76]
	.loc 1 99 0
	uxtb	lr, sl
.LBE2278:
.LBE2293:
.LBE2322:
.LBE2344:
.LBB2345:
.LBB2248:
.LBB2229:
.LBB2222:
	.loc 1 48 0
	str	sl, [sp, #188]
.LVL394:
.LBE2222:
.LBE2229:
.LBE2248:
.LBE2345:
.LBB2346:
.LBB2323:
.LBB2294:
.LBB2279:
	.loc 1 104 0
	uxtb	r5, r0
	.loc 1 102 0
	ldr	r0, [sp, #96]
	.loc 1 104 0
	strb	r5, [sp, #303]
	.loc 1 102 0
	orr	r0, r0, r6, asl #1
	.loc 1 101 0
	mov	r6, r6, lsr #7
	str	r6, [sp, #76]
	.loc 1 97 0
	ldr	r6, [sp, #12]
	.loc 1 102 0
	strb	r0, [sp, #302]
	.loc 1 97 0
	ubfx	r0, r6, #16, #8
	.loc 1 101 0
	ldr	r6, [sp, #76]
	orr	r6, r6, r4, asl #1
	.loc 1 100 0
	mov	r4, r4, lsr #7
	str	r4, [sp, #76]
	.loc 1 96 0
	ldr	r4, [sp, #12]
	.loc 1 101 0
	strb	r6, [sp, #301]
	.loc 1 96 0
	ubfx	r6, r4, #8, #8
	.loc 1 100 0
	ldr	r4, [sp, #76]
	orr	r4, r4, lr, asl #1
	.loc 1 99 0
	mov	lr, lr, lsr #7
	str	lr, [sp, #76]
	.loc 1 95 0
	ldr	lr, [sp, #12]
	.loc 1 100 0
	strb	r4, [sp, #300]
.LBE2279:
.LBE2294:
.LBE2323:
.LBE2346:
.LBB2347:
.LBB2249:
.LBB2230:
.LBB2223:
	.loc 1 47 0
	str	lr, [sp, #184]
.LBE2223:
.LBE2230:
.LBE2249:
.LBE2347:
.LBB2348:
.LBB2324:
.LBB2295:
.LBB2280:
	.loc 1 95 0
	uxtb	r4, lr
	.loc 1 99 0
	ldr	lr, [sp, #76]
	orr	lr, lr, ip, asl #1
	.loc 1 98 0
	mov	ip, ip, lsr #7
	str	ip, [sp, #76]
	.loc 1 94 0
	ldr	ip, [sp, #20]
	.loc 1 99 0
	strb	lr, [sp, #299]
	.loc 1 94 0
	mov	lr, ip, lsr #24
	.loc 1 98 0
	ldr	ip, [sp, #76]
	orr	ip, ip, r0, asl #1
	.loc 1 97 0
	mov	r0, r0, lsr #7
	str	r0, [sp, #76]
	.loc 1 93 0
	ldr	r0, [sp, #20]
	.loc 1 98 0
	strb	ip, [sp, #298]
	.loc 1 93 0
	ubfx	ip, r0, #16, #8
	.loc 1 97 0
	ldr	r0, [sp, #76]
.LBE2280:
.LBE2295:
.LBE2324:
.LBE2348:
.LBB2349:
.LBB2250:
.LBB2231:
.LBB2224:
	.loc 1 45 0
	str	r7, [sp, #176]
.LBE2224:
.LBE2231:
.LBE2250:
.LBE2349:
.LBB2350:
.LBB2325:
.LBB2296:
.LBB2281:
	.loc 1 97 0
	orr	r0, r0, r6, asl #1
	.loc 1 96 0
	mov	r6, r6, lsr #7
	str	r6, [sp, #76]
	.loc 1 92 0
	ldr	r6, [sp, #20]
	.loc 1 97 0
	strb	r0, [sp, #297]
	.loc 1 92 0
	ubfx	r0, r6, #8, #8
	.loc 1 96 0
	ldr	r6, [sp, #76]
.LBE2281:
.LBE2296:
.LBE2325:
.LBE2350:
.LBB2351:
.LBB2352:
.LBB2353:
.LBB2354:
	.loc 1 88 0
	strb	r1, [sp, #192]
.LBE2354:
.LBE2353:
.LBE2352:
.LBE2351:
.LBB2383:
.LBB2326:
.LBB2297:
.LBB2282:
	.loc 1 96 0
	orr	r6, r6, r4, asl #1
	.loc 1 95 0
	mov	r4, r4, lsr #7
	str	r4, [sp, #76]
	.loc 1 91 0
	ldr	r4, [sp, #20]
	.loc 1 96 0
	strb	r6, [sp, #296]
.LBE2282:
.LBE2297:
.LBE2326:
.LBE2383:
.LBB2384:
.LBB2373:
.LBB2364:
.LBB2355:
	.loc 1 89 0
	strb	r3, [sp, #193]
.LBE2355:
.LBE2364:
.LBE2373:
.LBE2384:
.LBB2385:
.LBB2327:
.LBB2298:
.LBB2283:
	.loc 1 91 0
	uxtb	r6, r4
.LBE2283:
.LBE2298:
.LBE2327:
.LBE2385:
.LBB2386:
.LBB2251:
.LBB2232:
.LBB2225:
	.loc 1 46 0
	str	r4, [sp, #180]
.LBE2225:
.LBE2232:
.LBE2251:
.LBE2386:
.LBB2387:
.LBB2328:
.LBB2299:
.LBB2284:
	.loc 1 95 0
	ldr	r4, [sp, #76]
.LBE2284:
.LBE2299:
.LBE2328:
.LBE2387:
.LBB2388:
.LBB2374:
.LBB2365:
.LBB2356:
	.loc 1 90 0
	strb	r9, [sp, #194]
.LBE2356:
.LBE2365:
.LBE2374:
.LBE2388:
.LBB2389:
.LBB2329:
.LBB2300:
.LBB2285:
	.loc 1 95 0
	orr	r4, r4, lr, asl #1
	.loc 1 94 0
	mov	lr, lr, lsr #7
	orr	lr, lr, ip, asl #1
	.loc 1 93 0
	mov	ip, ip, lsr #7
	orr	ip, ip, r0, asl #1
	.loc 1 92 0
	mov	r0, r0, lsr #7
	orr	r0, r0, r6, asl #1
	.loc 1 91 0
	mov	r6, r6, lsr #7
	.loc 1 92 0
	strb	r0, [sp, #292]
.LBE2285:
.LBE2300:
	.loc 1 119 0
	uxtb	r0, r7
.LVL395:
.LBB2301:
.LBB2286:
	.loc 1 91 0
	str	r6, [sp, #76]
.LBE2286:
.LBE2301:
	.loc 1 121 0
	movs	r6, r0, lsr #7
.LBB2302:
.LBB2287:
	.loc 1 95 0
	strb	r4, [sp, #295]
	.loc 1 90 0
	mov	r4, r7, lsr #24
	.loc 1 91 0
	ldr	r6, [sp, #76]
.LBE2287:
.LBE2302:
	.loc 1 122 0
	eorne	r5, r5, #120
.LBB2303:
.LBB2288:
	.loc 1 94 0
	strb	lr, [sp, #294]
	.loc 1 89 0
	ubfx	lr, r7, #16, #8
	.loc 1 91 0
	orr	r6, r6, r4, asl #1
	.loc 1 93 0
	strb	ip, [sp, #293]
	.loc 1 90 0
	mov	r4, r4, lsr #7
	.loc 1 88 0
	ubfx	ip, r7, #8, #8
	.loc 1 90 0
	orr	r4, r4, lr, asl #1
	.loc 1 89 0
	mov	lr, lr, lsr #7
	orr	lr, lr, ip, asl #1
	.loc 1 88 0
	mov	ip, ip, lsr #7
	orr	ip, ip, r0, asl #1
	.loc 1 90 0
	strb	r4, [sp, #290]
.LBE2288:
.LBE2303:
.LBE2329:
.LBE2389:
.LBB2390:
.LBB2375:
.LBB2366:
.LBB2357:
	.loc 1 92 0
	ldr	r0, [sp, #40]
.LVL396:
.LBE2357:
.LBE2366:
.LBE2375:
.LBE2390:
.LBB2391:
.LBB2330:
	.loc 1 122 0
	mvnne	r5, r5
.LBB2304:
.LBB2289:
	.loc 1 89 0
	strb	lr, [sp, #289]
.LBE2289:
.LBE2304:
.LBE2330:
.LBE2391:
.LBB2392:
.LBB2376:
.LBB2367:
.LBB2358:
	.loc 1 93 0
	ldr	r4, [sp, #24]
	.loc 1 91 0
	ldr	lr, [sp, #32]
.LBE2358:
.LBE2367:
.LBE2376:
.LBE2392:
.LBB2393:
.LBB2331:
	.loc 1 122 0
	strneb	r5, [sp, #303]
.LVL397:
.LBB2305:
.LBB2290:
	.loc 1 91 0
	strb	r6, [sp, #291]
	.loc 1 88 0
	strb	ip, [sp, #288]
.LBE2290:
.LBE2305:
.LBE2331:
.LBE2393:
.LBB2394:
.LBB2377:
.LBB2368:
.LBB2359:
	.loc 1 91 0
	strb	lr, [sp, #195]
.LBE2359:
.LBE2368:
	.loc 1 111 0
	ldr	ip, [sp, #104]
.LBB2369:
.LBB2360:
	.loc 1 92 0
	strb	r0, [sp, #196]
	.loc 1 93 0
	strb	r4, [sp, #197]
.LBE2360:
.LBE2369:
	.loc 1 111 0
	cmp	ip, #0
.LBB2370:
.LBB2361:
	.loc 1 94 0
	ldr	r5, [sp, #56]
	.loc 1 95 0
	ldr	r6, [sp, #64]
	.loc 1 96 0
	ldr	ip, [sp, #72]
	.loc 1 99 0
	ldr	r4, [sp, #88]
	.loc 1 94 0
	strb	r5, [sp, #198]
	.loc 1 95 0
	strb	r6, [sp, #199]
	.loc 1 100 0
	ldr	r5, [sp, #92]
	.loc 1 101 0
	ldr	r6, [sp, #100]
	.loc 1 96 0
	strb	ip, [sp, #200]
	.loc 1 97 0
	ldr	lr, [sp, #80]
	.loc 1 98 0
	ldr	r0, [sp, #84]
	.loc 1 99 0
	strb	r4, [sp, #203]
	.loc 1 100 0
	strb	r5, [sp, #204]
	.loc 1 101 0
	strb	r6, [sp, #205]
.LBE2361:
.LBE2370:
.LBE2377:
.LBE2394:
.LBB2395:
.LBB2332:
.LBB2306:
.LBB2307:
	.loc 1 45 0
	ldr	ip, [sp, #288]
	.loc 1 46 0
	ldr	r4, [sp, #292]
	.loc 1 47 0
	ldr	r5, [sp, #296]
	.loc 1 48 0
	ldr	r6, [sp, #300]
.LBE2307:
.LBE2306:
.LBE2332:
.LBE2395:
.LBB2396:
.LBB2378:
.LBB2371:
.LBB2362:
	.loc 1 97 0
	strb	lr, [sp, #201]
	.loc 1 98 0
	strb	r0, [sp, #202]
	.loc 1 102 0
	strb	fp, [sp, #206]
.LBE2362:
.LBE2371:
.LBE2378:
.LBE2396:
.LBB2397:
.LBB2333:
.LBB2314:
.LBB2308:
	.loc 1 45 0
	str	ip, [sp, #76]
	.loc 1 46 0
	str	r4, [sp, #108]
	.loc 1 47 0
	str	r5, [sp, #120]
	.loc 1 48 0
	str	r6, [sp, #124]
.LVL398:
.LBE2308:
.LBE2314:
.LBE2333:
.LBE2397:
.LBB2398:
.LBB2379:
	.loc 1 111 0
	beq	.L413
	.loc 1 88 0
	ldr	r4, [sp, #92]
	mov	r0, #0
	ldr	r5, [sp, #100]
	mov	ip, #0
	bfi	r0, r4, #0, #8
	ldr	r6, [sp, #40]
	bfi	r0, r5, #8, #8
	.loc 1 112 0
	eor	r4, r2, #120
	.loc 1 88 0
	bfi	r0, fp, #16, #8
	bfi	ip, r6, #0, #8
	bfi	r0, r2, #24, #8
	ldr	r2, [sp, #72]
	str	r0, [sp, #284]
	.loc 1 112 0
	mvn	r4, r4
	.loc 1 88 0
	ldr	r0, [sp, #24]
	mov	lr, #0
	ldr	r6, [sp, #80]
	bfi	lr, r1, #0, #8
	bfi	ip, r0, #8, #8
	ldr	r5, [sp, #56]
	mov	r0, #0
	bfi	r0, r2, #0, #8
	ldr	r2, [sp, #84]
	bfi	r0, r6, #8, #8
	bfi	ip, r5, #16, #8
	bfi	lr, r3, #8, #8
	bfi	r0, r2, #16, #8
	.loc 1 112 0
	strb	r4, [sp, #207]
.LVL399:
.LBE2379:
.LBE2398:
.LBB2399:
.LBB2400:
	.loc 1 133 0
	uxtb	r2, r4
.LBE2400:
.LBE2399:
.LBB2447:
.LBB2380:
	.loc 1 88 0
	ldr	r5, [sp, #64]
	ldr	r4, [sp, #32]
	bfi	lr, r9, #16, #8
	ldr	r6, [sp, #88]
	bfi	ip, r5, #24, #8
	bfi	lr, r4, #24, #8
.LBE2380:
.LBE2447:
.LBB2448:
.LBB2439:
	.loc 1 133 0
	strb	r2, [sp, #287]
.LBE2439:
.LBE2448:
.LBB2449:
.LBB2381:
	.loc 1 88 0
	bfi	r0, r6, #24, #8
	str	lr, [sp, #272]
	str	ip, [sp, #276]
	str	r0, [sp, #280]
.L319:
.LVL400:
.LBE2381:
.LBE2449:
.LBB2450:
.LBB2440:
.LBB2401:
.LBB2402:
	mov	ip, r3, lsr #7
.LBE2402:
.LBE2401:
	.loc 1 137 0
	tst	r1, #128
.LBB2408:
.LBB2403:
	.loc 1 89 0
	mov	lr, r9, lsr #7
	.loc 1 88 0
	orr	r1, ip, r1, asl #1
.LVL401:
	.loc 1 91 0
	ldr	r5, [sp, #40]
	.loc 1 90 0
	mov	ip, r4, lsr #7
	.loc 1 89 0
	orr	r3, lr, r3, asl #1
	.loc 1 92 0
	ldr	r6, [sp, #24]
	.loc 1 93 0
	ldr	lr, [sp, #56]
	.loc 1 90 0
	orr	r9, ip, r9, asl #1
	.loc 1 91 0
	ldr	ip, [sp, #32]
	.loc 1 104 0
	mov	r0, r2, asl #1
	.loc 1 90 0
	strb	r9, [sp, #290]
	.loc 1 92 0
	mov	r6, r6, lsr #7
	.loc 1 95 0
	ldr	r9, [sp, #72]
	.loc 1 104 0
	uxtb	r0, r0
	.loc 1 88 0
	strb	r1, [sp, #288]
	.loc 1 91 0
	mov	r1, r5, lsr #7
	.loc 1 92 0
	str	r6, [sp, #104]
	.loc 1 91 0
	orr	r1, r1, ip, asl #1
	.loc 1 94 0
	ldr	r4, [sp, #64]
	.loc 1 95 0
	mov	r5, r9, lsr #7
	.loc 1 92 0
	ldr	ip, [sp, #40]
	.loc 1 89 0
	strb	r3, [sp, #289]
	.loc 1 93 0
	mov	r3, lr, lsr #7
	.loc 1 91 0
	strb	r1, [sp, #291]
	.loc 1 94 0
	mov	r6, r4, lsr #7
	.loc 1 96 0
	ldr	lr, [sp, #80]
	.loc 1 97 0
	ldr	r1, [sp, #84]
	.loc 1 92 0
	ldr	r9, [sp, #104]
	.loc 1 96 0
	mov	r4, lr, lsr #7
	.loc 1 104 0
	strb	r0, [sp, #303]
	.loc 1 97 0
	mov	lr, r1, lsr #7
	.loc 1 92 0
	orr	r1, r9, ip, asl #1
	.loc 1 98 0
	ldr	r9, [sp, #88]
.LBE2403:
.LBE2408:
	.loc 1 138 0
	eorne	r0, r0, #120
.LBB2409:
.LBB2404:
	.loc 1 92 0
	strb	r1, [sp, #292]
	.loc 1 99 0
	ldr	r1, [sp, #92]
.LBE2404:
.LBE2409:
	.loc 1 138 0
	mvnne	r0, r0
.LBB2410:
.LBB2405:
	.loc 1 98 0
	mov	ip, r9, lsr #7
	.loc 1 99 0
	mov	r9, r1, lsr #7
	.loc 1 93 0
	ldr	r1, [sp, #24]
	orr	r3, r3, r1, asl #1
	.loc 1 100 0
	ldr	r1, [sp, #100]
	.loc 1 93 0
	strb	r3, [sp, #293]
	.loc 1 101 0
	mov	r3, fp, lsr #7
	.loc 1 102 0
	mov	fp, fp, asl #1
	.loc 1 100 0
	mov	r1, r1, lsr #7
	str	r1, [sp, #24]
	.loc 1 94 0
	ldr	r1, [sp, #56]
	.loc 1 102 0
	orr	fp, fp, r2, lsr #7
	.loc 1 94 0
	orr	r6, r6, r1, asl #1
	.loc 1 95 0
	ldr	r1, [sp, #64]
	.loc 1 94 0
	strb	r6, [sp, #294]
	.loc 1 97 0
	ldr	r6, [sp, #80]
	.loc 1 95 0
	orr	r5, r5, r1, asl #1
	strb	r5, [sp, #295]
	.loc 1 96 0
	ldr	r5, [sp, #72]
	.loc 1 97 0
	orr	lr, lr, r6, asl #1
	strb	lr, [sp, #297]
	.loc 1 98 0
	ldr	lr, [sp, #84]
	.loc 1 99 0
	ldr	r1, [sp, #88]
	.loc 1 96 0
	orr	r4, r4, r5, asl #1
	strb	r4, [sp, #296]
	.loc 1 98 0
	orr	ip, ip, lr, asl #1
	strb	ip, [sp, #298]
	.loc 1 100 0
	ldr	r5, [sp, #92]
	.loc 1 99 0
	orr	lr, r9, r1, asl #1
	.loc 1 101 0
	ldr	r6, [sp, #100]
	.loc 1 100 0
	ldr	r4, [sp, #24]
.LBE2405:
.LBE2410:
.LBE2440:
.LBE2450:
	.loc 1 223 0
	ldr	r9, [sp, #544]
.LBB2451:
.LBB2441:
.LBB2411:
.LBB2406:
	.loc 1 99 0
	strb	lr, [sp, #299]
	.loc 1 100 0
	orr	r1, r4, r5, asl #1
	.loc 1 101 0
	orr	r3, r3, r6, asl #1
	.loc 1 102 0
	strb	fp, [sp, #302]
	.loc 1 101 0
	strb	r3, [sp, #301]
.LBE2406:
.LBE2411:
.LBB2412:
.LBB2413:
	.loc 1 45 0
	ldr	fp, [sp, #288]
	ldr	ip, [sp, #272]
	.loc 1 46 0
	ldr	r3, [sp, #292]
	ldr	r4, [sp, #276]
	.loc 1 47 0
	ldr	r5, [sp, #296]
	ldr	r6, [sp, #280]
.LBE2413:
.LBE2412:
	.loc 1 138 0
	strneb	r0, [sp, #303]
.LVL402:
.LBE2441:
.LBE2451:
	.loc 1 223 0
	cmp	r9, #0
.LBB2452:
.LBB2442:
.LBB2420:
.LBB2407:
	.loc 1 100 0
	strb	r1, [sp, #300]
.LBE2407:
.LBE2420:
.LBB2421:
.LBB2414:
	.loc 1 45 0
	str	fp, [sp, #32]
	str	ip, [sp, #40]
	.loc 1 46 0
	str	r3, [sp, #24]
	str	r4, [sp, #56]
	.loc 1 47 0
	str	r5, [sp, #64]
	str	r6, [sp, #72]
	.loc 1 48 0
	ldr	fp, [sp, #300]
	ldr	r9, [sp, #284]
.LVL403:
.LBE2414:
.LBE2421:
.LBE2442:
.LBE2452:
	.loc 1 223 0
	beq	.L328
.LBB2453:
.LBB2454:
	.loc 1 415 0
	ldr	r5, [sp, #116]
	add	r1, sp, #224
	ldr	r6, [sp, #544]
	tst	r5, #3
	movne	r3, #0
	moveq	r3, #1
	cmp	r6, #3
	movls	r3, #0
	andhi	r3, r3, #1
	mov	r0, r6, lsr #2
	eor	r3, r3, #1
	cmp	r0, #0
	orreq	r3, r3, #1
	cmp	r3, #0
	mov	ip, r0, asl #2
	bne	.L356
.LBE2454:
.LBE2453:
.LBE2550:
.LBE3084:
	mov	r2, r3
	mov	r4, r5
.LVL404:
.L325:
.LBB3085:
.LBB2551:
.LBB2460:
.LBB2455:
	.loc 1 224 0
	ldr	lr, [r4, r3]
	add	r2, r2, #1
	cmp	r0, r2
	str	lr, [r1, r3]
	add	r3, r3, #4
	bhi	.L325
	ldr	lr, [sp, #544]
	cmp	lr, ip
	ldrne	r2, [sp, #116]
	beq	.L328
.L386:
.LBE2455:
.LBE2460:
	ldrb	r3, [r2, ip]	@ zero_extendqisi2
	strb	r3, [r1, ip]
	.loc 1 223 0
	add	ip, ip, #1
.LVL405:
	cmp	r8, ip
	bgt	.L386
.LVL406:
.L328:
	.loc 1 226 0
	ldr	r8, [sp, #544]
.LVL407:
	add	ip, sp, #504
	mvn	r1, #127
	.loc 1 230 0
	add	r0, sp, #240
	.loc 1 226 0
	add	r3, ip, r8
.LBB2461:
.LBB2462:
	.loc 1 46 0
	ldr	ip, [sp, #20]
.LBE2462:
.LBE2461:
	.loc 1 230 0
	add	r2, sp, #324
.LVL408:
	.loc 1 226 0
	strb	r1, [r3, #-280]
.LVL409:
	.loc 1 230 0
	mov	r1, r0
.LBB2464:
.LBB2463:
	.loc 1 45 0
	ldr	r8, [sp, #224]
	.loc 1 46 0
	ldr	r6, [sp, #228]
	.loc 1 45 0
	eor	r3, r7, r8
	.loc 1 47 0
	ldr	r5, [sp, #232]
	.loc 1 48 0
	ldr	r4, [sp, #236]
	.loc 1 45 0
	str	r3, [sp, #240]
	.loc 1 46 0
	eor	r3, ip, r6
	.loc 1 47 0
	ldr	ip, [sp, #12]
	.loc 1 46 0
	str	r3, [sp, #244]
	.loc 1 47 0
	eor	r3, ip, r5
	str	r3, [sp, #248]
	.loc 1 48 0
	eor	r3, sl, r4
	str	r3, [sp, #252]
.LBE2463:
.LBE2464:
	.loc 1 230 0
	bl	aesc_encrypt
.LVL410:
.LBB2465:
.LBB2466:
	.loc 1 45 0
	ldr	r3, [sp, #240]
	ldr	ip, [sp, #48]
.LBE2466:
.LBE2465:
	.loc 1 234 0
	add	r1, sp, #240
.LVL411:
.LBB2472:
.LBB2467:
	.loc 1 46 0
	ldr	r2, [sp, #244]
	.loc 1 45 0
	eor	r3, ip, r3
	.loc 1 46 0
	ldr	ip, [sp, #44]
	.loc 1 47 0
	ldr	lr, [sp, #16]
	.loc 1 46 0
	eor	r2, ip, r2
	.loc 1 47 0
	ldr	ip, [sp, #248]
.LBE2467:
.LBE2472:
.LBB2473:
.LBB2474:
	.loc 1 45 0
	ldr	r0, [sp, #128]
.LBE2474:
.LBE2473:
.LBB2480:
.LBB2468:
	.loc 1 47 0
	eor	lr, lr, ip
	.loc 1 48 0
	ldr	ip, [sp, #28]
	.loc 1 47 0
	str	lr, [sp, #80]
.LBE2468:
.LBE2480:
.LBB2481:
.LBB2475:
	.loc 1 45 0
	eor	r0, r3, r0
.LBE2475:
.LBE2481:
.LBB2482:
.LBB2469:
	.loc 1 48 0
	ldr	lr, [sp, #252]
	.loc 1 45 0
	str	r3, [sp, #240]
	.loc 1 48 0
	eor	r3, ip, lr
	.loc 1 47 0
	ldr	ip, [sp, #80]
.LBE2469:
.LBE2482:
.LBB2483:
.LBB2476:
	.loc 1 46 0
	ldr	lr, [sp, #132]
.LBE2476:
.LBE2483:
.LBB2484:
.LBB2470:
	str	r2, [sp, #244]
	.loc 1 47 0
	str	ip, [sp, #248]
.LBE2470:
.LBE2484:
.LBB2485:
.LBB2477:
	.loc 1 46 0
	eor	r2, r2, lr
	.loc 1 47 0
	ldr	ip, [sp, #136]
	ldr	lr, [sp, #80]
	.loc 1 45 0
	str	r0, [sp, #256]
.LBE2477:
.LBE2485:
	.loc 1 234 0
	add	r0, sp, #256
.LBB2486:
.LBB2478:
	.loc 1 47 0
	eor	ip, lr, ip
	str	ip, [sp, #264]
	.loc 1 48 0
	ldr	ip, [sp, #140]
	.loc 1 46 0
	str	r2, [sp, #260]
.LBE2478:
.LBE2486:
	.loc 1 234 0
	add	r2, sp, #324
.LVL412:
.LBB2487:
.LBB2471:
	.loc 1 48 0
	str	r3, [sp, #252]
.LVL413:
.LBE2471:
.LBE2487:
.LBB2488:
.LBB2479:
	eor	r3, r3, ip
	str	r3, [sp, #268]
.LBE2479:
.LBE2488:
	.loc 1 234 0
	bl	aesc_encrypt
.LVL414:
.LBB2489:
.LBB2334:
.LBB2315:
.LBB2309:
	.loc 1 45 0
	ldr	ip, [sp, #76]
.LBE2309:
.LBE2315:
.LBE2334:
.LBE2489:
	.loc 1 239 0
	add	r0, sp, #240
.LVL415:
.LBB2490:
.LBB2491:
	.loc 1 45 0
	ldr	r3, [sp, #240]
.LBE2491:
.LBE2490:
.LBB2500:
.LBB2335:
.LBB2316:
.LBB2310:
	eor	r2, ip, r8
	.loc 1 47 0
	ldr	r8, [sp, #120]
.LBE2310:
.LBE2316:
.LBE2335:
.LBE2500:
.LBB2501:
.LBB2492:
	.loc 1 46 0
	ldr	lr, [sp, #244]
.LBE2492:
.LBE2501:
	.loc 1 239 0
	mov	r1, r0
.LBB2502:
.LBB2336:
.LBB2317:
.LBB2311:
	.loc 1 47 0
	eor	r5, r8, r5
	.loc 1 48 0
	ldr	r8, [sp, #124]
.LBE2311:
.LBE2317:
.LBE2336:
.LBE2502:
.LBB2503:
.LBB2493:
	.loc 1 45 0
	str	r3, [sp, #84]
.LBE2493:
.LBE2503:
.LBB2504:
.LBB2337:
.LBB2318:
.LBB2312:
	.loc 1 46 0
	ldr	r3, [sp, #108]
	.loc 1 48 0
	eor	r4, r8, r4
.LBE2312:
.LBE2318:
.LBE2337:
.LBE2504:
.LBB2505:
.LBB2506:
	.loc 1 45 0
	eor	r8, r2, r7
	.loc 1 46 0
	ldr	r7, [sp, #20]
.LVL416:
.LBE2506:
.LBE2505:
.LBB2514:
.LBB2338:
.LBB2319:
.LBB2313:
	eor	r6, r3, r6
.LBE2313:
.LBE2319:
.LBE2338:
.LBE2514:
.LBB2515:
.LBB2507:
	.loc 1 48 0
	eor	r4, r4, sl
	.loc 1 46 0
	eor	r6, r6, r7
.LBE2507:
.LBE2515:
.LBB2516:
.LBB2494:
	.loc 1 45 0
	ldr	sl, [sp, #84]
.LBE2494:
.LBE2516:
.LBB2517:
.LBB2508:
	.loc 1 47 0
	ldr	r7, [sp, #12]
.LBE2508:
.LBE2517:
	.loc 1 239 0
	add	r2, sp, #324
.LVL417:
.LBB2518:
.LBB2509:
	.loc 1 45 0
	str	r8, [sp, #240]
.LBE2509:
.LBE2518:
.LBB2519:
.LBB2495:
	ldr	r8, [sp, #192]
.LBE2495:
.LBE2519:
.LBB2520:
.LBB2510:
	.loc 1 47 0
	eor	r5, r5, r7
.LBE2510:
.LBE2520:
.LBB2521:
.LBB2496:
	ldr	ip, [sp, #248]
	.loc 1 45 0
	eor	r7, r8, sl
	.loc 1 48 0
	ldr	r3, [sp, #252]
	.loc 1 47 0
	ldr	r8, [sp, #200]
	.loc 1 48 0
	ldr	sl, [sp, #204]
.LBE2496:
.LBE2521:
.LBB2522:
.LBB2511:
	.loc 1 46 0
	str	r6, [sp, #244]
.LBE2511:
.LBE2522:
.LBB2523:
.LBB2497:
	.loc 1 47 0
	eor	ip, r8, ip
	.loc 1 46 0
	ldr	r6, [sp, #196]
	.loc 1 48 0
	eor	r3, sl, r3
.LBE2497:
.LBE2523:
.LBB2524:
.LBB2512:
	.loc 1 47 0
	str	r5, [sp, #248]
.LBE2512:
.LBE2524:
.LBB2525:
.LBB2498:
	.loc 1 46 0
	eor	lr, r6, lr
.LBE2498:
.LBE2525:
.LBB2526:
.LBB2513:
	.loc 1 48 0
	str	r4, [sp, #252]
.LBE2513:
.LBE2526:
.LBB2527:
.LBB2499:
	.loc 1 45 0
	str	r7, [sp, #272]
	.loc 1 46 0
	str	lr, [sp, #276]
	.loc 1 47 0
	str	ip, [sp, #280]
	.loc 1 48 0
	str	r3, [sp, #284]
.LVL418:
.LBE2499:
.LBE2527:
	.loc 1 239 0
	bl	aesc_encrypt
.LVL419:
.LBB2528:
.LBB2529:
	.loc 1 45 0
	ldr	lr, [sp, #240]
.LBE2529:
.LBE2528:
	.loc 1 241 0
	add	r0, sp, #240
.LVL420:
.LBB2533:
.LBB2530:
	.loc 1 45 0
	ldr	r3, [sp, #256]
.LBE2530:
.LBE2533:
	.loc 1 241 0
	add	r2, sp, #324
.LVL421:
.LBB2534:
.LBB2531:
	.loc 1 46 0
	ldr	ip, [sp, #244]
.LBE2531:
.LBE2534:
	.loc 1 241 0
	mov	r1, r0
.LBB2535:
.LBB2532:
	.loc 1 46 0
	ldr	r4, [sp, #260]
	.loc 1 45 0
	eor	lr, lr, r3
	.loc 1 47 0
	ldr	r5, [sp, #264]
	ldr	r3, [sp, #248]
	.loc 1 46 0
	eor	ip, ip, r4
	.loc 1 48 0
	ldr	r6, [sp, #268]
	ldr	r4, [sp, #252]
	.loc 1 47 0
	eor	r3, r3, r5
	.loc 1 46 0
	str	ip, [sp, #244]
	.loc 1 47 0
	str	r3, [sp, #248]
	.loc 1 48 0
	eor	ip, r4, r6
	.loc 1 45 0
	str	lr, [sp, #240]
	.loc 1 48 0
	str	ip, [sp, #252]
.LBE2532:
.LBE2535:
	.loc 1 241 0
	bl	aesc_encrypt
.LVL422:
.LBB2536:
.LBB2443:
.LBB2422:
.LBB2415:
	.loc 1 48 0
	ldr	r0, [sp, #252]
	.loc 1 45 0
	ldr	r4, [sp, #32]
	ldr	r3, [sp, #240]
	.loc 1 48 0
	eor	fp, fp, r0
.LBE2415:
.LBE2422:
.LBB2423:
.LBB2424:
	.loc 1 45 0
	ldr	r7, [sp, #40]
	.loc 1 48 0
	eor	r9, fp, r9
	ldr	ip, [sp, #112]
.LBE2424:
.LBE2423:
.LBB2430:
.LBB2416:
	.loc 1 45 0
	eor	r3, r4, r3
	.loc 1 46 0
	ldr	r1, [sp, #244]
.LBE2416:
.LBE2430:
.LBB2431:
.LBB2425:
	.loc 1 45 0
	eor	r3, r3, r7
.LBE2425:
.LBE2431:
.LBB2432:
.LBB2417:
	.loc 1 47 0
	ldr	r2, [sp, #248]
	tst	ip, #3
	.loc 1 46 0
	ldr	r5, [sp, #24]
	.loc 1 47 0
	ldr	r6, [sp, #64]
.LBE2417:
.LBE2432:
.LBE2443:
.LBE2536:
.LBB2537:
.LBB2456:
	.loc 1 45 0
	ldr	fp, [sp, #48]
.LBE2456:
.LBE2537:
.LBB2538:
.LBB2444:
.LBB2433:
.LBB2418:
	.loc 1 46 0
	eor	r1, r5, r1
.LBE2418:
.LBE2433:
.LBB2434:
.LBB2426:
	ldr	r8, [sp, #56]
.LBE2426:
.LBE2434:
.LBB2435:
.LBB2419:
	.loc 1 47 0
	eor	r2, r6, r2
.LBE2419:
.LBE2435:
.LBB2436:
.LBB2427:
	ldr	sl, [sp, #72]
.LBE2427:
.LBE2436:
.LBE2444:
.LBE2538:
.LBB2539:
.LBB2457:
	.loc 1 45 0
	eor	r3, fp, r3
	.loc 1 46 0
	ldr	ip, [sp, #44]
.LBE2457:
.LBE2539:
.LBB2540:
.LBB2445:
.LBB2437:
.LBB2428:
	eor	r1, r1, r8
.LBE2428:
.LBE2437:
.LBE2445:
.LBE2540:
.LBB2541:
.LBB2458:
	.loc 1 45 0
	str	r3, [sp, #288]
.LBE2458:
.LBE2541:
.LBB2542:
.LBB2446:
.LBB2438:
.LBB2429:
	.loc 1 47 0
	eor	r2, r2, sl
.LBE2429:
.LBE2438:
.LBE2446:
.LBE2542:
.LBB2543:
.LBB2459:
	ldr	r3, [sp, #16]
	.loc 1 46 0
	eor	r1, ip, r1
	.loc 1 48 0
	ldr	r4, [sp, #28]
	.loc 1 47 0
	eor	r2, r3, r2
	.loc 1 46 0
	str	r1, [sp, #292]
	.loc 1 48 0
	eor	r9, r4, r9
	.loc 1 47 0
	str	r2, [sp, #296]
	.loc 1 48 0
	str	r9, [sp, #300]
.LVL423:
	bne	.L414
.LBE2459:
.LBE2543:
	.loc 1 246 0
	add	r0, sp, #272
.LVL424:
	ldr	r4, [sp, #112]
	ldmia	r0, {r0, r1, r2, r3}
.LVL425:
	stmia	r4, {r0, r1, r2, r3}
.LVL426:
.L329:
	.loc 1 248 0
	ldr	sl, [sp, #544]
	add	r5, sl, #15
	cmp	r5, #15
	beq	.L331
	ldr	ip, [sp, #112]
	mov	r4, sl, lsr #2
	add	r1, ip, #16
	.loc 1 415 0
	mov	r3, r4, asl #2
	tst	r1, #3
	movne	r2, #0
	moveq	r2, #1
	cmp	sl, #3
	movls	r2, #0
	andhi	r2, r2, #1
	eor	r2, r2, #1
	cmp	r4, #0
	orreq	r2, r2, #1
	cmp	r2, #0
	bne	.L357
	add	r0, sp, #284
.LVL427:
.L333:
	add	r2, r2, #1
	.loc 1 249 0
	ldr	ip, [r0, #4]!
	cmp	r2, r4
	str	ip, [r1], #4
	bcc	.L333
	ldr	r1, [sp, #544]
	cmp	r1, r3
	add	r3, r3, #16
	beq	.L331
.L332:
	.loc 1 415 0
	add	r4, sp, #504
	ldr	r0, [sp, #112]
	add	r2, r4, r3
	sub	r2, r2, #233
.L335:
	.loc 1 249 0
	ldrb	r1, [r2, #1]!	@ zero_extendqisi2
	strb	r1, [r0, r3]
	.loc 1 248 0
	add	r3, r3, #1
.LVL428:
	cmp	r5, r3
	bge	.L335
	b	.L331
.LVL429:
.L413:
.LBB2544:
.LBB2382:
.LBB2372:
.LBB2363:
	.loc 1 88 0
	ldr	ip, [sp, #40]
	ldr	lr, [sp, #104]
	ldr	r0, [sp, #24]
	bfi	lr, ip, #0, #8
	ldr	ip, [sp, #104]
	ldr	r6, [sp, #92]
	bfi	lr, r0, #8, #8
	ldr	r5, [sp, #72]
	mov	r0, ip
	bfi	r0, r6, #0, #8
	ldr	r6, [sp, #100]
	bfi	ip, r5, #0, #8
	ldr	r5, [sp, #80]
	bfi	r0, r6, #8, #8
	ldr	r6, [sp, #84]
	bfi	ip, r5, #8, #8
	ldr	r4, [sp, #104]
	ldr	r5, [sp, #56]
	bfi	ip, r6, #16, #8
	ldr	r6, [sp, #64]
	bfi	r4, r1, #0, #8
	bfi	lr, r5, #16, #8
	ldr	r5, [sp, #32]
	bfi	lr, r6, #24, #8
	bfi	r4, r3, #8, #8
	str	lr, [sp, #276]
	bfi	r4, r9, #16, #8
	ldr	lr, [sp, #88]
	bfi	r0, fp, #16, #8
	bfi	r4, r5, #24, #8
	bfi	r0, r2, #24, #8
	str	r4, [sp, #272]
	bfi	ip, lr, #24, #8
	.loc 1 104 0
	strb	r2, [sp, #207]
.LVL430:
	mov	r4, r5
	.loc 1 88 0
	str	ip, [sp, #280]
	str	r0, [sp, #284]
	b	.L319
.LVL431:
.L414:
.LBE2363:
.LBE2372:
.LBE2382:
.LBE2544:
	.loc 1 246 0
	ldr	r9, [sp, #112]
	ldrb	ip, [sp, #272]	@ zero_extendqisi2
	ldrb	r0, [sp, #273]	@ zero_extendqisi2
	ldrb	r1, [sp, #274]	@ zero_extendqisi2
	ldrb	r2, [sp, #275]	@ zero_extendqisi2
	ldrb	r3, [sp, #276]	@ zero_extendqisi2
	ldrb	sl, [sp, #277]	@ zero_extendqisi2
	ldrb	r8, [sp, #278]	@ zero_extendqisi2
	ldrb	r7, [sp, #279]	@ zero_extendqisi2
	ldrb	r6, [sp, #280]	@ zero_extendqisi2
	ldrb	r5, [sp, #281]	@ zero_extendqisi2
	ldrb	r4, [sp, #282]	@ zero_extendqisi2
	strb	ip, [r9, #0]
.LVL432:
	strb	r0, [r9, #1]
.LVL433:
	ldrb	ip, [sp, #283]	@ zero_extendqisi2
	ldrb	r0, [sp, #284]	@ zero_extendqisi2
	strb	r1, [r9, #2]
.LVL434:
	strb	r2, [r9, #3]
.LVL435:
	ldrb	r1, [sp, #285]	@ zero_extendqisi2
	ldrb	r2, [sp, #286]	@ zero_extendqisi2
	strb	r3, [r9, #4]
.LVL436:
	ldrb	r3, [sp, #287]	@ zero_extendqisi2
	strb	sl, [r9, #5]
.LVL437:
	strb	r8, [r9, #6]
.LVL438:
	strb	r7, [r9, #7]
.LVL439:
	strb	r6, [r9, #8]
.LVL440:
	strb	r5, [r9, #9]
.LVL441:
	strb	r4, [r9, #10]
.LVL442:
	strb	ip, [r9, #11]
.LVL443:
	strb	r0, [r9, #12]
.LVL444:
	strb	r1, [r9, #13]
.LVL445:
	strb	r2, [r9, #14]
.LVL446:
	strb	r3, [r9, #15]
.LVL447:
	b	.L329
.LVL448:
.L412:
.LBE2551:
.LBE3085:
	.loc 1 508 0
	bl	__stack_chk_fail
.LVL449:
.L357:
	.loc 1 415 0
	mov	r3, #16
	b	.L332
.LVL450:
.L356:
	.loc 1 223 0
	mov	ip, #0
	ldr	r2, [sp, #116]
	b	.L386
	.cfi_endproc
.LFE75:
	.size	crypto_aead_encrypt, .-crypto_aead_encrypt
	.align	2
	.global	crypto_aead_decrypt
	.type	crypto_aead_decrypt, %function
crypto_aead_decrypt:
.LFB76:
	.loc 1 520 0
	.cfi_startproc
	@ args = 32, pretend = 0, frame = 472
	@ frame_needed = 0, uses_anonymous_args = 0
.LVL451:
	stmfd	sp!, {r4, r5, r6, r7, r8, r9, sl, fp, lr}
.LCFI13:
	.cfi_def_cfa_offset 36
	.cfi_offset 4, -36
	.cfi_offset 5, -32
	.cfi_offset 6, -28
	.cfi_offset 7, -24
	.cfi_offset 8, -20
	.cfi_offset 9, -16
	.cfi_offset 10, -12
	.cfi_offset 11, -8
	.cfi_offset 14, -4
	sub	sp, sp, #484
.LCFI14:
	.cfi_def_cfa_offset 520
	.loc 1 538 0
	add	r8, sp, #136
	.loc 1 530 0
	add	r1, sp, #300
.LVL452:
	.loc 1 520 0
	str	r0, [sp, #116]
	movw	r0, #:lower16:__stack_chk_guard
.LVL453:
	movt	r0, #:upper16:__stack_chk_guard
	ldr	ip, [sp, #548]
	str	r3, [sp, #112]
	add	r3, sp, #512
.LVL454:
	ldr	r2, [r0, #0]
.LVL455:
	ldrd	r4, [r3, #24]
	.loc 1 530 0
	mov	r0, ip
	.loc 1 520 0
	ldr	r6, [sp, #544]
	ldr	sl, [sp, #528]
	str	r2, [sp, #476]
.LVL456:
	.loc 1 530 0
	bl	aesc_keyexp
.LVL457:
	.loc 1 538 0
	add	r2, sp, #300
	mov	r1, r8
	mov	r0, r8
	.loc 1 533 0
	mov	r3, #0
	str	r3, [sp, #200]
	str	r3, [sp, #204]
	str	r3, [sp, #208]
	str	r3, [sp, #212]
	.loc 1 536 0
	str	r3, [sp, #136]
	str	r3, [sp, #140]
	str	r3, [sp, #144]
	str	r3, [sp, #148]
	.loc 1 538 0
	bl	aesc_encrypt
.LVL458:
	.loc 1 543 0
	add	r0, r4, #16
	bl	malloc
.LVL459:
.LBB3209:
.LBB3210:
	.loc 2 51 0
	mov	r1, sl
	mov	r2, r4
.LBE3210:
.LBE3209:
	.loc 1 543 0
	mov	r7, r0
.LVL460:
.LBB3212:
.LBB3211:
	.loc 2 51 0
	bl	memcpy
.LVL461:
.LBE3211:
.LBE3212:
.LBB3213:
.LBB3214:
	ldr	lr, [r6, #8]	@ unaligned
.LBE3214:
.LBE3213:
	.loc 1 545 0
	add	ip, r7, r4
.LBB3219:
.LBB3215:
	.loc 2 51 0
	ldr	r9, [r6, #0]	@ unaligned
.LBE3215:
.LBE3219:
	.loc 1 546 0
	adds	r2, r4, #16
.LBB3220:
.LBB3216:
	.loc 2 51 0
	ldr	sl, [r6, #4]	@ unaligned
.LVL462:
.LBE3216:
.LBE3220:
	.loc 1 546 0
	adc	r3, r5, #0
.LBB3221:
.LBB3217:
	.loc 2 51 0
	ldr	r4, [r6, #12]	@ unaligned
.LVL463:
.LBE3217:
.LBE3221:
	.loc 1 546 0
	mov	r1, r7
	str	r8, [sp, #0]
	add	r0, sp, #120
	add	r5, sp, #300
	str	r5, [sp, #4]
.LBB3222:
.LBB3218:
	.loc 2 51 0
	str	r9, [ip, #0]	@ unaligned
	str	sl, [ip, #4]	@ unaligned
	str	lr, [ip, #8]	@ unaligned
	str	r4, [ip, #12]	@ unaligned
.LBE3218:
.LBE3222:
	.loc 1 546 0
	bl	mac
.LVL464:
	.loc 1 547 0
	mov	r0, r7
	.loc 1 548 0
	add	r7, sp, #512
.LVL465:
	.loc 1 547 0
	bl	free
.LVL466:
	.loc 1 548 0
	ldrd	r6, [r7, #8]
.LVL467:
	cmp	r7, #0
	it eq
	cmpeq	r6, #15
	bls	.L520
.LVL468:
.LBB3223:
.LBB3224:
.LBB3225:
.LBB3226:
	.loc 1 91 0
	ldrb	r1, [sp, #140]	@ zero_extendqisi2
.LBE3226:
.LBE3225:
.LBE3224:
.LBE3223:
.LBB3341:
.LBB3342:
	.loc 1 45 0
	movw	r5, #65192
.LBE3342:
.LBE3341:
.LBB3357:
.LBB3307:
.LBB3253:
.LBB3227:
	.loc 1 89 0
	ldrb	ip, [sp, #138]	@ zero_extendqisi2
.LBE3227:
.LBE3253:
.LBE3307:
.LBE3357:
.LBB3358:
.LBB3343:
	.loc 1 45 0
	movt	r5, 65535
.LBE3343:
.LBE3358:
.LBB3359:
.LBB3308:
.LBB3254:
.LBB3228:
	.loc 1 90 0
	ldrb	r0, [sp, #139]	@ zero_extendqisi2
.LBE3228:
.LBE3254:
.LBE3308:
.LBE3359:
.LBB3360:
.LBB3361:
	.loc 1 45 0
	movw	r4, #65200
.LBE3361:
.LBE3360:
.LBB3997:
.LBB3309:
.LBB3255:
.LBB3229:
	.loc 1 91 0
	mov	r7, r1, lsr #7
.LVL469:
	str	r7, [sp, #64]
	.loc 1 98 0
	ldrb	r7, [sp, #147]	@ zero_extendqisi2
	.loc 1 89 0
	mov	r2, ip, lsr #7
	.loc 1 92 0
	ldrb	r9, [sp, #141]	@ zero_extendqisi2
	.loc 1 90 0
	mov	r3, r0, lsr #7
	.loc 1 94 0
	ldrb	r8, [sp, #143]	@ zero_extendqisi2
.LVL470:
.LBE3229:
.LBE3255:
.LBE3309:
.LBE3997:
.LBB3998:
.LBB3982:
	.loc 1 45 0
	movt	r4, 65535
.LBE3982:
.LBE3998:
.LBB3999:
.LBB3310:
.LBB3256:
.LBB3230:
	.loc 1 88 0
	ldrb	lr, [sp, #137]	@ zero_extendqisi2
	.loc 1 89 0
	str	r2, [sp, #68]
	.loc 1 96 0
	ldrb	r2, [sp, #145]	@ zero_extendqisi2
	.loc 1 95 0
	ldrb	r6, [sp, #144]	@ zero_extendqisi2
	.loc 1 88 0
	mov	sl, lr, lsr #7
	.loc 1 93 0
	ldrb	fp, [sp, #142]	@ zero_extendqisi2
	.loc 1 90 0
	str	r3, [sp, #16]
	.loc 1 97 0
	ldrb	r3, [sp, #146]	@ zero_extendqisi2
	.loc 1 98 0
	str	r7, [sp, #32]
	.loc 1 88 0
	str	sl, [sp, #12]
	.loc 1 92 0
	mov	sl, r9, lsr #7
	str	sl, [sp, #8]
	.loc 1 94 0
	mov	sl, r8, lsr #7
	str	sl, [sp, #24]
	.loc 1 96 0
	mov	sl, r2, lsr #7
	str	sl, [sp, #28]
	.loc 1 98 0
	ldr	sl, [sp, #32]
	.loc 1 93 0
	str	fp, [sp, #52]
	mov	fp, fp, lsr #7
	str	fp, [sp, #72]
	.loc 1 95 0
	mov	fp, r6, lsr #7
	str	fp, [sp, #20]
	.loc 1 97 0
	mov	fp, r3, lsr #7
	str	fp, [sp, #36]
.LBE3230:
.LBE3256:
.LBE3310:
.LBE3999:
.LBB4000:
.LBB3344:
	.loc 1 67 0
	add	fp, sp, #480
.LBE3344:
.LBE4000:
.LBB4001:
.LBB3311:
.LBB3257:
.LBB3231:
	.loc 1 98 0
	mov	sl, sl, lsr #7
	str	sl, [sp, #48]
.LBE3231:
.LBE3257:
.LBE3311:
.LBE4001:
.LBB4002:
.LBB3345:
	.loc 1 67 0
	ldrd	sl, [fp, r5]
.LBE3345:
.LBE4002:
.LBB4003:
.LBB3312:
.LBB3258:
.LBB3232:
	.loc 1 90 0
	ldr	r5, [sp, #16]
.LBE3232:
.LBE3258:
	.loc 1 119 0
	ldrb	r7, [sp, #136]	@ zero_extendqisi2
.LBE3312:
.LBE4003:
.LBB4004:
.LBB3346:
	.loc 1 67 0
	strd	sl, [sp, #40]
.LBE3346:
.LBE4004:
.LBB4005:
.LBB3983:
	.loc 1 45 0
	add	fp, sp, #480
.LBE3983:
.LBE4005:
.LBB4006:
.LBB3313:
.LBB3259:
.LBB3233:
	.loc 1 90 0
	orr	ip, r5, ip, asl #1
	.loc 1 94 0
	ldr	r5, [sp, #24]
.LBE3233:
.LBE3259:
.LBE3313:
.LBE4006:
.LBB4007:
.LBB3984:
	.loc 1 45 0
	ldrd	sl, [fp, r4]
.LBE3984:
.LBE4007:
.LBB4008:
.LBB3314:
.LBB3260:
.LBB3234:
	.loc 1 89 0
	ldr	r4, [sp, #68]
	.loc 1 90 0
	uxtb	ip, ip
.LBE3234:
.LBE3260:
.LBE3314:
.LBE4008:
.LBB4009:
.LBB3985:
	.loc 1 45 0
	strd	sl, [sp, #56]
.LBE3985:
.LBE4009:
.LBB4010:
.LBB3315:
.LBB3261:
.LBB3235:
	.loc 1 89 0
	orr	lr, r4, lr, asl #1
	.loc 1 91 0
	ldr	sl, [sp, #64]
	.loc 1 92 0
	ldr	fp, [sp, #8]
	.loc 1 89 0
	uxtb	lr, lr
	.loc 1 93 0
	ldr	r4, [sp, #72]
	.loc 1 91 0
	orr	r0, sl, r0, asl #1
	.loc 1 94 0
	ldr	sl, [sp, #52]
	.loc 1 92 0
	orr	r1, fp, r1, asl #1
	.loc 1 93 0
	orr	fp, r4, r9, asl #1
	.loc 1 95 0
	ldr	r4, [sp, #20]
	.loc 1 91 0
	uxtb	r0, r0
	.loc 1 92 0
	uxtb	r1, r1
	.loc 1 94 0
	orr	r9, r5, sl, asl #1
	.loc 1 96 0
	ldr	r5, [sp, #28]
	.loc 1 95 0
	orr	sl, r4, r8, asl #1
	.loc 1 98 0
	ldr	r4, [sp, #48]
	.loc 1 96 0
	orr	r8, r5, r6, asl #1
	.loc 1 97 0
	ldr	r6, [sp, #36]
	.loc 1 88 0
	ldr	r5, [sp, #12]
	.loc 1 98 0
	orr	r3, r4, r3, asl #1
	.loc 1 89 0
	str	lr, [sp, #12]
	.loc 1 94 0
	uxtb	r9, r9
	.loc 1 96 0
	uxtb	r8, r8
	.loc 1 94 0
	str	r9, [sp, #24]
	strb	r9, [sp, #270]
	.loc 1 95 0
	uxtb	sl, sl
	.loc 1 96 0
	str	r8, [sp, #28]
	.loc 1 97 0
	orr	r2, r6, r2, asl #1
	.loc 1 96 0
	strb	r8, [sp, #272]
	.loc 1 88 0
	orr	r6, r5, r7, asl #1
.LBE3235:
.LBE3261:
.LBE3315:
.LBE4010:
.LBB4011:
.LBB3347:
	.loc 1 67 0
	ldrd	r8, [sp, #40]
.LBE3347:
.LBE4011:
.LBB4012:
.LBB3316:
.LBB3262:
.LBB3236:
	.loc 1 98 0
	uxtb	r3, r3
	.loc 1 91 0
	str	r0, [sp, #16]
.LBE3236:
.LBE3262:
.LBE3316:
.LBE4012:
.LBB4013:
.LBB3348:
	.loc 1 67 0
	movw	r5, #65240
.LBE3348:
.LBE4013:
.LBB4014:
.LBB3317:
.LBB3263:
.LBB3237:
	.loc 1 98 0
	str	r3, [sp, #48]
.LBE3237:
.LBE3263:
.LBE3317:
.LBE4014:
.LBB4015:
.LBB3349:
	.loc 1 67 0
	movt	r5, 65535
.LBE3349:
.LBE4015:
.LBB4016:
.LBB3318:
.LBB3264:
.LBB3238:
	.loc 1 92 0
	str	r1, [sp, #64]
.LBE3238:
.LBE3264:
.LBE3318:
	.loc 1 119 0
	bic	r3, r7, #127
.LBB3319:
.LBB3265:
.LBB3239:
	.loc 1 91 0
	strb	r0, [sp, #267]
.LBE3239:
.LBE3265:
	.loc 1 121 0
	ands	r3, r3, #255
.LBB3266:
.LBB3240:
	.loc 1 92 0
	strb	r1, [sp, #268]
.LBE3240:
.LBE3266:
.LBE3319:
.LBE4016:
.LBB4017:
.LBB3350:
	.loc 1 67 0
	movw	r4, #65248
	ldrd	r0, [sp, #56]
	movt	r4, 65535
.LBE3350:
.LBE4017:
.LBB4018:
.LBB3320:
.LBB3267:
.LBB3241:
	.loc 1 95 0
	str	sl, [sp, #20]
	.loc 1 93 0
	uxtb	fp, fp
	.loc 1 95 0
	strb	sl, [sp, #271]
.LBE3241:
.LBE3267:
.LBE3320:
.LBE4018:
.LBB4019:
.LBB3351:
	.loc 1 67 0
	add	sl, sp, #480
.LBE3351:
.LBE4019:
.LBB4020:
.LBB3321:
	.loc 1 121 0
	str	r3, [sp, #40]
.LBB3268:
.LBB3242:
	.loc 1 97 0
	uxtb	r2, r2
.LBE3242:
.LBE3268:
.LBE3321:
.LBE4020:
.LBB4021:
.LBB3352:
	.loc 1 47 0
	ldr	r3, [sp, #144]
	.loc 1 67 0
	strd	r8, [sl, r5]
.LBE3352:
.LBE4021:
.LBB4022:
.LBB3322:
.LBB3269:
.LBB3243:
	.loc 1 98 0
	ldr	r8, [sp, #48]
.LBE3243:
.LBE3269:
.LBE3322:
.LBE4022:
.LBB4023:
.LBB3353:
	.loc 1 67 0
	strd	r0, [sl, r4]
	.loc 1 45 0
	ldr	r7, [sp, #120]
	ldr	r0, [sp, #136]
	.loc 1 47 0
	str	r3, [sp, #56]
	.loc 1 46 0
	ldr	r1, [sp, #140]
	.loc 1 45 0
	eor	r7, r0, r7
	.loc 1 48 0
	ldr	r3, [sp, #148]
.LBE3353:
.LBE4023:
.LBB4024:
.LBB3323:
.LBB3270:
.LBB3244:
	.loc 1 90 0
	str	ip, [sp, #68]
	.loc 1 89 0
	strb	lr, [sp, #265]
	.loc 1 90 0
	strb	ip, [sp, #266]
	.loc 1 93 0
	str	fp, [sp, #8]
	strb	fp, [sp, #269]
	.loc 1 88 0
	uxtb	fp, r6
	.loc 1 97 0
	str	r2, [sp, #36]
	strb	r2, [sp, #273]
	.loc 1 88 0
	strb	fp, [sp, #264]
.LBE3244:
.LBE3270:
.LBE3323:
.LBE4024:
.LBB4025:
.LBB3354:
	.loc 1 46 0
	ldr	r4, [sp, #124]
	.loc 1 45 0
	str	r7, [sp, #80]
	.loc 1 47 0
	ldr	r5, [sp, #128]
	.loc 1 46 0
	eor	r4, r1, r4
	.loc 1 47 0
	ldr	r7, [sp, #56]
	.loc 1 48 0
	ldr	r6, [sp, #132]
.LBE3354:
.LBE4025:
.LBB4026:
.LBB3324:
.LBB3271:
.LBB3245:
	.loc 1 98 0
	strb	r8, [sp, #274]
.LBE3245:
.LBE3271:
.LBE3324:
.LBE4026:
.LBB4027:
.LBB3355:
	.loc 1 47 0
	eor	r5, r7, r5
.LBE3355:
.LBE4027:
.LBB4028:
.LBB3325:
.LBB3272:
.LBB3246:
	.loc 1 100 0
	ldrb	lr, [sp, #149]	@ zero_extendqisi2
.LBE3246:
.LBE3272:
.LBE3325:
.LBE4028:
.LBB4029:
.LBB3356:
	.loc 1 48 0
	eor	r6, r3, r6
.LVL471:
.LBE3356:
.LBE4029:
.LBB4030:
.LBB3326:
.LBB3273:
.LBB3247:
	.loc 1 99 0
	ldrb	r8, [sp, #148]	@ zero_extendqisi2
	.loc 1 102 0
	ldrb	r2, [sp, #151]	@ zero_extendqisi2
	.loc 1 100 0
	mov	r9, lr, lsr #7
	.loc 1 101 0
	ldrb	ip, [sp, #150]	@ zero_extendqisi2
	.loc 1 99 0
	ldr	r7, [sp, #32]
	mov	sl, r8, lsr #7
	.loc 1 100 0
	orr	r8, r9, r8, asl #1
	.loc 1 102 0
	mov	r9, r2, lsr #7
	.loc 1 104 0
	mov	r2, r2, asl #1
.LBE3247:
.LBE3273:
.LBE3326:
.LBE4030:
.LBB4031:
.LBB4032:
.LBB4033:
.LBB4034:
	.loc 1 88 0
	strb	fp, [sp, #168]
.LBE4034:
.LBE4033:
.LBE4032:
.LBE4031:
.LBB4073:
.LBB3327:
.LBB3274:
.LBB3248:
	.loc 1 99 0
	orr	sl, sl, r7, asl #1
	.loc 1 101 0
	mov	r7, ip, lsr #7
	.loc 1 104 0
	uxtb	r2, r2
	.loc 1 102 0
	orr	ip, r9, ip, asl #1
.LBE3248:
.LBE3274:
	.loc 1 122 0
	eorne	r9, r2, #120
.LBB3275:
.LBB3249:
	.loc 1 104 0
	strb	r2, [sp, #279]
	.loc 1 101 0
	orr	lr, r7, lr, asl #1
.LBE3249:
.LBE3275:
.LBB3276:
.LBB3277:
	.loc 1 46 0
	ldr	r7, [sp, #268]
.LBE3277:
.LBE3276:
	.loc 1 122 0
	mvnne	r9, r9
	strneb	r9, [sp, #279]
.LVL472:
.LBE3327:
.LBE4073:
.LBB4074:
.LBB4059:
	.loc 1 111 0
	ldr	r9, [sp, #40]
.LBE4059:
.LBE4074:
.LBB4075:
.LBB3328:
.LBB3291:
.LBB3250:
	.loc 1 99 0
	uxtb	sl, sl
	.loc 1 100 0
	uxtb	r8, r8
	.loc 1 99 0
	strb	sl, [sp, #275]
.LBE3250:
.LBE3291:
.LBE3328:
.LBE4075:
.LBB4076:
.LBB4060:
	.loc 1 111 0
	cmp	r9, #0
.LBE4060:
.LBE4076:
.LBB4077:
.LBB3329:
.LBB3292:
.LBB3278:
	.loc 1 45 0
	ldr	r9, [sp, #264]
.LBE3278:
.LBE3292:
.LBB3293:
.LBB3251:
	.loc 1 100 0
	strb	r8, [sp, #276]
	.loc 1 102 0
	uxtb	ip, ip
.LBE3251:
.LBE3293:
.LBB3294:
.LBB3279:
	.loc 1 45 0
	eor	fp, r0, r9
.LBE3279:
.LBE3294:
.LBE3329:
.LBE4077:
.LBB4078:
.LBB4061:
.LBB4047:
.LBB4035:
	.loc 1 89 0
	ldr	r9, [sp, #12]
.LBE4035:
.LBE4047:
.LBE4061:
.LBE4078:
.LBB4079:
.LBB3330:
.LBB3295:
.LBB3252:
	.loc 1 102 0
	strb	ip, [sp, #278]
	.loc 1 101 0
	uxtb	lr, lr
	strb	lr, [sp, #277]
.LBE3252:
.LBE3295:
.LBB3296:
.LBB3280:
	.loc 1 46 0
	eor	r1, r1, r7
.LBE3280:
.LBE3296:
.LBE3330:
.LBE4079:
.LBB4080:
.LBB4062:
.LBB4048:
.LBB4036:
	.loc 1 89 0
	strb	r9, [sp, #169]
.LBE4036:
.LBE4048:
	.loc 1 112 0
	eorne	r2, r2, #120
.LBB4049:
.LBB4037:
	.loc 1 90 0
	ldr	r9, [sp, #68]
.LBE4037:
.LBE4049:
.LBE4062:
.LBE4080:
.LBB4081:
.LBB3331:
.LBB3297:
.LBB3281:
	.loc 1 47 0
	ldr	r7, [sp, #56]
.LBE3281:
.LBE3297:
.LBE3331:
.LBE4081:
.LBB4082:
.LBB4063:
	.loc 1 112 0
	mvnne	r2, r2
.LBE4063:
.LBE4082:
.LBB4083:
.LBB3332:
.LBB3298:
.LBB3282:
	.loc 1 47 0
	ldr	r0, [sp, #272]
	.loc 1 46 0
	str	r1, [sp, #52]
	.loc 1 48 0
	ldr	r1, [sp, #276]
	.loc 1 47 0
	eor	r0, r7, r0
.LBE3282:
.LBE3298:
.LBE3332:
.LBE4083:
.LBB4084:
.LBB4064:
.LBB4050:
.LBB4038:
	.loc 1 90 0
	strb	r9, [sp, #170]
.LBE4038:
.LBE4050:
.LBE4064:
.LBE4084:
.LBB4085:
.LBB3333:
.LBB3299:
.LBB3283:
	.loc 1 48 0
	eor	r1, r3, r1
.LBE3283:
.LBE3299:
.LBE3333:
.LBE4085:
.LBB4086:
.LBB4065:
.LBB4051:
.LBB4039:
	.loc 1 94 0
	ldr	r7, [sp, #24]
	.loc 1 93 0
	ldr	r3, [sp, #8]
.LBE4039:
.LBE4051:
.LBE4065:
.LBE4086:
.LBB4087:
.LBB3334:
.LBB3300:
.LBB3284:
	.loc 1 47 0
	str	r0, [sp, #96]
	.loc 1 48 0
	str	r1, [sp, #100]
.LBE3284:
.LBE3300:
.LBE3334:
.LBE4087:
.LBB4088:
.LBB4066:
.LBB4052:
.LBB4040:
	.loc 1 91 0
	ldr	r0, [sp, #16]
	.loc 1 92 0
	ldr	r1, [sp, #64]
	.loc 1 95 0
	ldr	r9, [sp, #20]
	.loc 1 91 0
	strb	r0, [sp, #171]
	.loc 1 92 0
	strb	r1, [sp, #172]
	.loc 1 93 0
	strb	r3, [sp, #173]
	.loc 1 94 0
	strb	r7, [sp, #174]
	.loc 1 95 0
	strb	r9, [sp, #175]
.LBE4040:
.LBE4052:
.LBE4066:
.LBE4088:
.LBB4089:
.LBB3335:
.LBB3301:
.LBB3285:
	.loc 1 48 0
	ldr	r9, [sp, #100]
.LBE3285:
.LBE3301:
.LBE3335:
.LBE4089:
.LBB4090:
.LBB4067:
.LBB4053:
.LBB4041:
	.loc 1 100 0
	strb	r8, [sp, #180]
.LBE4041:
.LBE4053:
.LBE4067:
.LBE4090:
.LBB4091:
.LBB3336:
.LBB3302:
.LBB3286:
	.loc 1 47 0
	ldr	r8, [sp, #96]
	.loc 1 48 0
	str	r9, [sp, #164]
.LVL473:
.LBE3286:
.LBE3302:
.LBE3336:
.LBE4091:
.LBB4092:
.LBB3986:
	add	r9, sp, #512
.LVL474:
.LBE3986:
.LBE4092:
.LBB4093:
.LBB3337:
.LBB3303:
.LBB3287:
	.loc 1 45 0
	str	fp, [sp, #152]
.LBE3287:
.LBE3303:
.LBE3337:
.LBE4093:
.LBB4094:
.LBB4068:
.LBB4054:
.LBB4042:
	.loc 1 98 0
	ldr	r3, [sp, #48]
.LBE4042:
.LBE4054:
.LBE4068:
.LBE4094:
.LBB4095:
.LBB3338:
.LBB3304:
.LBB3288:
	.loc 1 46 0
	ldr	r7, [sp, #52]
.LBE3288:
.LBE3304:
.LBE3338:
.LBE4095:
.LBB4096:
.LBB4069:
.LBB4055:
.LBB4043:
	.loc 1 99 0
	strb	sl, [sp, #179]
.LBE4043:
.LBE4055:
.LBE4069:
.LBE4096:
.LBB4097:
.LBB3339:
.LBB3305:
.LBB3289:
	.loc 1 47 0
	str	r8, [sp, #160]
	ldrb	sl, [sp, #152]	@ zero_extendqisi2
.LBE3289:
.LBE3305:
.LBE3339:
.LBE4097:
.LBB4098:
.LBB3987:
	.loc 1 48 0
	ldrd	r8, [r9, #8]
.LBE3987:
.LBE4098:
.LBB4099:
.LBB3340:
.LBB3306:
.LBB3290:
	.loc 1 46 0
	str	r7, [sp, #156]
.LBE3290:
.LBE3306:
.LBE3340:
.LBE4099:
.LBB4100:
.LBB4070:
.LBB4056:
.LBB4044:
	.loc 1 96 0
	ldr	r0, [sp, #28]
.LBE4044:
.LBE4056:
.LBE4070:
.LBE4100:
.LBB4101:
.LBB3988:
	.loc 1 48 0
	strd	r8, [sp, #56]
	ldrb	r7, [sp, #155]	@ zero_extendqisi2
	ldrb	r8, [sp, #156]	@ zero_extendqisi2
.LBE3988:
.LBE4101:
.LBB4102:
.LBB4071:
.LBB4057:
.LBB4045:
	.loc 1 97 0
	ldr	r1, [sp, #36]
	.loc 1 98 0
	strb	r3, [sp, #178]
	str	sl, [sp, #12]
	ldrb	r3, [sp, #154]	@ zero_extendqisi2
	ldrb	sl, [sp, #153]	@ zero_extendqisi2
	ldrb	r9, [sp, #157]	@ zero_extendqisi2
.LVL475:
	.loc 1 102 0
	strb	ip, [sp, #182]
	add	ip, sp, #248
	str	sl, [sp, #68]
	str	ip, [sp, #76]
	str	r3, [sp, #16]
	str	r7, [sp, #64]
	str	r8, [sp, #8]
.LBE4045:
.LBE4057:
.LBE4071:
.LBE4102:
.LBB4103:
.LBB3989:
	.loc 1 48 0
	ldr	ip, [sp, #116]
.LBE3989:
.LBE4103:
.LBB4104:
.LBB4072:
.LBB4058:
.LBB4046:
	.loc 1 96 0
	strb	r0, [sp, #176]
	.loc 1 97 0
	strb	r1, [sp, #177]
	.loc 1 101 0
	strb	lr, [sp, #181]
.LBE4046:
.LBE4058:
	.loc 1 112 0
	strb	r2, [sp, #183]
.LVL476:
	str	r9, [sp, #24]
	ldrb	r3, [sp, #158]	@ zero_extendqisi2
	ldrb	r7, [sp, #159]	@ zero_extendqisi2
	ldrb	r8, [sp, #160]	@ zero_extendqisi2
	ldrb	r9, [sp, #161]	@ zero_extendqisi2
	str	r3, [sp, #20]
	ldrb	r3, [sp, #162]	@ zero_extendqisi2
.LBE4072:
.LBE4104:
.LBB4105:
.LBB3990:
	.loc 1 48 0
	ldr	sl, [sp, #112]
	str	r7, [sp, #28]
	str	r8, [sp, #36]
	ldrb	r7, [sp, #164]	@ zero_extendqisi2
	ldrb	r8, [sp, #166]	@ zero_extendqisi2
	str	r9, [sp, #32]
	str	r3, [sp, #48]
	ldrb	r9, [sp, #165]	@ zero_extendqisi2
	ldrb	r3, [sp, #163]	@ zero_extendqisi2
	str	r7, [sp, #40]
	str	r8, [sp, #72]
	mov	r8, sl
	str	fp, [sp, #108]
	mov	sl, ip
	mov	fp, r9
	ldr	r7, [sp, #80]
	mov	r9, r3
	b	.L450
.LVL477:
.L446:
.LBE3990:
.LBE4105:
.LBB4106:
	.loc 1 578 0
	subs	r0, r0, #16
.LBE4106:
	.loc 1 558 0
	mov	r2, #15
.LBB4290:
	.loc 1 578 0
	sbc	r1, r1, #0
.LBE4290:
	.loc 1 558 0
	mov	r3, #0
	cmp	r3, r1
	it eq
	cmpeq	r2, r0
.LBB4291:
	.loc 1 578 0
	strd	r0, [sp, #56]
	.loc 1 576 0
	add	r8, r8, #16
.LVL478:
	.loc 1 577 0
	add	sl, sl, #16
.LVL479:
.LBE4291:
	.loc 1 558 0
	bcs	.L449
.LBB4292:
.LBB3991:
	.loc 1 47 0
	add	r4, sp, #80
	ldr	r3, [sp, #152]
	ldr	ip, [sp, #156]
	ldmia	r4, {r4, r5, r7}
	str	r3, [sp, #108]
	str	ip, [sp, #52]
	ldr	r3, [sp, #160]
	ldr	ip, [sp, #164]
	.loc 1 48 0
	ldr	r6, [sp, #92]
	str	r3, [sp, #96]
	str	ip, [sp, #100]
.LVL480:
.L450:
.LBE3991:
.LBE4292:
.LBB4293:
.LBB4107:
.LBB4108:
	.loc 1 45 0
	ldr	r2, [r8, #0]
.LBE4108:
.LBE4107:
	.loc 1 562 0
	add	r1, sp, #264
.LVL481:
.LBB4112:
.LBB4109:
	.loc 1 45 0
	ldr	r3, [sp, #168]
	.loc 1 46 0
	ldr	ip, [r8, #4]
	.loc 1 45 0
	eor	r3, r2, r3
	str	r3, [sp, #248]
	.loc 1 46 0
	ldr	r3, [sp, #172]
.LBE4109:
.LBE4112:
	.loc 1 562 0
	add	r2, sp, #300
.LBB4113:
.LBB4110:
	.loc 1 47 0
	ldr	lr, [r8, #8]
	.loc 1 46 0
	eor	r3, ip, r3
	str	r3, [sp, #252]
	.loc 1 47 0
	ldr	r3, [sp, #176]
	.loc 1 48 0
	ldr	ip, [r8, #12]
	.loc 1 47 0
	eor	r3, lr, r3
	str	r3, [sp, #256]
	.loc 1 48 0
	ldr	r3, [sp, #180]
.LBE4110:
.LBE4113:
	.loc 1 562 0
	ldr	r0, [sp, #76]
.LBB4114:
.LBB4111:
	.loc 1 48 0
	eor	r3, ip, r3
	str	r3, [sp, #260]
.LBE4111:
.LBE4114:
	.loc 1 562 0
	bl	aesc_decrypt
.LVL482:
.LBB4115:
.LBB4116:
	.loc 1 45 0
	ldr	ip, [sp, #264]
.LBE4116:
.LBE4115:
	.loc 1 566 0
	ldr	r0, [sp, #76]
	add	r2, sp, #300
.LBB4119:
.LBB4117:
	.loc 1 45 0
	str	ip, [sp, #88]
	.loc 1 46 0
	ldr	ip, [sp, #268]
.LBE4117:
.LBE4119:
	.loc 1 566 0
	mov	r1, r0
.LBB4120:
.LBB4118:
	.loc 1 46 0
	str	ip, [sp, #80]
	.loc 1 47 0
	ldr	ip, [sp, #272]
	str	ip, [sp, #84]
	.loc 1 45 0
	ldr	ip, [sp, #88]
	eor	r7, r7, ip
	.loc 1 46 0
	ldr	ip, [sp, #80]
	.loc 1 45 0
	str	r7, [sp, #248]
	.loc 1 48 0
	ldr	r7, [sp, #276]
	.loc 1 46 0
	eor	r4, r4, ip
	.loc 1 47 0
	ldr	ip, [sp, #84]
	.loc 1 48 0
	eor	r6, r6, r7
	.loc 1 46 0
	str	r4, [sp, #252]
	.loc 1 47 0
	eor	r5, r5, ip
	.loc 1 48 0
	str	r7, [sp, #92]
	.loc 1 47 0
	str	r5, [sp, #256]
	.loc 1 48 0
	str	r6, [sp, #260]
.LVL483:
.LBE4118:
.LBE4120:
	.loc 1 566 0
	bl	aesc_decrypt
.LVL484:
.LBB4121:
.LBB4122:
.LBB4123:
.LBB4124:
	.loc 1 101 0
	ldr	r3, [sp, #72]
	.loc 1 99 0
	ldr	r4, [sp, #40]
	.loc 1 102 0
	ldrb	ip, [sp, #167]	@ zero_extendqisi2
	ldr	r5, [sp, #72]
	.loc 1 101 0
	mov	r2, r3, lsr #7
	.loc 1 97 0
	ldr	r6, [sp, #48]
	.loc 1 100 0
	mov	r3, fp, lsr #7
	.loc 1 99 0
	mov	r1, r4, lsr #7
	.loc 1 101 0
	orr	fp, r2, fp, asl #1
	.loc 1 100 0
	orr	r3, r3, r4, asl #1
	.loc 1 101 0
	str	fp, [sp, #104]
	.loc 1 96 0
	ldr	r4, [sp, #32]
	.loc 1 102 0
	mov	fp, ip, lsr #7
	orr	fp, fp, r5, asl #1
	.loc 1 95 0
	ldr	r5, [sp, #36]
	.loc 1 100 0
	str	r3, [sp, #40]
	.loc 1 97 0
	mov	r3, r6, lsr #7
	orr	r3, r3, r4, asl #1
	.loc 1 96 0
	mov	r7, r4, lsr #7
	.loc 1 94 0
	ldr	r4, [sp, #28]
	.loc 1 96 0
	orr	r7, r7, r5, asl #1
	str	r7, [sp, #36]
	.loc 1 98 0
	mov	r2, r9, lsr #7
	.loc 1 93 0
	ldr	r7, [sp, #20]
	.loc 1 98 0
	orr	r2, r2, r6, asl #1
	.loc 1 97 0
	str	r3, [sp, #32]
	.loc 1 94 0
	mov	r3, r4, lsr #7
	.loc 1 95 0
	mov	r6, r5, lsr #7
	.loc 1 98 0
	str	r2, [sp, #48]
	.loc 1 94 0
	orr	r3, r3, r7, asl #1
	.loc 1 93 0
	mov	r5, r7, lsr #7
	ldr	r7, [sp, #24]
	.loc 1 95 0
	orr	r6, r6, r4, asl #1
	.loc 1 92 0
	ldr	r4, [sp, #24]
	.loc 1 99 0
	orr	r9, r1, r9, asl #1
	.loc 1 95 0
	str	r6, [sp, #28]
	.loc 1 102 0
	uxtb	fp, fp
	.loc 1 91 0
	ldr	r6, [sp, #8]
	.loc 1 93 0
	orr	r5, r5, r7, asl #1
	str	r5, [sp, #24]
	.loc 1 92 0
	mov	r2, r4, lsr #7
	.loc 1 90 0
	ldr	r5, [sp, #64]
	.loc 1 99 0
	uxtb	r9, r9
	.loc 1 88 0
	ldr	r7, [sp, #68]
	.loc 1 91 0
	mov	r4, r6, lsr #7
	.loc 1 92 0
	orr	r2, r2, r6, asl #1
	.loc 1 94 0
	str	r3, [sp, #20]
	.loc 1 89 0
	ldr	r6, [sp, #16]
	.loc 1 90 0
	mov	r3, r5, lsr #7
	.loc 1 91 0
	orr	r4, r4, r5, asl #1
.LBE4124:
.LBE4123:
.LBE4122:
	.loc 1 109 0
	ldr	r5, [sp, #12]
.LBB4153:
.LBB4139:
.LBB4125:
	.loc 1 92 0
	str	r2, [sp, #8]
	.loc 1 88 0
	mov	r2, r7, lsr #7
	.loc 1 90 0
	orr	r3, r3, r6, asl #1
	.loc 1 89 0
	mov	lr, r6, lsr #7
	.loc 1 88 0
	orr	r2, r2, r5, asl #1
	.loc 1 90 0
	str	r3, [sp, #16]
	.loc 1 88 0
	str	r2, [sp, #12]
.LBE4125:
.LBE4139:
.LBE4153:
	.loc 1 109 0
	bic	r3, r5, #127
.LBE4121:
.LBB4169:
.LBB4170:
	.loc 1 47 0
	ldr	r2, [sp, #256]
.LBE4170:
.LBE4169:
.LBB4181:
.LBB4154:
.LBB4140:
.LBB4126:
	.loc 1 89 0
	orr	lr, lr, r7, asl #1
.LBE4126:
.LBE4140:
.LBE4154:
.LBE4181:
.LBB4182:
.LBB4171:
	.loc 1 47 0
	ldr	r5, [sp, #96]
.LBE4171:
.LBE4182:
.LBB4183:
.LBB4155:
	.loc 1 111 0
	cmp	r3, #0
.LBB4141:
.LBB4127:
	.loc 1 89 0
	str	lr, [sp, #68]
	.loc 1 91 0
	uxtb	r4, r4
.LBE4127:
.LBE4141:
.LBE4155:
.LBE4183:
.LBB4184:
.LBB4185:
	.loc 1 48 0
	ldr	lr, [sp, #212]
.LBE4185:
.LBE4184:
.LBB4195:
.LBB4172:
	.loc 1 47 0
	eor	r2, r5, r2
	.loc 1 45 0
	ldr	r6, [sp, #108]
.LBE4172:
.LBE4195:
.LBB4196:
.LBB4156:
.LBB4142:
.LBB4128:
	.loc 1 104 0
	mov	ip, ip, asl #1
.LBE4128:
.LBE4142:
.LBE4156:
.LBE4196:
.LBB4197:
.LBB4173:
	.loc 1 46 0
	ldr	r7, [sp, #52]
	.loc 1 48 0
	ldr	r5, [sp, #100]
.LBE4173:
.LBE4197:
.LBB4198:
.LBB4157:
.LBB4143:
.LBB4129:
	.loc 1 104 0
	uxtb	ip, ip
.LBE4129:
.LBE4143:
.LBE4157:
.LBE4198:
.LBB4199:
.LBB4174:
	.loc 1 45 0
	ldr	r0, [sp, #248]
.LBE4174:
.LBE4199:
.LBB4200:
.LBB4158:
	.loc 1 112 0
	eorne	ip, ip, #120
.LBE4158:
.LBE4200:
.LBB4201:
.LBB4175:
	.loc 1 46 0
	ldr	r1, [sp, #252]
	.loc 1 48 0
	ldr	r3, [sp, #260]
	.loc 1 45 0
	eor	r0, r6, r0
	.loc 1 46 0
	eor	r1, r7, r1
.LBE4175:
.LBE4201:
.LBB4202:
.LBB4186:
	.loc 1 45 0
	ldr	r6, [sp, #200]
.LBE4186:
.LBE4202:
.LBB4203:
.LBB4176:
	.loc 1 48 0
	eor	r3, r5, r3
.LBE4176:
.LBE4203:
.LBB4204:
.LBB4187:
	.loc 1 46 0
	ldr	r7, [sp, #204]
	.loc 1 47 0
	ldr	r5, [sp, #208]
.LBE4187:
.LBE4204:
.LBB4205:
.LBB4159:
	.loc 1 112 0
	mvnne	ip, ip
.LBE4159:
.LBE4205:
.LBB4206:
.LBB4188:
	.loc 1 48 0
	str	lr, [sp, #52]
	.loc 1 45 0
	eor	r6, r6, r0
.LBE4188:
.LBE4206:
.LBB4207:
.LBB4160:
.LBB4144:
.LBB4130:
	.loc 1 101 0
	ldr	lr, [sp, #104]
.LBE4130:
.LBE4144:
.LBE4160:
.LBE4207:
.LBB4208:
.LBB4189:
	.loc 1 46 0
	eor	r7, r7, r1
.LBE4189:
.LBE4208:
.LBB4209:
.LBB4161:
.LBB4145:
.LBB4131:
	.loc 1 102 0
	str	fp, [sp, #72]
.LBE4131:
.LBE4145:
.LBE4161:
.LBE4209:
.LBB4210:
.LBB4190:
	.loc 1 47 0
	eor	r5, r5, r2
.LBE4190:
.LBE4210:
.LBB4211:
.LBB4162:
.LBB4146:
.LBB4132:
	.loc 1 99 0
	strb	r9, [sp, #163]
	.loc 1 101 0
	uxtb	fp, lr
	.loc 1 102 0
	ldr	lr, [sp, #72]
	.loc 1 101 0
	strb	fp, [sp, #165]
	.loc 1 102 0
	strb	lr, [sp, #166]
	.loc 1 100 0
	ldr	lr, [sp, #40]
	uxtb	lr, lr
	str	lr, [sp, #40]
	strb	lr, [sp, #164]
	.loc 1 98 0
	ldr	lr, [sp, #48]
	uxtb	lr, lr
	str	lr, [sp, #48]
	.loc 1 97 0
	ldr	lr, [sp, #32]
	uxtb	lr, lr
	str	lr, [sp, #32]
	.loc 1 98 0
	ldr	lr, [sp, #48]
	strb	lr, [sp, #162]
	.loc 1 97 0
	ldr	lr, [sp, #32]
	strb	lr, [sp, #161]
	.loc 1 96 0
	ldr	lr, [sp, #36]
	uxtb	lr, lr
	str	lr, [sp, #36]
	.loc 1 95 0
	ldr	lr, [sp, #28]
	uxtb	lr, lr
	str	lr, [sp, #28]
	.loc 1 96 0
	ldr	lr, [sp, #36]
	strb	lr, [sp, #160]
	.loc 1 95 0
	ldr	lr, [sp, #28]
	strb	lr, [sp, #159]
	.loc 1 94 0
	ldr	lr, [sp, #20]
	uxtb	lr, lr
	str	lr, [sp, #20]
	.loc 1 93 0
	ldr	lr, [sp, #24]
	uxtb	lr, lr
	str	lr, [sp, #24]
	.loc 1 94 0
	ldr	lr, [sp, #20]
	strb	lr, [sp, #158]
	.loc 1 93 0
	ldr	lr, [sp, #24]
	strb	lr, [sp, #157]
	.loc 1 92 0
	ldr	lr, [sp, #8]
	uxtb	lr, lr
	str	lr, [sp, #8]
	.loc 1 91 0
	str	r4, [sp, #64]
	strb	r4, [sp, #155]
	.loc 1 90 0
	ldr	r4, [sp, #16]
	.loc 1 92 0
	strb	lr, [sp, #156]
.LBE4132:
.LBE4146:
.LBE4162:
.LBE4211:
.LBB4212:
.LBB4191:
	.loc 1 48 0
	ldr	lr, [sp, #52]
.LBE4191:
.LBE4212:
.LBB4213:
.LBB4163:
.LBB4147:
.LBB4133:
	.loc 1 90 0
	uxtb	r4, r4
	str	r4, [sp, #16]
	.loc 1 89 0
	ldr	r4, [sp, #68]
.LBE4133:
.LBE4147:
.LBE4163:
.LBE4213:
.LBB4214:
.LBB4192:
	.loc 1 48 0
	eor	lr, lr, r3
	str	lr, [sp, #52]
	str	lr, [sp, #212]
.LBE4192:
.LBE4214:
.LBB4215:
.LBB4164:
.LBB4148:
.LBB4134:
	.loc 1 89 0
	uxtb	r4, r4
	str	r4, [sp, #68]
	.loc 1 90 0
	ldr	r4, [sp, #16]
.LBE4134:
.LBE4148:
.LBE4164:
.LBE4215:
.LBB4216:
.LBB4217:
.LBB4218:
.LBB4219:
	.loc 1 102 0
	ldrb	lr, [sp, #183]	@ zero_extendqisi2
.LBE4219:
.LBE4218:
.LBE4217:
.LBE4216:
.LBB4256:
.LBB4165:
	.loc 1 112 0
	strb	ip, [sp, #167]
.LBB4149:
.LBB4135:
	.loc 1 90 0
	strb	r4, [sp, #154]
	.loc 1 89 0
	ldr	r4, [sp, #68]
.LBE4135:
.LBE4149:
.LBE4165:
.LBE4256:
.LBB4257:
.LBB4244:
.LBB4232:
.LBB4220:
	.loc 1 101 0
	ldrb	ip, [sp, #182]	@ zero_extendqisi2
.LBE4220:
.LBE4232:
.LBE4244:
.LBE4257:
.LBB4258:
.LBB4177:
	.loc 1 45 0
	str	r0, [sl, #0]
.LBE4177:
.LBE4258:
.LBB4259:
.LBB4166:
.LBB4150:
.LBB4136:
	.loc 1 89 0
	strb	r4, [sp, #153]
	.loc 1 88 0
	ldr	r4, [sp, #12]
.LBE4136:
.LBE4150:
.LBE4166:
.LBE4259:
.LBB4260:
.LBB4245:
.LBB4233:
.LBB4221:
	.loc 1 100 0
	ldrb	r0, [sp, #181]	@ zero_extendqisi2
.LBE4221:
.LBE4233:
.LBE4245:
.LBE4260:
.LBB4261:
.LBB4178:
	.loc 1 46 0
	str	r1, [sl, #4]
.LBE4178:
.LBE4261:
.LBB4262:
.LBB4167:
.LBB4151:
.LBB4137:
	.loc 1 88 0
	uxtb	r4, r4
.LBE4137:
.LBE4151:
.LBE4167:
.LBE4262:
.LBB4263:
.LBB4246:
.LBB4234:
.LBB4222:
	.loc 1 99 0
	ldrb	r1, [sp, #180]	@ zero_extendqisi2
.LBE4222:
.LBE4234:
.LBE4246:
.LBE4263:
.LBB4264:
.LBB4168:
.LBB4152:
.LBB4138:
	.loc 1 88 0
	str	r4, [sp, #12]
	strb	r4, [sp, #152]
.LBE4138:
.LBE4152:
.LBE4168:
.LBE4264:
.LBB4265:
.LBB4247:
.LBB4235:
.LBB4223:
	.loc 1 104 0
	mov	r4, lr, asl #1
	.loc 1 102 0
	mov	lr, lr, lsr #7
.LBE4223:
.LBE4235:
.LBE4247:
.LBE4265:
.LBB4266:
.LBB4179:
	.loc 1 47 0
	str	r2, [sl, #8]
.LBE4179:
.LBE4266:
.LBB4267:
.LBB4248:
.LBB4236:
.LBB4224:
	.loc 1 102 0
	orr	lr, lr, ip, asl #1
	.loc 1 98 0
	ldrb	r2, [sp, #179]	@ zero_extendqisi2
	.loc 1 101 0
	mov	ip, ip, lsr #7
.LBE4224:
.LBE4236:
.LBE4248:
.LBE4267:
.LBB4268:
.LBB4180:
	.loc 1 48 0
	str	r3, [sl, #12]
.LVL485:
.LBE4180:
.LBE4268:
.LBB4269:
.LBB4249:
.LBB4237:
.LBB4225:
	.loc 1 101 0
	orr	ip, ip, r0, asl #1
	.loc 1 97 0
	ldrb	r3, [sp, #178]	@ zero_extendqisi2
	.loc 1 100 0
	mov	r0, r0, lsr #7
	.loc 1 101 0
	strb	ip, [sp, #181]
	.loc 1 100 0
	orr	r0, r0, r1, asl #1
	.loc 1 96 0
	ldrb	ip, [sp, #177]	@ zero_extendqisi2
	.loc 1 99 0
	mov	r1, r1, lsr #7
.LBE4225:
.LBE4237:
.LBE4249:
.LBE4269:
.LBB4270:
.LBB4193:
	.loc 1 45 0
	str	r6, [sp, #200]
.LBE4193:
.LBE4270:
.LBB4271:
.LBB4250:
.LBB4238:
.LBB4226:
	.loc 1 99 0
	orr	r1, r1, r2, asl #1
.LBE4226:
.LBE4238:
.LBE4250:
.LBE4271:
.LBB4272:
.LBB4194:
	.loc 1 46 0
	str	r7, [sp, #204]
	.loc 1 47 0
	str	r5, [sp, #208]
.LBE4194:
.LBE4272:
.LBB4273:
.LBB4251:
.LBB4239:
.LBB4227:
	.loc 1 98 0
	mov	r2, r2, lsr #7
	.loc 1 102 0
	strb	lr, [sp, #182]
	.loc 1 98 0
	orr	r2, r2, r3, asl #1
	.loc 1 100 0
	strb	r0, [sp, #180]
	.loc 1 97 0
	mov	r3, r3, lsr #7
	.loc 1 95 0
	ldrb	r0, [sp, #176]	@ zero_extendqisi2
	.loc 1 97 0
	orr	r3, r3, ip, asl #1
	.loc 1 99 0
	strb	r1, [sp, #179]
	.loc 1 96 0
	mov	ip, ip, lsr #7
	.loc 1 94 0
	ldrb	r1, [sp, #175]	@ zero_extendqisi2
	.loc 1 104 0
	uxtb	r4, r4
	.loc 1 98 0
	strb	r2, [sp, #178]
	.loc 1 96 0
	orr	ip, ip, r0, asl #1
	.loc 1 93 0
	ldrb	r2, [sp, #174]	@ zero_extendqisi2
	.loc 1 95 0
	mov	r0, r0, lsr #7
	.loc 1 97 0
	strb	r3, [sp, #177]
	.loc 1 95 0
	orr	r0, r0, r1, asl #1
	.loc 1 92 0
	ldrb	r3, [sp, #173]	@ zero_extendqisi2
