	.file	"yaes.c"
	.text
.Ltext0:
	.p2align 4,,15
	.globl	x_mult
	.type	x_mult, @function
x_mult:
.LFB658:
	.file 1 "yaes.c"
	.loc 1 204 0
	.cfi_startproc
.LVL0:
.LBB652:
.LBB653:
	.file 2 "/usr/lib/gcc/x86_64-redhat-linux/4.8.2/include/smmintrin.h"
	.loc 2 67 0
	vmovdqa	.LC0(%rip), %xmm2
.LBE653:
.LBE652:
.LBB655:
.LBB656:
	.file 3 "/usr/lib/gcc/x86_64-redhat-linux/4.8.2/include/emmintrin.h"
	.loc 3 1178 0
	vpsrlq	$1, %xmm0, %xmm1
.LVL1:
.LBE656:
.LBE655:
.LBB657:
.LBB654:
	.loc 2 67 0
	vptest	%xmm0, %xmm2
.LBE654:
.LBE657:
	.loc 1 208 0
	je	.L2
.LVL2:
.LBB658:
.LBB659:
	.loc 3 1250 0
	vpxor	.LC1(%rip), %xmm1, %xmm1
.LVL3:
.L2:
.LBE659:
.LBE658:
.LBB660:
.LBB661:
	.loc 2 67 0
	vmovdqa	.LC2(%rip), %xmm2
	vptest	%xmm0, %xmm2
.LBE661:
.LBE660:
	.loc 1 213 0
	je	.L4
.LVL4:
.LBB662:
.LBB663:
	.loc 3 1250 0
	vpxor	.LC3(%rip), %xmm1, %xmm1
.LVL5:
.L4:
.LBE663:
.LBE662:
	.loc 1 218 0
	vmovdqa	%xmm1, %xmm0
.LVL6:
	ret
	.cfi_endproc
.LFE658:
	.size	x_mult, .-x_mult
	.p2align 4,,15
	.globl	padd
	.type	padd, @function
padd:
.LFB659:
	.loc 1 220 0
	.cfi_startproc
.LVL7:
	.loc 1 222 0
	cmpl	$15, %edi
	ja	.L24
	movl	%edi, %edi
	jmp	*.L9(,%rdi,8)
	.section	.rodata
	.align 8
	.align 4
.L9:
	.quad	.L24
	.quad	.L8
	.quad	.L10
	.quad	.L11
	.quad	.L12
	.quad	.L13
	.quad	.L14
	.quad	.L15
	.quad	.L16
	.quad	.L17
	.quad	.L18
	.quad	.L19
	.quad	.L20
	.quad	.L21
	.quad	.L22
	.quad	.L23
	.text
	.p2align 4,,10
	.p2align 3
.L23:
.LVL8:
.LBB664:
.LBB665:
	.loc 2 179 0
	vmovdqa	.LC33(%rip), %xmm1
	vpblendvb	%xmm1, .LC32(%rip), %xmm0, %xmm0
.LVL9:
.L24:
.LBE665:
.LBE664:
	.loc 1 303 0
	rep ret
.LVL10:
	.p2align 4,,10
	.p2align 3
.L8:
.LBB666:
.LBB667:
	.loc 2 179 0
	vmovdqa	.LC5(%rip), %xmm1
	vpblendvb	%xmm1, .LC4(%rip), %xmm0, %xmm0
.LVL11:
.LBE667:
.LBE666:
	.loc 1 227 0
	ret
.LVL12:
	.p2align 4,,10
	.p2align 3
.L10:
.LBB668:
.LBB669:
	.loc 2 179 0
	vmovdqa	.LC7(%rip), %xmm1
	vpblendvb	%xmm1, .LC6(%rip), %xmm0, %xmm0
.LVL13:
.LBE669:
.LBE668:
	.loc 1 232 0
	ret
.LVL14:
	.p2align 4,,10
	.p2align 3
.L11:
.LBB670:
.LBB671:
	.loc 2 179 0
	vmovdqa	.LC9(%rip), %xmm1
	vpblendvb	%xmm1, .LC8(%rip), %xmm0, %xmm0
.LVL15:
.LBE671:
.LBE670:
	.loc 1 237 0
	ret
.LVL16:
	.p2align 4,,10
	.p2align 3
.L12:
.LBB672:
.LBB673:
	.loc 2 179 0
	vmovdqa	.LC11(%rip), %xmm1
	vpblendvb	%xmm1, .LC10(%rip), %xmm0, %xmm0
.LVL17:
.LBE673:
.LBE672:
	.loc 1 242 0
	ret
.LVL18:
	.p2align 4,,10
	.p2align 3
.L13:
.LBB674:
.LBB675:
	.loc 2 179 0
	vmovdqa	.LC13(%rip), %xmm1
	vpblendvb	%xmm1, .LC12(%rip), %xmm0, %xmm0
.LVL19:
.LBE675:
.LBE674:
	.loc 1 247 0
	ret
.LVL20:
	.p2align 4,,10
	.p2align 3
.L14:
.LBB676:
.LBB677:
	.loc 2 179 0
	vmovdqa	.LC15(%rip), %xmm1
	vpblendvb	%xmm1, .LC14(%rip), %xmm0, %xmm0
.LVL21:
.LBE677:
.LBE676:
	.loc 1 252 0
	ret
.LVL22:
	.p2align 4,,10
	.p2align 3
.L15:
.LBB678:
.LBB679:
	.loc 2 179 0
	vmovdqa	.LC17(%rip), %xmm1
	vpblendvb	%xmm1, .LC16(%rip), %xmm0, %xmm0
.LVL23:
.LBE679:
.LBE678:
	.loc 1 257 0
	ret
.LVL24:
	.p2align 4,,10
	.p2align 3
.L16:
.LBB680:
.LBB681:
	.loc 2 179 0
	vmovdqa	.LC19(%rip), %xmm1
	vpblendvb	%xmm1, .LC18(%rip), %xmm0, %xmm0
.LVL25:
.LBE681:
.LBE680:
	.loc 1 262 0
	ret
.LVL26:
	.p2align 4,,10
	.p2align 3
.L17:
.LBB682:
.LBB683:
	.loc 2 179 0
	vmovdqa	.LC21(%rip), %xmm1
	vpblendvb	%xmm1, .LC20(%rip), %xmm0, %xmm0
.LVL27:
.LBE683:
.LBE682:
	.loc 1 267 0
	ret
.LVL28:
	.p2align 4,,10
	.p2align 3
.L18:
.LBB684:
.LBB685:
	.loc 2 179 0
	vmovdqa	.LC23(%rip), %xmm1
	vpblendvb	%xmm1, .LC22(%rip), %xmm0, %xmm0
.LVL29:
.LBE685:
.LBE684:
	.loc 1 272 0
	ret
.LVL30:
	.p2align 4,,10
	.p2align 3
.L19:
.LBB686:
.LBB687:
	.loc 2 179 0
	vmovdqa	.LC25(%rip), %xmm1
	vpblendvb	%xmm1, .LC24(%rip), %xmm0, %xmm0
.LVL31:
.LBE687:
.LBE686:
	.loc 1 277 0
	ret
.LVL32:
	.p2align 4,,10
	.p2align 3
.L20:
.LBB688:
.LBB689:
	.loc 2 179 0
	vmovdqa	.LC27(%rip), %xmm1
	vpblendvb	%xmm1, .LC26(%rip), %xmm0, %xmm0
.LVL33:
.LBE689:
.LBE688:
	.loc 1 282 0
	ret
.LVL34:
	.p2align 4,,10
	.p2align 3
.L21:
.LBB690:
.LBB691:
	.loc 2 179 0
	vmovdqa	.LC29(%rip), %xmm1
	vpblendvb	%xmm1, .LC28(%rip), %xmm0, %xmm0
.LVL35:
.LBE691:
.LBE690:
	.loc 1 287 0
	ret
.LVL36:
	.p2align 4,,10
	.p2align 3
.L22:
.LBB692:
.LBB693:
	.loc 2 179 0
	vmovdqa	.LC31(%rip), %xmm1
	vpblendvb	%xmm1, .LC30(%rip), %xmm0, %xmm0
.LVL37:
.LBE693:
.LBE692:
	.loc 1 292 0
	ret
	.cfi_endproc
.LFE659:
	.size	padd, .-padd
	.p2align 4,,15
	.globl	EF128
	.type	EF128, @function
EF128:
.LFB655:
	.loc 1 58 0
	.cfi_startproc
.LVL38:
	pushq	%r15
	.cfi_def_cfa_offset 16
	.cfi_offset 15, -16
	.loc 1 63 0
	movl	%edx, %eax
	.loc 1 58 0
	pushq	%r14
	.cfi_def_cfa_offset 24
	.cfi_offset 14, -24
	pushq	%r13
	.cfi_def_cfa_offset 32
	.cfi_offset 13, -32
	pushq	%r12
	.cfi_def_cfa_offset 40
	.cfi_offset 12, -40
	pushq	%rbp
	.cfi_def_cfa_offset 48
	.cfi_offset 6, -48
	.loc 1 63 0
	leal	30(%rdx), %ebp
	.loc 1 58 0
	pushq	%rbx
	.cfi_def_cfa_offset 56
	.cfi_offset 3, -56
	subq	$216, %rsp
	.cfi_def_cfa_offset 272
	.loc 1 63 0
	addl	$15, %eax
	cmovns	%eax, %ebp
.LBB914:
.LBB915:
	.loc 3 1250 0
	vmovdqa	.LC34(%rip), %xmm1
.LBE915:
.LBE914:
.LBB917:
.LBB918:
	.loc 1 346 0
	vmovdqa	(%r8), %xmm2
.LBE918:
.LBE917:
	.loc 1 63 0
	sarl	$4, %ebp
.LVL39:
.LBB944:
.LBB941:
	.loc 1 347 0
	vmovdqa	16(%r8), %xmm0
.LBE941:
.LBE944:
.LBB945:
.LBB916:
	.loc 3 1250 0
	vpxor	(%rdi), %xmm1, %xmm1
.LVL40:
.LBE916:
.LBE945:
.LBB946:
.LBB942:
	.loc 1 348 0
	vmovdqa	32(%r8), %xmm8
.LBE942:
.LBE946:
	.loc 1 70 0
	testl	%ebp, %ebp
.LBB947:
.LBB943:
.LBB919:
.LBB920:
	.loc 3 1250 0
	vpxor	%xmm2, %xmm1, %xmm1
.LVL41:
.LBE920:
.LBE919:
	.loc 1 349 0
	vmovdqa	48(%r8), %xmm9
.LBB921:
.LBB922:
	.file 4 "/usr/lib/gcc/x86_64-redhat-linux/4.8.2/include/wmmintrin.h"
	.loc 4 62 0
	vaesenc	%xmm0, %xmm1, %xmm1
.LVL42:
.LBE922:
.LBE921:
	.loc 1 350 0
	vmovdqa	64(%r8), %xmm10
.LBB923:
.LBB924:
	.loc 4 62 0
	vaesenc	%xmm8, %xmm1, %xmm1
.LVL43:
.LBE924:
.LBE923:
	.loc 1 351 0
	vmovdqa	80(%r8), %xmm11
.LBB925:
.LBB926:
	.loc 4 62 0
	vaesenc	%xmm9, %xmm1, %xmm1
.LVL44:
.LBE926:
.LBE925:
	.loc 1 352 0
	vmovdqa	96(%r8), %xmm15
.LBB927:
.LBB928:
	.loc 4 62 0
	vaesenc	%xmm10, %xmm1, %xmm1
.LVL45:
.LBE928:
.LBE927:
	.loc 1 353 0
	vmovdqa	112(%r8), %xmm4
.LBB929:
.LBB930:
	.loc 4 62 0
	vaesenc	%xmm11, %xmm1, %xmm1
.LVL46:
.LBE930:
.LBE929:
	.loc 1 354 0
	vmovdqa	128(%r8), %xmm5
.LBB931:
.LBB932:
	.loc 4 62 0
	vaesenc	%xmm15, %xmm1, %xmm1
.LVL47:
.LBE932:
.LBE931:
	.loc 1 355 0
	vmovdqa	144(%r8), %xmm6
.LBB933:
.LBB934:
	.loc 4 62 0
	vaesenc	%xmm4, %xmm1, %xmm1
.LVL48:
.LBE934:
.LBE933:
	.loc 1 356 0
	vmovdqa	160(%r8), %xmm7
.LBB935:
.LBB936:
	.loc 4 62 0
	vaesenc	%xmm5, %xmm1, %xmm1
.LVL49:
.LBE936:
.LBE935:
.LBB937:
.LBB938:
	vaesenc	%xmm6, %xmm1, %xmm1
.LVL50:
.LBE938:
.LBE937:
.LBB939:
.LBB940:
	.loc 4 70 0
	vaesenclast	%xmm7, %xmm1, %xmm1
.LVL51:
.LBE940:
.LBE939:
.LBE943:
.LBE947:
	.loc 1 70 0
	jle	.L47
	.loc 1 81 0
	movl	%edx, %eax
	movl	%edx, %r14d
	movq	%rcx, %r15
	sarl	$31, %eax
	andl	$15, %r14d
	.loc 1 68 0
	vpxor	%xmm3, %xmm3, %xmm3
	.loc 1 81 0
	shrl	$28, %eax
	.loc 1 70 0
	xorl	%ebx, %ebx
	vmovdqa	.LC35(%rip), %xmm13
	.loc 1 81 0
	leal	(%rdx,%rax), %r13d
	vmovdqa	.LC0(%rip), %xmm12
	leal	-1(%rbp), %r12d
	andl	$15, %r13d
	vmovdqa	.LC2(%rip), %xmm14
	subl	%eax, %r13d
	jmp	.L34
.LVL52:
	.p2align 4,,10
	.p2align 3
.L49:
	vmovdqa	16(%r8), %xmm0
.LVL53:
	.loc 1 70 0
	vmovdqa	%xmm2, %xmm1
.LVL54:
	vmovdqa	32(%r8), %xmm8
	vmovdqa	48(%r8), %xmm9
	vmovdqa	64(%r8), %xmm10
	vmovdqa	80(%r8), %xmm11
	vmovdqa	96(%r8), %xmm15
	vmovdqa	112(%r8), %xmm4
	vmovdqa	128(%r8), %xmm5
	vmovdqa	144(%r8), %xmm6
	vmovdqa	160(%r8), %xmm7
.LVL55:
.L34:
	.loc 1 80 0
	cmpl	%r12d, %ebx
.LBB948:
.LBB949:
	.file 5 "/usr/lib/gcc/x86_64-redhat-linux/4.8.2/include/tmmintrin.h"
	.loc 5 136 0
	vpshufb	%xmm13, %xmm1, %xmm2
.LVL56:
.LBE949:
.LBE948:
.LBB950:
.LBB951:
	.loc 4 62 0
	vaesenc	%xmm0, %xmm2, %xmm0
.LVL57:
.LBE951:
.LBE950:
.LBB952:
.LBB953:
	vaesenc	%xmm8, %xmm0, %xmm8
.LVL58:
.LBE953:
.LBE952:
	.loc 1 79 0
	vmovdqa	(%rsi), %xmm0
.LVL59:
.LBB954:
.LBB955:
	.loc 4 62 0
	vaesenc	%xmm9, %xmm8, %xmm9
.LVL60:
.LBE955:
.LBE954:
.LBB956:
.LBB957:
	vaesenc	%xmm10, %xmm9, %xmm10
.LVL61:
.LBE957:
.LBE956:
.LBB958:
.LBB959:
	vaesenc	%xmm11, %xmm10, %xmm11
.LVL62:
.LBE959:
.LBE958:
.LBB960:
.LBB961:
	vaesenc	%xmm15, %xmm11, %xmm15
.LVL63:
.LBE961:
.LBE960:
	.loc 1 80 0
	je	.L48
.LVL64:
.LBB962:
.LBB963:
	.loc 3 1250 0
	vpxor	%xmm0, %xmm15, %xmm15
.LVL65:
.LBE963:
.LBE962:
.LBB967:
.LBB968:
	.loc 4 62 0
	vaesenc	%xmm4, %xmm15, %xmm4
.LVL66:
.LBE968:
.LBE967:
.LBB972:
.LBB973:
	.loc 3 1250 0
	vpxor	%xmm2, %xmm15, %xmm0
.LVL67:
.LBE973:
.LBE972:
.LBB977:
.LBB978:
	.loc 4 62 0
	vaesenc	%xmm5, %xmm4, %xmm5
.LVL68:
.LBE978:
.LBE977:
.LBB982:
.LBB983:
	vaesenc	%xmm6, %xmm5, %xmm6
.LVL69:
.LBE983:
.LBE982:
.LBB987:
.LBB988:
	vaesenc	%xmm7, %xmm6, %xmm7
.LVL70:
.LBE988:
.LBE987:
.LBB992:
.LBB993:
	.loc 3 1250 0
	vpxor	%xmm7, %xmm3, %xmm3
.LVL71:
.L30:
.LBE993:
.LBE992:
.LBB997:
.LBB998:
.LBB999:
.LBB1000:
	.loc 2 67 0
	vptest	%xmm1, %xmm12
.LBE1000:
.LBE999:
.LBE998:
.LBE997:
	.loc 1 94 0
	vmovdqa	%xmm0, (%r15)
.LVL72:
.LBB1010:
.LBB1009:
.LBB1001:
.LBB1002:
	.loc 3 1178 0
	vpsrlq	$1, %xmm1, %xmm2
.LVL73:
.LBE1002:
.LBE1001:
	.loc 1 208 0
	je	.L31
.LVL74:
.LBB1003:
.LBB1004:
	.loc 3 1250 0
	vpxor	.LC1(%rip), %xmm2, %xmm2
.LVL75:
.L31:
.LBE1004:
.LBE1003:
.LBB1005:
.LBB1006:
	.loc 2 67 0
	vptest	%xmm1, %xmm14
.LBE1006:
.LBE1005:
	.loc 1 213 0
	je	.L32
.LVL76:
.LBB1007:
.LBB1008:
	.loc 3 1250 0
	vpxor	.LC3(%rip), %xmm2, %xmm2
.LVL77:
.L32:
.LBE1008:
.LBE1007:
.LBE1009:
.LBE1010:
	.loc 1 70 0
	addl	$1, %ebx
.LVL78:
	addq	$16, %rsi
	addq	$16, %r15
	cmpl	%ebp, %ebx
	jne	.L49
	vmovdqa	144(%r8), %xmm7
	vmovdqa	(%r8), %xmm6
	vmovdqa	%xmm7, (%rsp)
	vmovdqa	16(%r8), %xmm0
.LVL79:
	vmovdqa	160(%r8), %xmm7
	vmovdqa	32(%r8), %xmm8
	vmovdqa	48(%r8), %xmm9
	vmovdqa	%xmm7, 16(%rsp)
	vmovdqa	64(%r8), %xmm10
	vmovdqa	80(%r8), %xmm11
	vmovdqa	96(%r8), %xmm15
	vmovdqa	112(%r8), %xmm4
	vmovdqa	128(%r8), %xmm5
.LVL80:
.L27:
	.loc 1 97 0
	testl	%r14d, %r14d
	jne	.L35
	.loc 1 97 0 is_stmt 0 discriminator 1
	testl	%edx, %edx
	jne	.L36
.L35:
.LVL81:
.LBB1011:
.LBB1012:
.LBB1013:
.LBB1014:
	.loc 2 67 0 is_stmt 1
	vptest	%xmm2, %xmm12
.LBE1014:
.LBE1013:
.LBB1015:
.LBB1016:
	.loc 3 1178 0
	vpsrlq	$1, %xmm2, %xmm1
.LVL82:
.LBE1016:
.LBE1015:
	.loc 1 208 0
	je	.L37
.LVL83:
.LBB1017:
.LBB1018:
	.loc 3 1250 0
	vpxor	.LC1(%rip), %xmm1, %xmm1
.LVL84:
.L37:
.LBE1018:
.LBE1017:
.LBB1019:
.LBB1020:
	.loc 2 67 0
	vptest	%xmm2, %xmm14
.LBE1020:
.LBE1019:
	.loc 1 213 0
	je	.L38
.LVL85:
.LBB1021:
.LBB1022:
	.loc 3 1250 0
	vpxor	.LC3(%rip), %xmm1, %xmm1
.LVL86:
.L38:
.LBE1022:
.LBE1021:
.LBE1012:
.LBE1011:
.LBB1023:
.LBB1024:
.LBB1025:
.LBB1026:
	.loc 2 67 0
	vptest	%xmm1, %xmm12
.LBE1026:
.LBE1025:
.LBB1027:
.LBB1028:
	.loc 3 1178 0
	vpsrlq	$1, %xmm1, %xmm7
.LVL87:
.LBE1028:
.LBE1027:
	.loc 1 208 0
	je	.L39
.LVL88:
.LBB1029:
.LBB1030:
	.loc 3 1250 0
	vpxor	.LC1(%rip), %xmm7, %xmm7
.LVL89:
.L39:
.LBE1030:
.LBE1029:
.LBB1031:
.LBB1032:
	.loc 2 67 0
	vptest	%xmm1, %xmm14
.LBE1032:
.LBE1031:
	.loc 1 213 0
	je	.L43
.LVL90:
.L46:
.LBE1024:
.LBE1023:
.LBB1033:
.LBB1034:
.LBB1035:
.LBB1036:
	.loc 3 1250 0
	vpxor	.LC3(%rip), %xmm7, %xmm7
.LVL91:
.L43:
.LBE1036:
.LBE1035:
.LBE1034:
.LBE1033:
.LBB1046:
.LBB1047:
	vpxor	%xmm2, %xmm7, %xmm7
.LVL92:
.LBE1047:
.LBE1046:
.LBB1048:
.LBB1049:
	.loc 5 136 0
	vpshufb	%xmm13, %xmm7, %xmm7
.LVL93:
.LBE1049:
.LBE1048:
.LBB1050:
.LBB1051:
	.loc 3 1250 0
	vpxor	%xmm7, %xmm3, %xmm3
.LVL94:
.LBE1051:
.LBE1050:
.LBB1052:
.LBB1053:
.LBB1054:
.LBB1055:
	vpxor	%xmm6, %xmm3, %xmm6
.LVL95:
.LBE1055:
.LBE1054:
.LBB1056:
.LBB1057:
	.loc 4 62 0
	vaesenc	%xmm0, %xmm6, %xmm0
.LVL96:
.LBE1057:
.LBE1056:
.LBB1058:
.LBB1059:
	vaesenc	%xmm8, %xmm0, %xmm8
.LVL97:
.LBE1059:
.LBE1058:
.LBB1060:
.LBB1061:
	vaesenc	%xmm9, %xmm8, %xmm9
.LVL98:
.LBE1061:
.LBE1060:
.LBB1062:
.LBB1063:
	vaesenc	%xmm10, %xmm9, %xmm10
.LVL99:
.LBE1063:
.LBE1062:
.LBB1064:
.LBB1065:
	vaesenc	%xmm11, %xmm10, %xmm11
.LVL100:
.LBE1065:
.LBE1064:
.LBB1066:
.LBB1067:
	vaesenc	%xmm15, %xmm11, %xmm15
.LVL101:
.LBE1067:
.LBE1066:
.LBB1068:
.LBB1069:
	vaesenc	%xmm4, %xmm15, %xmm4
.LVL102:
.LBE1069:
.LBE1068:
.LBB1070:
.LBB1071:
	vaesenc	%xmm5, %xmm4, %xmm5
.LVL103:
.LBE1071:
.LBE1070:
.LBB1072:
.LBB1073:
	vaesenc	(%rsp), %xmm5, %xmm13
.LVL104:
.LBE1073:
.LBE1072:
.LBB1074:
.LBB1075:
	.loc 4 70 0
	vaesenclast	16(%rsp), %xmm13, %xmm0
.LVL105:
.LBE1075:
.LBE1074:
.LBE1053:
.LBE1052:
	.loc 1 110 0
	addq	$216, %rsp
	.cfi_remember_state
	.cfi_def_cfa_offset 56
.LVL106:
	popq	%rbx
	.cfi_def_cfa_offset 48
	popq	%rbp
	.cfi_def_cfa_offset 40
.LVL107:
	popq	%r12
	.cfi_def_cfa_offset 32
	popq	%r13
	.cfi_def_cfa_offset 24
	popq	%r14
	.cfi_def_cfa_offset 16
	popq	%r15
	.cfi_def_cfa_offset 8
	ret
.LVL108:
	.p2align 4,,10
	.p2align 3
.L36:
	.cfi_restore_state
.LBB1076:
.LBB1045:
.LBB1037:
.LBB1038:
	.loc 2 67 0
	vptest	%xmm2, %xmm12
.LBE1038:
.LBE1037:
.LBB1039:
.LBB1040:
	.loc 3 1178 0
	vpsrlq	$1, %xmm2, %xmm7
.LVL109:
.LBE1040:
.LBE1039:
	.loc 1 208 0
	je	.L42
.LVL110:
.LBB1041:
.LBB1042:
	.loc 3 1250 0
	vpxor	.LC1(%rip), %xmm7, %xmm7
.LVL111:
.L42:
.LBE1042:
.LBE1041:
.LBB1043:
.LBB1044:
	.loc 2 67 0
	vptest	%xmm2, %xmm14
.LBE1044:
.LBE1043:
	.loc 1 213 0
	je	.L43
	jmp	.L46
.LVL112:
.L47:
	movl	%edx, %r14d
.LBE1045:
.LBE1076:
	.loc 1 70 0
	vmovdqa	%xmm6, (%rsp)
	.loc 1 68 0
	vpxor	%xmm3, %xmm3, %xmm3
	.loc 1 70 0
	vmovdqa	%xmm2, %xmm6
.LVL113:
	andl	$15, %r14d
	vmovdqa	%xmm7, 16(%rsp)
	.loc 1 69 0
	vmovdqa	%xmm1, %xmm2
.LVL114:
	vmovdqa	.LC35(%rip), %xmm13
	vmovdqa	.LC0(%rip), %xmm12
	vmovdqa	.LC2(%rip), %xmm14
	jmp	.L27
.LVL115:
.L48:
	.loc 1 80 0 discriminator 1
	testl	%r14d, %r14d
	je	.L29
	.loc 1 81 0
	movl	%r13d, %edi
	vmovdqa	%xmm1, 80(%rsp)
	vmovdqa	%xmm13, 192(%rsp)
	vmovdqa	%xmm14, 176(%rsp)
	vmovdqa	%xmm12, 160(%rsp)
	movq	%r8, 40(%rsp)
	movl	%edx, 36(%rsp)
	movq	%rsi, 16(%rsp)
	vmovdqa	%xmm7, 144(%rsp)
	vmovdqa	%xmm6, 128(%rsp)
	vmovdqa	%xmm5, 112(%rsp)
	vmovdqa	%xmm4, 96(%rsp)
	vmovdqa	%xmm3, 64(%rsp)
	vmovdqa	%xmm15, (%rsp)
	vmovdqa	%xmm2, 48(%rsp)
	call	padd
.LVL116:
.LBB1077:
.LBB964:
	.loc 3 1250 0
	vmovdqa	(%rsp), %xmm15
.LBE964:
.LBE1077:
	.loc 1 92 0
	movl	%r13d, %edi
.LBB1078:
.LBB974:
	.loc 3 1250 0
	vmovdqa	48(%rsp), %xmm2
.LBE974:
.LBE1078:
.LBB1079:
.LBB969:
	.loc 4 62 0
	vmovdqa	96(%rsp), %xmm4
.LBE969:
.LBE1079:
.LBB1080:
.LBB965:
	.loc 3 1250 0
	vpxor	%xmm0, %xmm15, %xmm15
.LVL117:
.LBE965:
.LBE1080:
.LBB1081:
.LBB979:
	.loc 4 62 0
	vmovdqa	112(%rsp), %xmm5
.LBE979:
.LBE1081:
.LBB1082:
.LBB975:
	.loc 3 1250 0
	vpxor	%xmm2, %xmm15, %xmm0
.LVL118:
.LBE975:
.LBE1082:
.LBB1083:
.LBB984:
	.loc 4 62 0
	vmovdqa	128(%rsp), %xmm6
.LBE984:
.LBE1083:
.LBB1084:
.LBB970:
	vaesenc	%xmm4, %xmm15, %xmm4
.LVL119:
.LBE970:
.LBE1084:
.LBB1085:
.LBB989:
	vmovdqa	144(%rsp), %xmm7
.LBE989:
.LBE1085:
.LBB1086:
.LBB980:
	vaesenc	%xmm5, %xmm4, %xmm5
.LVL120:
.LBE980:
.LBE1086:
.LBB1087:
.LBB994:
	.loc 3 1250 0
	vmovdqa	64(%rsp), %xmm3
.LBE994:
.LBE1087:
.LBB1088:
.LBB985:
	.loc 4 62 0
	vaesenc	%xmm6, %xmm5, %xmm6
.LVL121:
.LBE985:
.LBE1088:
.LBB1089:
.LBB990:
	vaesenc	%xmm7, %xmm6, %xmm7
.LVL122:
.LBE990:
.LBE1089:
.LBB1090:
.LBB995:
	.loc 3 1250 0
	vpxor	%xmm7, %xmm3, %xmm3
	vmovdqa	%xmm3, (%rsp)
.LVL123:
.LBE995:
.LBE1090:
	.loc 1 92 0
	call	padd
.LVL124:
	vmovdqa	(%rsp), %xmm3
	movq	16(%rsp), %rsi
	movl	36(%rsp), %edx
	movq	40(%rsp), %r8
	vmovdqa	80(%rsp), %xmm1
	vmovdqa	160(%rsp), %xmm12
	vmovdqa	176(%rsp), %xmm14
	vmovdqa	192(%rsp), %xmm13
	jmp	.L30
.LVL125:
.L29:
.LBB1091:
.LBB966:
	.loc 3 1250 0
	vpxor	%xmm0, %xmm15, %xmm0
.LVL126:
.LBE966:
.LBE1091:
.LBB1092:
.LBB971:
	.loc 4 62 0
	vaesenc	%xmm4, %xmm0, %xmm4
.LVL127:
.LBE971:
.LBE1092:
.LBB1093:
.LBB976:
	.loc 3 1250 0
	vpxor	%xmm2, %xmm0, %xmm0
.LVL128:
.LBE976:
.LBE1093:
.LBB1094:
.LBB981:
	.loc 4 62 0
	vaesenc	%xmm5, %xmm4, %xmm5
.LVL129:
.LBE981:
.LBE1094:
.LBB1095:
.LBB986:
	vaesenc	%xmm6, %xmm5, %xmm6
.LVL130:
.LBE986:
.LBE1095:
.LBB1096:
.LBB991:
	vaesenc	%xmm7, %xmm6, %xmm7
.LVL131:
.LBE991:
.LBE1096:
.LBB1097:
.LBB996:
	.loc 3 1250 0
	vpxor	%xmm7, %xmm3, %xmm3
.LVL132:
	jmp	.L30
.LBE996:
.LBE1097:
	.cfi_endproc
.LFE655:
	.size	EF128, .-EF128
	.p2align 4,,15
	.globl	DF128
	.type	DF128, @function
DF128:
.LFB656:
	.loc 1 112 0
	.cfi_startproc
.LVL133:
	pushq	%r15
	.cfi_def_cfa_offset 16
	.cfi_offset 15, -16
	.loc 1 116 0
	movl	%edx, %eax
	.loc 1 112 0
	pushq	%r14
	.cfi_def_cfa_offset 24
	.cfi_offset 14, -24
	pushq	%r13
	.cfi_def_cfa_offset 32
	.cfi_offset 13, -32
	pushq	%r12
	.cfi_def_cfa_offset 40
	.cfi_offset 12, -40
	pushq	%rbp
	.cfi_def_cfa_offset 48
	.cfi_offset 6, -48
	.loc 1 116 0
	leal	30(%rdx), %ebp
	.loc 1 112 0
	pushq	%rbx
	.cfi_def_cfa_offset 56
	.cfi_offset 3, -56
	subq	$184, %rsp
	.cfi_def_cfa_offset 240
	.loc 1 116 0
	addl	$15, %eax
	cmovns	%eax, %ebp
.LBB1330:
.LBB1331:
	.loc 3 1250 0
	vmovdqa	.LC34(%rip), %xmm0
.LBE1331:
.LBE1330:
.LBB1333:
.LBB1334:
	.loc 1 346 0
	vmovdqa	(%r9), %xmm1
.LBE1334:
.LBE1333:
	.loc 1 116 0
	sarl	$4, %ebp
.LVL134:
.LBB1361:
.LBB1357:
	.loc 1 347 0
	vmovdqa	16(%r9), %xmm14
.LBE1357:
.LBE1361:
.LBB1362:
.LBB1332:
	.loc 3 1250 0
	vpxor	(%rdi), %xmm0, %xmm0
.LVL135:
.LBE1332:
.LBE1362:
.LBB1363:
.LBB1358:
	.loc 1 348 0
	vmovdqa	32(%r9), %xmm13
.LBE1358:
.LBE1363:
	.loc 1 124 0
	testl	%ebp, %ebp
.LBB1364:
.LBB1359:
.LBB1335:
.LBB1336:
	.loc 3 1250 0
	vpxor	%xmm1, %xmm0, %xmm0
.LVL136:
.LBE1336:
.LBE1335:
	.loc 1 349 0
	vmovdqa	48(%r9), %xmm12
.LBB1337:
.LBB1338:
	.loc 4 62 0
	vaesenc	%xmm14, %xmm0, %xmm0
.LVL137:
.LBE1338:
.LBE1337:
	.loc 1 350 0
	vmovdqa	64(%r9), %xmm11
.LBB1339:
.LBB1340:
	.loc 4 62 0
	vaesenc	%xmm13, %xmm0, %xmm0
.LVL138:
.LBE1340:
.LBE1339:
	.loc 1 351 0
	vmovdqa	80(%r9), %xmm5
.LBB1341:
.LBB1342:
	.loc 4 62 0
	vaesenc	%xmm12, %xmm0, %xmm0
.LVL139:
.LBE1342:
.LBE1341:
	.loc 1 352 0
	vmovdqa	96(%r9), %xmm9
.LBB1343:
.LBB1344:
	.loc 4 62 0
	vaesenc	%xmm11, %xmm0, %xmm0
.LVL140:
.LBE1344:
.LBE1343:
	.loc 1 353 0
	vmovdqa	112(%r9), %xmm8
.LBB1345:
.LBB1346:
	.loc 4 62 0
	vaesenc	%xmm5, %xmm0, %xmm0
.LVL141:
.LBE1346:
.LBE1345:
	.loc 1 354 0
	vmovdqa	128(%r9), %xmm7
.LBB1347:
.LBB1348:
	.loc 4 62 0
	vaesenc	%xmm9, %xmm0, %xmm0
.LVL142:
.LBE1348:
.LBE1347:
	.loc 1 355 0
	vmovdqa	144(%r9), %xmm3
.LBB1349:
.LBB1350:
	.loc 4 62 0
	vaesenc	%xmm8, %xmm0, %xmm0
.LVL143:
.LBE1350:
.LBE1349:
	.loc 1 356 0
	vmovdqa	160(%r9), %xmm4
.LBB1351:
.LBB1352:
	.loc 4 62 0
	vaesenc	%xmm7, %xmm0, %xmm0
.LVL144:
.LBE1352:
.LBE1351:
.LBE1359:
.LBE1364:
.LBB1365:
.LBB1366:
	.loc 5 136 0
	vmovdqa	.LC35(%rip), %xmm2
.LBE1366:
.LBE1365:
.LBB1368:
.LBB1360:
.LBB1353:
.LBB1354:
	.loc 4 62 0
	vaesenc	%xmm3, %xmm0, %xmm0
.LVL145:
.LBE1354:
.LBE1353:
.LBB1355:
.LBB1356:
	.loc 4 70 0
	vaesenclast	%xmm4, %xmm0, %xmm0
.LVL146:
.LBE1356:
.LBE1355:
.LBE1360:
.LBE1368:
.LBB1369:
.LBB1367:
	.loc 5 136 0
	vpshufb	%xmm2, %xmm0, %xmm0
.LVL147:
.LBE1367:
.LBE1369:
	.loc 1 124 0
	jle	.L72
	.loc 1 137 0
	movl	%edx, %eax
	movl	%edx, %r14d
	vmovdqa	%xmm14, %xmm6
	sarl	$31, %eax
	vmovdqa	%xmm0, %xmm15
	andl	$15, %r14d
	shrl	$28, %eax
	movq	%r8, %r15
	.loc 1 121 0
	vpxor	%xmm1, %xmm1, %xmm1
.LVL148:
	.loc 1 137 0
	leal	(%rdx,%rax), %r13d
	.loc 1 124 0
	xorl	%ebx, %ebx
	vmovdqa	.LC0(%rip), %xmm4
.LVL149:
	leal	-1(%rbp), %r12d
	.loc 1 137 0
	andl	$15, %r13d
	vmovdqa	.LC2(%rip), %xmm3
.LVL150:
	subl	%eax, %r13d
.LBB1370:
.LBB1371:
.LBB1372:
.LBB1373:
	.loc 3 1250 0
	vmovdqa	.LC1(%rip), %xmm14
.LVL151:
.LBE1373:
.LBE1372:
.LBB1375:
.LBB1376:
	vmovdqa	.LC3(%rip), %xmm10
	jmp	.L59
.LVL152:
	.p2align 4,,10
	.p2align 3
.L74:
	vmovdqa	16(%r9), %xmm6
.LVL153:
.LBE1376:
.LBE1375:
.LBE1371:
.LBE1370:
	.loc 1 124 0
	vmovdqa	%xmm0, %xmm15
.LVL154:
	vmovdqa	32(%r9), %xmm13
	vmovdqa	48(%r9), %xmm12
	vmovdqa	64(%r9), %xmm11
	vmovdqa	80(%r9), %xmm5
.LVL155:
	vmovdqa	96(%r9), %xmm9
.LVL156:
.L59:
	.loc 1 136 0
	cmpl	%r12d, %ebx
.LBB1388:
.LBB1389:
	.loc 5 136 0
	vpshufb	%xmm2, %xmm15, %xmm0
.LVL157:
.LBE1389:
.LBE1388:
.LBB1390:
.LBB1391:
	.loc 4 62 0
	vaesenc	%xmm6, %xmm0, %xmm6
.LVL158:
.LBE1391:
.LBE1390:
.LBB1392:
.LBB1393:
	vaesenc	%xmm13, %xmm6, %xmm13
.LVL159:
.LBE1393:
.LBE1392:
.LBB1394:
.LBB1395:
	vaesenc	%xmm12, %xmm13, %xmm12
.LVL160:
.LBE1395:
.LBE1394:
.LBB1396:
.LBB1397:
	vaesenc	%xmm11, %xmm12, %xmm11
.LVL161:
.LBE1397:
.LBE1396:
.LBB1398:
.LBB1399:
	vaesenc	%xmm5, %xmm11, %xmm5
.LVL162:
.LBE1399:
.LBE1398:
.LBB1400:
.LBB1401:
	vaesenc	%xmm9, %xmm5, %xmm9
.LVL163:
.LBE1401:
.LBE1400:
.LBB1402:
.LBB1403:
	.loc 3 1250 0
	vpxor	%xmm0, %xmm9, %xmm5
.LVL164:
.LBE1403:
.LBE1402:
	.loc 1 135 0
	vmovdqa	(%rsi), %xmm0
.LVL165:
	.loc 1 136 0
	je	.L73
.L53:
.LVL166:
.LBB1404:
.LBB1405:
	.loc 3 1250 0
	vpxor	%xmm5, %xmm0, %xmm0
.LVL167:
.L55:
.LBE1405:
.LBE1404:
.LBB1408:
.LBB1409:
	.loc 3 696 0
	vmovdqa	%xmm0, (%r15)
.LVL168:
.LBE1409:
.LBE1408:
.LBB1410:
.LBB1386:
.LBB1378:
.LBB1379:
	.loc 2 67 0
	vptest	%xmm15, %xmm4
.LBE1379:
.LBE1378:
.LBE1386:
.LBE1410:
.LBB1411:
.LBB1412:
	.loc 3 1250 0
	vpxor	%xmm0, %xmm9, %xmm0
.LVL169:
.LBE1412:
.LBE1411:
	.loc 1 146 0
	vmovdqa	112(%r9), %xmm8
.LVL170:
	.loc 1 147 0
	vmovdqa	128(%r9), %xmm7
	.loc 1 148 0
	vmovdqa	144(%r9), %xmm5
.LBB1413:
.LBB1414:
	.loc 4 62 0
	vaesenc	%xmm8, %xmm0, %xmm0
.LVL171:
.LBE1414:
.LBE1413:
	.loc 1 149 0
	vmovdqa	160(%r9), %xmm6
.LBB1415:
.LBB1416:
	.loc 4 62 0
	vaesenc	%xmm7, %xmm0, %xmm0
.LVL172:
.LBE1416:
.LBE1415:
.LBB1417:
.LBB1418:
	vaesenc	%xmm5, %xmm0, %xmm0
.LVL173:
.LBE1418:
.LBE1417:
.LBB1419:
.LBB1420:
	vaesenc	%xmm6, %xmm0, %xmm0
.LVL174:
.LBE1420:
.LBE1419:
.LBB1421:
.LBB1422:
	.loc 3 1250 0
	vpxor	%xmm0, %xmm1, %xmm1
.LVL175:
.LBE1422:
.LBE1421:
.LBB1423:
.LBB1387:
.LBB1380:
.LBB1381:
	.loc 3 1178 0
	vpsrlq	$1, %xmm15, %xmm0
.LVL176:
.LBE1381:
.LBE1380:
	.loc 1 208 0
	je	.L56
.LVL177:
.LBB1382:
.LBB1374:
	.loc 3 1250 0
	vpxor	%xmm14, %xmm0, %xmm0
.LVL178:
.L56:
.LBE1374:
.LBE1382:
.LBB1383:
.LBB1384:
	.loc 2 67 0
	vptest	%xmm15, %xmm3
.LBE1384:
.LBE1383:
	.loc 1 213 0
	je	.L57
.LVL179:
.LBB1385:
.LBB1377:
	.loc 3 1250 0
	vpxor	%xmm10, %xmm0, %xmm0
.LVL180:
.L57:
.LBE1377:
.LBE1385:
.LBE1387:
.LBE1423:
	.loc 1 124 0
	addl	$1, %ebx
.LVL181:
	addq	$16, %rsi
.LVL182:
	addq	$16, %r15
.LVL183:
	cmpl	%ebp, %ebx
	jne	.L74
	vmovdqa	(%r9), %xmm15
.LVL184:
	.loc 1 149 0
	vmovdqa	%xmm6, 16(%rsp)
	vmovdqa	16(%r9), %xmm14
	.loc 1 148 0
	vmovdqa	%xmm5, (%rsp)
	vmovdqa	32(%r9), %xmm13
	vmovdqa	48(%r9), %xmm12
	vmovdqa	64(%r9), %xmm11
	vmovdqa	80(%r9), %xmm10
	vmovdqa	96(%r9), %xmm9
.LVL185:
.L52:
	.loc 1 154 0
	testl	%r14d, %r14d
	jne	.L60
	.loc 1 154 0 is_stmt 0 discriminator 1
	testl	%edx, %edx
	jne	.L61
.L60:
.LVL186:
.LBB1424:
.LBB1425:
.LBB1426:
.LBB1427:
	.loc 2 67 0 is_stmt 1
	vptest	%xmm0, %xmm4
.LBE1427:
.LBE1426:
.LBB1428:
.LBB1429:
	.loc 3 1178 0
	vpsrlq	$1, %xmm0, %xmm5
.LVL187:
.LBE1429:
.LBE1428:
	.loc 1 208 0
	je	.L62
.LVL188:
.LBB1430:
.LBB1431:
	.loc 3 1250 0
	vpxor	.LC1(%rip), %xmm5, %xmm5
.LVL189:
.L62:
.LBE1431:
.LBE1430:
.LBB1432:
.LBB1433:
	.loc 2 67 0
	vptest	%xmm0, %xmm3
.LBE1433:
.LBE1432:
	.loc 1 213 0
	je	.L63
.LVL190:
.LBB1434:
.LBB1435:
	.loc 3 1250 0
	vpxor	.LC3(%rip), %xmm5, %xmm5
.LVL191:
.L63:
.LBE1435:
.LBE1434:
.LBE1425:
.LBE1424:
.LBB1436:
.LBB1437:
.LBB1438:
.LBB1439:
	.loc 2 67 0
	vptest	%xmm5, %xmm4
.LBE1439:
.LBE1438:
.LBB1440:
.LBB1441:
	.loc 3 1178 0
	vpsrlq	$1, %xmm5, %xmm6
.LVL192:
.LBE1441:
.LBE1440:
	.loc 1 208 0
	je	.L64
.LVL193:
.LBB1442:
.LBB1443:
	.loc 3 1250 0
	vpxor	.LC1(%rip), %xmm6, %xmm6
.LVL194:
.L64:
.LBE1443:
.LBE1442:
.LBB1444:
.LBB1445:
	.loc 2 67 0
	vptest	%xmm5, %xmm3
.LBE1445:
.LBE1444:
	.loc 1 213 0
	je	.L68
.LVL195:
.L71:
.LBE1437:
.LBE1436:
.LBB1446:
.LBB1447:
.LBB1448:
.LBB1449:
	.loc 3 1250 0
	vpxor	.LC3(%rip), %xmm6, %xmm6
.LVL196:
.L68:
.LBE1449:
.LBE1448:
.LBE1447:
.LBE1446:
.LBB1459:
.LBB1460:
	vpxor	%xmm0, %xmm6, %xmm0
.LVL197:
.LBE1460:
.LBE1459:
.LBB1461:
.LBB1462:
	.loc 5 136 0
	vpshufb	%xmm2, %xmm0, %xmm0
.LVL198:
.LBE1462:
.LBE1461:
.LBB1463:
.LBB1464:
	.loc 3 1250 0
	vpxor	%xmm0, %xmm1, %xmm0
.LVL199:
.LBE1464:
.LBE1463:
.LBB1465:
.LBB1466:
.LBB1467:
.LBB1468:
	vpxor	%xmm15, %xmm0, %xmm0
.LVL200:
.LBE1468:
.LBE1467:
.LBB1469:
.LBB1470:
	.loc 4 62 0
	vaesenc	%xmm14, %xmm0, %xmm0
.LVL201:
.LBE1470:
.LBE1469:
.LBB1471:
.LBB1472:
	vaesenc	%xmm13, %xmm0, %xmm0
.LVL202:
.LBE1472:
.LBE1471:
.LBB1473:
.LBB1474:
	vaesenc	%xmm12, %xmm0, %xmm0
.LVL203:
.LBE1474:
.LBE1473:
.LBB1475:
.LBB1476:
	vaesenc	%xmm11, %xmm0, %xmm0
.LVL204:
.LBE1476:
.LBE1475:
.LBB1477:
.LBB1478:
	vaesenc	%xmm10, %xmm0, %xmm0
.LVL205:
.LBE1478:
.LBE1477:
.LBB1479:
.LBB1480:
	vaesenc	%xmm9, %xmm0, %xmm0
.LVL206:
.LBE1480:
.LBE1479:
.LBB1481:
.LBB1482:
	vaesenc	%xmm8, %xmm0, %xmm0
.LVL207:
.LBE1482:
.LBE1481:
.LBB1483:
.LBB1484:
	vaesenc	%xmm7, %xmm0, %xmm0
.LVL208:
.LBE1484:
.LBE1483:
.LBB1485:
.LBB1486:
	vaesenc	(%rsp), %xmm0, %xmm0
.LVL209:
.LBE1486:
.LBE1485:
.LBB1487:
.LBB1488:
	.loc 4 70 0
	vaesenclast	16(%rsp), %xmm0, %xmm0
.LVL210:
.LBE1488:
.LBE1487:
.LBE1466:
.LBE1465:
	.loc 1 167 0
	addq	$184, %rsp
	.cfi_remember_state
	.cfi_def_cfa_offset 56
.LVL211:
	popq	%rbx
	.cfi_def_cfa_offset 48
	popq	%rbp
	.cfi_def_cfa_offset 40
.LVL212:
	popq	%r12
	.cfi_def_cfa_offset 32
	popq	%r13
	.cfi_def_cfa_offset 24
	popq	%r14
	.cfi_def_cfa_offset 16
	popq	%r15
	.cfi_def_cfa_offset 8
	ret
.LVL213:
	.p2align 4,,10
	.p2align 3
.L61:
	.cfi_restore_state
.LBB1489:
.LBB1458:
.LBB1450:
.LBB1451:
	.loc 2 67 0
	vptest	%xmm0, %xmm4
.LBE1451:
.LBE1450:
.LBB1452:
.LBB1453:
	.loc 3 1178 0
	vpsrlq	$1, %xmm0, %xmm6
.LVL214:
.LBE1453:
.LBE1452:
	.loc 1 208 0
	je	.L67
.LVL215:
.LBB1454:
.LBB1455:
	.loc 3 1250 0
	vpxor	.LC1(%rip), %xmm6, %xmm6
.LVL216:
.L67:
.LBE1455:
.LBE1454:
.LBB1456:
.LBB1457:
	.loc 2 67 0
	vptest	%xmm0, %xmm3
.LBE1457:
.LBE1456:
	.loc 1 213 0
	je	.L68
	jmp	.L71
.LVL217:
.L72:
	movl	%edx, %r14d
.LBE1458:
.LBE1489:
	.loc 1 124 0
	vmovdqa	%xmm4, 16(%rsp)
	vmovdqa	%xmm1, %xmm15
	vmovdqa	%xmm3, (%rsp)
	andl	$15, %r14d
	vmovdqa	%xmm5, %xmm10
	.loc 1 121 0
	vpxor	%xmm1, %xmm1, %xmm1
.LVL218:
	vmovdqa	.LC0(%rip), %xmm4
.LVL219:
	vmovdqa	.LC2(%rip), %xmm3
.LVL220:
	jmp	.L52
.LVL221:
.L73:
	.loc 1 136 0 discriminator 1
	testl	%r14d, %r14d
	je	.L53
	.loc 1 137 0
	movl	%r13d, %edi
	vmovdqa	%xmm15, 112(%rsp)
	vmovdqa	%xmm3, 160(%rsp)
	vmovdqa	%xmm4, 144(%rsp)
	vmovdqa	%xmm1, 128(%rsp)
	vmovdqa	%xmm10, 96(%rsp)
	vmovdqa	%xmm14, 80(%rsp)
	vmovdqa	%xmm2, 64(%rsp)
	movq	%r9, 40(%rsp)
	movl	%edx, 36(%rsp)
	movq	%rsi, 16(%rsp)
	vmovdqa	%xmm9, (%rsp)
	vmovdqa	%xmm5, 48(%rsp)
	call	padd
.LVL222:
.LBB1490:
.LBB1406:
	.loc 3 1250 0
	vmovdqa	48(%rsp), %xmm5
.LBE1406:
.LBE1490:
	.loc 1 141 0
	movl	%r13d, %edi
.LBB1491:
.LBB1407:
	.loc 3 1250 0
	vpxor	%xmm5, %xmm0, %xmm0
.LVL223:
.LBE1407:
.LBE1491:
	.loc 1 141 0
	call	padd
.LVL224:
	vmovdqa	(%rsp), %xmm9
	movq	16(%rsp), %rsi
	movl	36(%rsp), %edx
	movq	40(%rsp), %r9
	vmovdqa	64(%rsp), %xmm2
	vmovdqa	80(%rsp), %xmm14
	vmovdqa	96(%rsp), %xmm10
	vmovdqa	112(%rsp), %xmm15
	vmovdqa	128(%rsp), %xmm1
	vmovdqa	144(%rsp), %xmm4
	vmovdqa	160(%rsp), %xmm3
	jmp	.L55
	.cfi_endproc
.LFE656:
	.size	DF128, .-DF128
	.p2align 4,,15
	.globl	Ad128
	.type	Ad128, @function
Ad128:
.LFB657:
	.loc 1 168 0
	.cfi_startproc
.LVL225:
	pushq	%r15
	.cfi_def_cfa_offset 16
	.cfi_offset 15, -16
	.loc 1 172 0
	movl	%esi, %eax
	.loc 1 168 0
	pushq	%r14
	.cfi_def_cfa_offset 24
	.cfi_offset 14, -24
	pushq	%r13
	.cfi_def_cfa_offset 32
	.cfi_offset 13, -32
	pushq	%r12
	.cfi_def_cfa_offset 40
	.cfi_offset 12, -40
	.loc 1 172 0
	leal	30(%rsi), %r12d
	.loc 1 168 0
	pushq	%rbp
	.cfi_def_cfa_offset 48
	.cfi_offset 6, -48
	pushq	%rbx
	.cfi_def_cfa_offset 56
	.cfi_offset 3, -56
	subq	$312, %rsp
	.cfi_def_cfa_offset 368
	.loc 1 172 0
	addl	$15, %eax
.LBB1684:
.LBB1685:
	.loc 1 353 0
	vmovdqa	112(%rdx), %xmm7
	.loc 1 346 0
	vmovdqa	(%rdx), %xmm13
	.loc 1 347 0
	vmovdqa	16(%rdx), %xmm6
	.loc 1 353 0
	vmovdqa	%xmm7, (%rsp)
	.loc 1 348 0
	vmovdqa	32(%rdx), %xmm5
	.loc 1 349 0
	vmovdqa	48(%rdx), %xmm4
.LBB1686:
.LBB1687:
	.loc 4 62 0
	vaesenc	%xmm6, %xmm13, %xmm0
.LBE1687:
.LBE1686:
	.loc 1 350 0
	vmovdqa	64(%rdx), %xmm3
.LBB1688:
.LBB1689:
	.loc 4 62 0
	vaesenc	%xmm5, %xmm0, %xmm0
.LBE1689:
.LBE1688:
	.loc 1 351 0
	vmovdqa	80(%rdx), %xmm12
.LBB1690:
.LBB1691:
	.loc 4 62 0
	vaesenc	%xmm4, %xmm0, %xmm0
.LBE1691:
.LBE1690:
.LBE1685:
.LBE1684:
	.loc 1 172 0
	cmovns	%eax, %r12d
.LBB1710:
.LBB1706:
	.loc 1 352 0
	vmovdqa	96(%rdx), %xmm11
.LBB1692:
.LBB1693:
	.loc 4 62 0
	vaesenc	%xmm3, %xmm0, %xmm0
.LBE1693:
.LBE1692:
	.loc 1 354 0
	vmovdqa	128(%rdx), %xmm2
.LBB1694:
.LBB1695:
	.loc 4 62 0
	vaesenc	%xmm12, %xmm0, %xmm0
.LBE1695:
.LBE1694:
.LBB1696:
.LBB1697:
	vaesenc	%xmm11, %xmm0, %xmm0
.LBE1697:
.LBE1696:
.LBB1698:
.LBB1699:
	vaesenc	%xmm7, %xmm0, %xmm0
.LBE1699:
.LBE1698:
.LBE1706:
.LBE1710:
	.loc 1 172 0
	sarl	$4, %r12d
.LVL226:
.LBB1711:
.LBB1707:
	.loc 1 355 0
	vmovdqa	144(%rdx), %xmm7
.LVL227:
.LBB1700:
.LBB1701:
	.loc 4 62 0
	vaesenc	%xmm2, %xmm0, %xmm0
.LBE1701:
.LBE1700:
	.loc 1 354 0
	vmovdqa	%xmm2, 16(%rsp)
.LVL228:
	.loc 1 356 0
	vmovdqa	160(%rdx), %xmm2
.LVL229:
.LBE1707:
.LBE1711:
	.loc 1 176 0
	testl	%r12d, %r12d
.LBB1712:
.LBB1708:
.LBB1702:
.LBB1703:
	.loc 4 62 0
	vaesenc	%xmm7, %xmm0, %xmm0
.LBE1703:
.LBE1702:
	.loc 1 355 0
	vmovdqa	%xmm7, 32(%rsp)
.LVL230:
.LBE1708:
.LBE1712:
.LBB1713:
.LBB1714:
	.loc 5 136 0
	vmovdqa	.LC35(%rip), %xmm7
.LVL231:
.LBE1714:
.LBE1713:
.LBB1716:
.LBB1709:
.LBB1704:
.LBB1705:
	.loc 4 70 0
	vaesenclast	%xmm2, %xmm0, %xmm0
.LBE1705:
.LBE1704:
	.loc 1 356 0
	vmovdqa	%xmm2, 48(%rsp)
.LVL232:
.LBE1709:
.LBE1716:
.LBB1717:
.LBB1715:
	.loc 5 136 0
	vpshufb	%xmm7, %xmm0, %xmm0
.LVL233:
.LBE1715:
.LBE1717:
	.loc 1 176 0
	jle	.L103
	leal	-1(%r12), %r13d
	.loc 1 180 0
	movl	%esi, %eax
	sarl	$31, %eax
	shrl	$28, %eax
	leal	(%rsi,%rax), %r14d
	andl	$15, %r14d
	subl	%eax, %r14d
	andl	$15, %esi
.LVL234:
	movl	%esi, %r15d
	je	.L104
	vmovdqa	%xmm0, %xmm1
	movq	%rdi, %rbp
	.loc 1 176 0
	xorl	%ebx, %ebx
	.loc 1 173 0
	vpxor	%xmm2, %xmm2, %xmm2
.LVL235:
	vmovdqa	.LC0(%rip), %xmm9
	vmovdqa	.LC2(%rip), %xmm8
.LBB1718:
.LBB1719:
.LBB1720:
.LBB1721:
	.loc 3 1250 0
	vmovdqa	.LC1(%rip), %xmm14
.LBE1721:
.LBE1720:
.LBB1724:
.LBB1725:
	vmovdqa	.LC3(%rip), %xmm10
	jmp	.L88
.LVL236:
	.p2align 4,,10
	.p2align 3
.L106:
.LBE1725:
.LBE1724:
.LBE1719:
.LBE1718:
	.loc 1 176 0
	vmovdqa	%xmm0, %xmm1
.LVL237:
.L88:
	.loc 1 179 0
	cmpl	%r13d, %ebx
.LBB1748:
.LBB1749:
	.loc 5 136 0
	vpshufb	%xmm7, %xmm1, %xmm15
.LBE1749:
.LBE1748:
	.loc 1 178 0
	vmovdqa	0(%rbp), %xmm0
.LVL238:
	.loc 1 179 0
	je	.L105
.L85:
.LVL239:
.LBB1751:
.LBB1744:
.LBB1728:
.LBB1729:
	.loc 2 67 0
	vptest	%xmm1, %xmm9
.LBE1729:
.LBE1728:
.LBE1744:
.LBE1751:
.LBB1752:
.LBB1753:
	.loc 3 1250 0
	vpxor	%xmm15, %xmm0, %xmm0
.LVL240:
.LBE1753:
.LBE1752:
.LBB1755:
.LBB1756:
	.loc 4 62 0
	vaesenc	%xmm6, %xmm0, %xmm0
.LVL241:
.LBE1756:
.LBE1755:
.LBB1758:
.LBB1759:
	vaesenc	%xmm5, %xmm0, %xmm0
.LVL242:
.LBE1759:
.LBE1758:
.LBB1761:
.LBB1762:
	vaesenc	%xmm4, %xmm0, %xmm0
.LVL243:
.LBE1762:
.LBE1761:
.LBB1764:
.LBB1765:
	vaesenc	%xmm3, %xmm0, %xmm0
.LVL244:
.LBE1765:
.LBE1764:
.LBB1767:
.LBB1768:
	.loc 3 1250 0
	vpxor	%xmm0, %xmm2, %xmm2
.LVL245:
.LBE1768:
.LBE1767:
.LBB1770:
.LBB1745:
.LBB1731:
.LBB1732:
	.loc 3 1178 0
	vpsrlq	$1, %xmm1, %xmm0
.LVL246:
.LBE1732:
.LBE1731:
	.loc 1 208 0
	je	.L86
.LVL247:
.LBB1734:
.LBB1722:
	.loc 3 1250 0
	vpxor	%xmm14, %xmm0, %xmm0
.LVL248:
.L86:
.LBE1722:
.LBE1734:
.LBB1735:
.LBB1736:
	.loc 2 67 0
	vptest	%xmm1, %xmm8
.LBE1736:
.LBE1735:
	.loc 1 213 0
	je	.L87
.LVL249:
.LBB1738:
.LBB1726:
	.loc 3 1250 0
	vpxor	%xmm10, %xmm0, %xmm0
.LVL250:
.L87:
.LBE1726:
.LBE1738:
.LBE1745:
.LBE1770:
	.loc 1 176 0
	addl	$1, %ebx
.LVL251:
	addq	$16, %rbp
.LVL252:
	cmpl	%r12d, %ebx
	jne	.L106
.LVL253:
.L77:
	.loc 1 191 0
	testl	%r15d, %r15d
	je	.L89
.LVL254:
.LBB1771:
.LBB1772:
.LBB1773:
.LBB1774:
	.loc 2 67 0
	vptest	%xmm0, %xmm9
.LBE1774:
.LBE1773:
.LBB1775:
.LBB1776:
	.loc 3 1178 0
	vpsrlq	$1, %xmm0, %xmm1
.LVL255:
.LBE1776:
.LBE1775:
	.loc 1 208 0
	je	.L90
.LVL256:
.LBB1777:
.LBB1778:
	.loc 3 1250 0
	vpxor	.LC1(%rip), %xmm1, %xmm1
.LVL257:
.L90:
.LBE1778:
.LBE1777:
.LBB1779:
.LBB1780:
	.loc 2 67 0
	vptest	%xmm0, %xmm8
.LBE1780:
.LBE1779:
	.loc 1 213 0
	je	.L91
.LVL258:
.LBB1781:
.LBB1782:
	.loc 3 1250 0
	vpxor	.LC3(%rip), %xmm1, %xmm1
.LVL259:
.L91:
.LBE1782:
.LBE1781:
.LBE1772:
.LBE1771:
.LBB1783:
.LBB1784:
.LBB1785:
.LBB1786:
	.loc 2 67 0
	vptest	%xmm1, %xmm9
.LBE1786:
.LBE1785:
.LBB1787:
.LBB1788:
	.loc 3 1178 0
	vpsrlq	$1, %xmm1, %xmm10
.LVL260:
.LBE1788:
.LBE1787:
	.loc 1 208 0
	je	.L92
.LVL261:
.LBB1789:
.LBB1790:
	.loc 3 1250 0
	vpxor	.LC1(%rip), %xmm10, %xmm10
.LVL262:
.L92:
.LBE1790:
.LBE1789:
.LBB1791:
.LBB1792:
	.loc 2 67 0
	vptest	%xmm1, %xmm8
.LBE1792:
.LBE1791:
	.loc 1 213 0
	je	.L96
.LVL263:
.L102:
.LBE1784:
.LBE1783:
.LBB1793:
.LBB1794:
.LBB1795:
.LBB1796:
	.loc 3 1250 0
	vpxor	.LC3(%rip), %xmm10, %xmm10
.LVL264:
.L96:
.LBE1796:
.LBE1795:
.LBE1794:
.LBE1793:
.LBB1806:
.LBB1807:
	vpxor	%xmm0, %xmm10, %xmm0
.LVL265:
.LBE1807:
.LBE1806:
.LBB1808:
.LBB1809:
	.loc 5 136 0
	vpshufb	%xmm7, %xmm0, %xmm0
.LVL266:
.LBE1809:
.LBE1808:
.LBB1810:
.LBB1811:
	.loc 3 1250 0
	vpxor	%xmm0, %xmm2, %xmm0
.LVL267:
.LBE1811:
.LBE1810:
.LBB1812:
.LBB1813:
.LBB1814:
.LBB1815:
	vpxor	%xmm13, %xmm0, %xmm0
.LVL268:
.LBE1815:
.LBE1814:
.LBB1816:
.LBB1817:
	.loc 4 62 0
	vaesenc	%xmm6, %xmm0, %xmm0
.LVL269:
.LBE1817:
.LBE1816:
.LBB1818:
.LBB1819:
	vaesenc	%xmm5, %xmm0, %xmm0
.LVL270:
.LBE1819:
.LBE1818:
.LBB1820:
.LBB1821:
	vaesenc	%xmm4, %xmm0, %xmm0
.LVL271:
.LBE1821:
.LBE1820:
.LBB1822:
.LBB1823:
	vaesenc	%xmm3, %xmm0, %xmm0
.LVL272:
.LBE1823:
.LBE1822:
.LBB1824:
.LBB1825:
	vaesenc	%xmm12, %xmm0, %xmm0
.LVL273:
.LBE1825:
.LBE1824:
.LBB1826:
.LBB1827:
	vaesenc	%xmm11, %xmm0, %xmm0
.LVL274:
.LBE1827:
.LBE1826:
.LBB1828:
.LBB1829:
	vaesenc	(%rsp), %xmm0, %xmm0
.LVL275:
.LBE1829:
.LBE1828:
.LBB1830:
.LBB1831:
	vaesenc	16(%rsp), %xmm0, %xmm0
.LVL276:
.LBE1831:
.LBE1830:
.LBB1832:
.LBB1833:
	vaesenc	32(%rsp), %xmm0, %xmm0
.LVL277:
.LBE1833:
.LBE1832:
.LBB1834:
.LBB1835:
	.loc 4 70 0
	vaesenclast	48(%rsp), %xmm0, %xmm0
.LVL278:
.LBE1835:
.LBE1834:
.LBE1813:
.LBE1812:
	.loc 1 202 0
	addq	$312, %rsp
	.cfi_remember_state
	.cfi_def_cfa_offset 56
.LVL279:
	popq	%rbx
	.cfi_def_cfa_offset 48
	popq	%rbp
	.cfi_def_cfa_offset 40
	popq	%r12
	.cfi_def_cfa_offset 32
.LVL280:
	popq	%r13
	.cfi_def_cfa_offset 24
	popq	%r14
	.cfi_def_cfa_offset 16
	popq	%r15
	.cfi_def_cfa_offset 8
	ret
.LVL281:
	.p2align 4,,10
	.p2align 3
.L104:
	.cfi_restore_state
	salq	$4, %r13
	vmovdqa	.LC0(%rip), %xmm9
	.loc 1 173 0
	vpxor	%xmm2, %xmm2, %xmm2
.LVL282:
	vmovdqa	.LC1(%rip), %xmm15
	leaq	16(%rdi,%r13), %rax
	vmovdqa	.LC2(%rip), %xmm8
	vmovdqa	.LC3(%rip), %xmm14
.LVL283:
	.p2align 4,,10
	.p2align 3
.L84:
.LBB1836:
.LBB1746:
.LBB1739:
.LBB1730:
	.loc 2 67 0
	vptest	%xmm0, %xmm9
.LBE1730:
.LBE1739:
.LBE1746:
.LBE1836:
.LBB1837:
.LBB1750:
	.loc 5 136 0
	vpshufb	%xmm7, %xmm0, %xmm1
.LBE1750:
.LBE1837:
.LBB1838:
.LBB1754:
	.loc 3 1250 0
	vpxor	(%rdi), %xmm1, %xmm1
.LBE1754:
.LBE1838:
.LBB1839:
.LBB1757:
	.loc 4 62 0
	vaesenc	%xmm6, %xmm1, %xmm1
.LBE1757:
.LBE1839:
.LBB1840:
.LBB1760:
	vaesenc	%xmm5, %xmm1, %xmm1
.LBE1760:
.LBE1840:
.LBB1841:
.LBB1763:
	vaesenc	%xmm4, %xmm1, %xmm1
.LBE1763:
.LBE1841:
.LBB1842:
.LBB1766:
	vaesenc	%xmm3, %xmm1, %xmm1
.LBE1766:
.LBE1842:
.LBB1843:
.LBB1769:
	.loc 3 1250 0
	vpxor	%xmm1, %xmm2, %xmm2
.LBE1769:
.LBE1843:
.LBB1844:
.LBB1747:
.LBB1740:
.LBB1733:
	.loc 3 1178 0
	vpsrlq	$1, %xmm0, %xmm1
.LBE1733:
.LBE1740:
.LBB1741:
.LBB1723:
	.loc 3 1250 0
	vpxor	%xmm15, %xmm1, %xmm10
	je	.L80
	vmovdqa	%xmm10, %xmm1
.L80:
.LBE1723:
.LBE1741:
.LBB1742:
.LBB1737:
	.loc 2 67 0
	vptest	%xmm0, %xmm8
.LBE1737:
.LBE1742:
.LBB1743:
.LBB1727:
	.loc 3 1250 0
	vpxor	%xmm14, %xmm1, %xmm10
	vmovdqa	%xmm1, %xmm0
	je	.L82
	vmovdqa	%xmm10, %xmm0
.L82:
.LVL284:
	addq	$16, %rdi
.LBE1727:
.LBE1743:
.LBE1747:
.LBE1844:
	.loc 1 176 0
	cmpq	%rax, %rdi
	jne	.L84
.LVL285:
.L89:
.LBB1845:
.LBB1805:
.LBB1797:
.LBB1798:
	.loc 2 67 0
	vptest	%xmm0, %xmm9
.LBE1798:
.LBE1797:
.LBB1799:
.LBB1800:
	.loc 3 1178 0
	vpsrlq	$1, %xmm0, %xmm10
.LVL286:
.LBE1800:
.LBE1799:
	.loc 1 208 0
	je	.L95
.LVL287:
.LBB1801:
.LBB1802:
	.loc 3 1250 0
	vpxor	.LC1(%rip), %xmm10, %xmm10
.LVL288:
.L95:
.LBE1802:
.LBE1801:
.LBB1803:
.LBB1804:
	.loc 2 67 0
	vptest	%xmm0, %xmm8
.LBE1804:
.LBE1803:
	.loc 1 213 0
	je	.L96
	jmp	.L102
.LVL289:
	.p2align 4,,10
	.p2align 3
.L103:
	andl	$15, %esi
.LVL290:
.LBE1805:
.LBE1845:
	.loc 1 173 0
	vpxor	%xmm2, %xmm2, %xmm2
.LVL291:
	vmovdqa	.LC0(%rip), %xmm9
	movl	%esi, %r15d
	vmovdqa	.LC2(%rip), %xmm8
	jmp	.L77
.LVL292:
.L105:
	.loc 1 180 0
	movl	%r14d, %edi
	vmovdqa	%xmm10, 112(%rsp)
	vmovdqa	%xmm8, 288(%rsp)
	vmovdqa	%xmm9, 272(%rsp)
	vmovdqa	%xmm11, 256(%rsp)
	vmovdqa	%xmm12, 240(%rsp)
	vmovdqa	%xmm3, 224(%rsp)
	vmovdqa	%xmm4, 208(%rsp)
	vmovdqa	%xmm5, 192(%rsp)
	vmovdqa	%xmm6, 176(%rsp)
	vmovdqa	%xmm13, 160(%rsp)
	vmovdqa	%xmm2, 144(%rsp)
	vmovdqa	%xmm1, 128(%rsp)
	vmovdqa	%xmm14, 96(%rsp)
	vmovdqa	%xmm7, 80(%rsp)
	vmovdqa	%xmm15, 64(%rsp)
	call	padd
.LVL293:
	vmovdqa	112(%rsp), %xmm10
	vmovdqa	288(%rsp), %xmm8
	vmovdqa	272(%rsp), %xmm9
	vmovdqa	256(%rsp), %xmm11
	vmovdqa	240(%rsp), %xmm12
	vmovdqa	224(%rsp), %xmm3
	vmovdqa	208(%rsp), %xmm4
	vmovdqa	192(%rsp), %xmm5
	vmovdqa	176(%rsp), %xmm6
	vmovdqa	160(%rsp), %xmm13
	vmovdqa	144(%rsp), %xmm2
	vmovdqa	128(%rsp), %xmm1
	vmovdqa	96(%rsp), %xmm14
	vmovdqa	80(%rsp), %xmm7
	vmovdqa	64(%rsp), %xmm15
.LVL294:
	jmp	.L85
	.cfi_endproc
.LFE657:
	.size	Ad128, .-Ad128
	.p2align 4,,15
	.globl	YAES128_ENC
	.type	YAES128_ENC, @function
YAES128_ENC:
.LFB653:
	.loc 1 17 0
	.cfi_startproc
.LVL295:
	pushq	%r15
	.cfi_def_cfa_offset 16
	.cfi_offset 15, -16
	pushq	%r14
	.cfi_def_cfa_offset 24
	.cfi_offset 14, -24
	pushq	%r13
	.cfi_def_cfa_offset 32
	.cfi_offset 13, -32
	pushq	%r12
	.cfi_def_cfa_offset 40
	.cfi_offset 12, -40
	pushq	%rbp
	.cfi_def_cfa_offset 48
	.cfi_offset 6, -48
	pushq	%rbx
	.cfi_def_cfa_offset 56
	.cfi_offset 3, -56
	subq	$376, %rsp
	.cfi_def_cfa_offset 432
	.loc 1 17 0
	vmovdqa	(%rdi), %xmm7
	movl	448(%rsp), %eax
.LBB2310:
.LBB2311:
.LBB2312:
.LBB2313:
.LBB2314:
.LBB2315:
	.loc 3 1154 0
	vpslldq	$4, %xmm7, %xmm0
.LBE2315:
.LBE2314:
.LBE2313:
.LBE2312:
.LBB2333:
.LBB2334:
	.loc 4 88 0
	vaeskeygenassist	$1, %xmm7, %xmm1
.LBE2334:
.LBE2333:
.LBB2335:
.LBB2330:
.LBB2316:
.LBB2317:
	.loc 3 1379 0
	vpshufd	$255, %xmm1, %xmm1
.LBE2317:
.LBE2316:
.LBB2318:
.LBB2319:
	.loc 3 1250 0
	vpxor	%xmm7, %xmm0, %xmm4
.LBE2319:
.LBE2318:
.LBB2320:
.LBB2321:
	.loc 3 1154 0
	vpslldq	$4, %xmm0, %xmm0
.LBE2321:
.LBE2320:
.LBE2330:
.LBE2335:
.LBE2311:
.LBE2310:
	.loc 1 17 0
	movl	440(%rsp), %r13d
.LBB2549:
.LBB2546:
.LBB2336:
.LBB2331:
.LBB2322:
.LBB2323:
	.loc 3 1250 0
	vpxor	%xmm0, %xmm4, %xmm4
.LBE2323:
.LBE2322:
.LBB2324:
.LBB2325:
	.loc 3 1154 0
	vpslldq	$4, %xmm0, %xmm0
.LBE2325:
.LBE2324:
.LBE2331:
.LBE2336:
.LBE2546:
.LBE2549:
	.loc 1 17 0
	vmovdqa	%xmm7, 32(%rsp)
.LVL296:
.LBB2550:
.LBB2547:
.LBB2337:
.LBB2332:
.LBB2326:
.LBB2327:
	.loc 3 1250 0
	vpxor	%xmm0, %xmm4, %xmm4
.LVL297:
.LBE2327:
.LBE2326:
.LBB2328:
.LBB2329:
	vpxor	%xmm1, %xmm4, %xmm4
.LVL298:
.LBE2329:
.LBE2328:
.LBE2332:
.LBE2337:
.LBB2338:
.LBB2339:
.LBB2340:
.LBB2341:
	.loc 3 1154 0
	vpslldq	$4, %xmm4, %xmm0
.LVL299:
.LBE2341:
.LBE2340:
.LBB2342:
.LBB2343:
	.loc 3 1250 0
	vpxor	%xmm0, %xmm4, %xmm3
.LBE2343:
.LBE2342:
.LBB2344:
.LBB2345:
	.loc 3 1154 0
	vpslldq	$4, %xmm0, %xmm0
.LBE2345:
.LBE2344:
.LBE2339:
.LBE2338:
.LBB2357:
.LBB2358:
	.loc 4 88 0
	vaeskeygenassist	$2, %xmm4, %xmm1
.LVL300:
.LBE2358:
.LBE2357:
.LBB2359:
.LBB2356:
.LBB2346:
.LBB2347:
	.loc 3 1250 0
	vpxor	%xmm0, %xmm3, %xmm3
.LBE2347:
.LBE2346:
.LBB2348:
.LBB2349:
	.loc 3 1154 0
	vpslldq	$4, %xmm0, %xmm0
.LBE2349:
.LBE2348:
.LBB2350:
.LBB2351:
	.loc 3 1379 0
	vpshufd	$255, %xmm1, %xmm1
.LVL301:
.LBE2351:
.LBE2350:
.LBB2352:
.LBB2353:
	.loc 3 1250 0
	vpxor	%xmm0, %xmm3, %xmm3
.LVL302:
.LBE2353:
.LBE2352:
.LBB2354:
.LBB2355:
	vpxor	%xmm1, %xmm3, %xmm3
.LVL303:
.LBE2355:
.LBE2354:
.LBE2356:
.LBE2359:
.LBB2360:
.LBB2361:
.LBB2362:
.LBB2363:
	.loc 3 1154 0
	vpslldq	$4, %xmm3, %xmm0
.LVL304:
.LBE2363:
.LBE2362:
.LBB2364:
.LBB2365:
	.loc 3 1250 0
	vpxor	%xmm0, %xmm3, %xmm2
.LBE2365:
.LBE2364:
.LBB2366:
.LBB2367:
	.loc 3 1154 0
	vpslldq	$4, %xmm0, %xmm0
.LBE2367:
.LBE2366:
.LBE2361:
.LBE2360:
.LBB2379:
.LBB2380:
	.loc 4 88 0
	vaeskeygenassist	$4, %xmm3, %xmm1
.LVL305:
.LBE2380:
.LBE2379:
.LBB2381:
.LBB2378:
.LBB2368:
.LBB2369:
	.loc 3 1250 0
	vpxor	%xmm0, %xmm2, %xmm2
.LBE2369:
.LBE2368:
.LBB2370:
.LBB2371:
	.loc 3 1154 0
	vpslldq	$4, %xmm0, %xmm0
.LBE2371:
.LBE2370:
.LBB2372:
.LBB2373:
	.loc 3 1379 0
	vpshufd	$255, %xmm1, %xmm1
.LVL306:
.LBE2373:
.LBE2372:
.LBB2374:
.LBB2375:
	.loc 3 1250 0
	vpxor	%xmm0, %xmm2, %xmm2
.LVL307:
.LBE2375:
.LBE2374:
.LBB2376:
.LBB2377:
	vpxor	%xmm1, %xmm2, %xmm2
.LVL308:
.LBE2377:
.LBE2376:
.LBE2378:
.LBE2381:
.LBB2382:
.LBB2383:
.LBB2384:
.LBB2385:
	.loc 3 1154 0
	vpslldq	$4, %xmm2, %xmm0
.LVL309:
.LBE2385:
.LBE2384:
.LBB2386:
.LBB2387:
	.loc 3 1250 0
	vpxor	%xmm0, %xmm2, %xmm1
.LVL310:
.LBE2387:
.LBE2386:
.LBB2388:
.LBB2389:
	.loc 3 1154 0
	vpslldq	$4, %xmm0, %xmm0
.LBE2389:
.LBE2388:
.LBE2383:
.LBE2382:
.LBB2401:
.LBB2402:
	.loc 4 88 0
	vaeskeygenassist	$8, %xmm2, %xmm5
.LVL311:
.LBE2402:
.LBE2401:
.LBB2403:
.LBB2400:
.LBB2390:
.LBB2391:
	.loc 3 1250 0
	vpxor	%xmm0, %xmm1, %xmm1
.LBE2391:
.LBE2390:
.LBB2392:
.LBB2393:
	.loc 3 1154 0
	vpslldq	$4, %xmm0, %xmm0
.LBE2393:
.LBE2392:
.LBB2394:
.LBB2395:
	.loc 3 1379 0
	vpshufd	$255, %xmm5, %xmm5
.LVL312:
.LBE2395:
.LBE2394:
.LBB2396:
.LBB2397:
	.loc 3 1250 0
	vpxor	%xmm0, %xmm1, %xmm1
.LVL313:
.LBE2397:
.LBE2396:
.LBB2398:
.LBB2399:
	vpxor	%xmm5, %xmm1, %xmm1
.LVL314:
.LBE2399:
.LBE2398:
.LBE2400:
.LBE2403:
.LBB2404:
.LBB2405:
.LBB2406:
.LBB2407:
	.loc 3 1154 0
	vpslldq	$4, %xmm1, %xmm0
.LVL315:
.LBE2407:
.LBE2406:
.LBB2408:
.LBB2409:
	.loc 3 1250 0
	vpxor	%xmm0, %xmm1, %xmm11
.LBE2409:
.LBE2408:
.LBB2410:
.LBB2411:
	.loc 3 1154 0
	vpslldq	$4, %xmm0, %xmm0
.LBE2411:
.LBE2410:
.LBE2405:
.LBE2404:
.LBB2423:
.LBB2424:
	.loc 4 88 0
	vaeskeygenassist	$16, %xmm1, %xmm5
.LVL316:
.LBE2424:
.LBE2423:
.LBB2425:
.LBB2422:
.LBB2412:
.LBB2413:
	.loc 3 1250 0
	vpxor	%xmm0, %xmm11, %xmm11
.LBE2413:
.LBE2412:
.LBB2414:
.LBB2415:
	.loc 3 1154 0
	vpslldq	$4, %xmm0, %xmm0
.LBE2415:
.LBE2414:
.LBB2416:
.LBB2417:
	.loc 3 1379 0
	vpshufd	$255, %xmm5, %xmm5
.LVL317:
.LBE2417:
.LBE2416:
.LBB2418:
.LBB2419:
	.loc 3 1250 0
	vpxor	%xmm0, %xmm11, %xmm11
.LVL318:
.LBE2419:
.LBE2418:
.LBB2420:
.LBB2421:
	vpxor	%xmm5, %xmm11, %xmm11
.LVL319:
.LBE2421:
.LBE2420:
.LBE2422:
.LBE2425:
.LBB2426:
.LBB2427:
.LBB2428:
.LBB2429:
	.loc 3 1154 0
	vpslldq	$4, %xmm11, %xmm0
.LVL320:
.LBE2429:
.LBE2428:
.LBB2430:
.LBB2431:
	.loc 3 1250 0
	vpxor	%xmm0, %xmm11, %xmm10
.LBE2431:
.LBE2430:
.LBB2432:
.LBB2433:
	.loc 3 1154 0
	vpslldq	$4, %xmm0, %xmm0
.LBE2433:
.LBE2432:
.LBE2427:
.LBE2426:
.LBB2445:
.LBB2446:
	.loc 4 88 0
	vaeskeygenassist	$32, %xmm11, %xmm5
.LVL321:
.LBE2446:
.LBE2445:
.LBB2447:
.LBB2444:
.LBB2434:
.LBB2435:
	.loc 3 1250 0
	vpxor	%xmm0, %xmm10, %xmm10
.LBE2435:
.LBE2434:
.LBB2436:
.LBB2437:
	.loc 3 1154 0
	vpslldq	$4, %xmm0, %xmm0
.LBE2437:
.LBE2436:
.LBB2438:
.LBB2439:
	.loc 3 1379 0
	vpshufd	$255, %xmm5, %xmm5
.LVL322:
.LBE2439:
.LBE2438:
.LBB2440:
.LBB2441:
	.loc 3 1250 0
	vpxor	%xmm0, %xmm10, %xmm10
.LVL323:
.LBE2441:
.LBE2440:
.LBB2442:
.LBB2443:
	vpxor	%xmm5, %xmm10, %xmm10
.LVL324:
.LBE2443:
.LBE2442:
.LBE2444:
.LBE2447:
.LBB2448:
.LBB2449:
.LBB2450:
.LBB2451:
	.loc 3 1154 0
	vpslldq	$4, %xmm10, %xmm0
.LVL325:
.LBE2451:
.LBE2450:
.LBB2452:
.LBB2453:
	.loc 3 1250 0
	vpxor	%xmm0, %xmm10, %xmm9
.LBE2453:
.LBE2452:
.LBB2454:
.LBB2455:
	.loc 3 1154 0
	vpslldq	$4, %xmm0, %xmm0
.LBE2455:
.LBE2454:
.LBE2449:
.LBE2448:
.LBB2467:
.LBB2468:
	.loc 4 88 0
	vaeskeygenassist	$64, %xmm10, %xmm5
.LVL326:
.LBE2468:
.LBE2467:
.LBB2469:
.LBB2466:
.LBB2456:
.LBB2457:
	.loc 3 1250 0
	vpxor	%xmm0, %xmm9, %xmm9
.LBE2457:
.LBE2456:
.LBB2458:
.LBB2459:
	.loc 3 1154 0
	vpslldq	$4, %xmm0, %xmm0
.LBE2459:
.LBE2458:
.LBB2460:
.LBB2461:
	.loc 3 1379 0
	vpshufd	$255, %xmm5, %xmm5
.LVL327:
.LBE2461:
.LBE2460:
.LBB2462:
.LBB2463:
	.loc 3 1250 0
	vpxor	%xmm0, %xmm9, %xmm9
.LVL328:
.LBE2463:
.LBE2462:
.LBB2464:
.LBB2465:
	vpxor	%xmm5, %xmm9, %xmm9
.LVL329:
.LBE2465:
.LBE2464:
.LBE2466:
.LBE2469:
.LBB2470:
.LBB2471:
.LBB2472:
.LBB2473:
	.loc 3 1154 0
	vpslldq	$4, %xmm9, %xmm0
.LVL330:
.LBE2473:
.LBE2472:
.LBB2474:
.LBB2475:
	.loc 3 1250 0
	vpxor	%xmm0, %xmm9, %xmm6
.LBE2475:
.LBE2474:
.LBB2476:
.LBB2477:
	.loc 3 1154 0
	vpslldq	$4, %xmm0, %xmm0
.LBE2477:
.LBE2476:
.LBE2471:
.LBE2470:
.LBB2495:
.LBB2496:
	.loc 4 88 0
	vaeskeygenassist	$128, %xmm9, %xmm5
.LVL331:
.LBE2496:
.LBE2495:
.LBB2497:
.LBB2492:
.LBB2478:
.LBB2479:
	.loc 3 1250 0
	vpxor	%xmm0, %xmm6, %xmm6
.LBE2479:
.LBE2478:
.LBB2480:
.LBB2481:
	.loc 3 1154 0
	vpslldq	$4, %xmm0, %xmm0
.LBE2481:
.LBE2480:
.LBB2482:
.LBB2483:
	.loc 3 1379 0
	vpshufd	$255, %xmm5, %xmm5
.LVL332:
.LBE2483:
.LBE2482:
.LBB2484:
.LBB2485:
	.loc 3 1250 0
	vpxor	%xmm0, %xmm6, %xmm0
.LVL333:
.LBE2485:
.LBE2484:
.LBB2486:
.LBB2487:
	vpxor	%xmm5, %xmm0, %xmm6
.LVL334:
.LBE2487:
.LBE2486:
.LBE2492:
.LBE2497:
.LBB2498:
.LBB2499:
.LBB2500:
.LBB2501:
	.loc 3 1154 0
	vpslldq	$4, %xmm6, %xmm0
.LVL335:
.LBE2501:
.LBE2500:
.LBE2499:
.LBE2498:
.LBB2518:
.LBB2493:
.LBB2490:
.LBB2488:
	.loc 3 1250 0
	vmovdqa	%xmm6, %xmm13
.LBE2488:
.LBE2490:
.LBE2493:
.LBE2518:
.LBB2519:
.LBB2520:
	.loc 4 88 0
	vaeskeygenassist	$27, %xmm6, %xmm5
.LVL336:
.LBE2520:
.LBE2519:
.LBB2521:
.LBB2494:
.LBB2491:
.LBB2489:
	.loc 3 1250 0
	vmovdqa	%xmm6, (%rsp)
.LVL337:
.LBE2489:
.LBE2491:
.LBE2494:
.LBE2521:
.LBB2522:
.LBB2516:
.LBB2502:
.LBB2503:
	vpxor	%xmm13, %xmm0, %xmm6
.LVL338:
.LBE2503:
.LBE2502:
.LBB2504:
.LBB2505:
	.loc 3 1154 0
	vpslldq	$4, %xmm0, %xmm0
.LBE2505:
.LBE2504:
.LBB2506:
.LBB2507:
	.loc 3 1379 0
	vpshufd	$255, %xmm5, %xmm5
.LVL339:
.LBE2507:
.LBE2506:
.LBB2508:
.LBB2509:
	.loc 3 1250 0
	vpxor	%xmm0, %xmm6, %xmm6
.LVL340:
.LBE2509:
.LBE2508:
.LBB2510:
.LBB2511:
	.loc 3 1154 0
	vpslldq	$4, %xmm0, %xmm0
.LVL341:
.LBE2511:
.LBE2510:
.LBE2516:
.LBE2522:
.LBE2547:
.LBE2550:
	.loc 1 24 0
	testl	%eax, %eax
.LBB2551:
.LBB2548:
.LBB2523:
.LBB2517:
.LBB2512:
.LBB2513:
	.loc 3 1250 0
	vpxor	%xmm0, %xmm6, %xmm0
.LVL342:
.LBE2513:
.LBE2512:
.LBB2514:
.LBB2515:
	vpxor	%xmm5, %xmm0, %xmm15
.LVL343:
.LBE2515:
.LBE2514:
.LBE2517:
.LBE2523:
.LBB2524:
.LBB2525:
.LBB2526:
.LBB2527:
	.loc 3 1154 0
	vpslldq	$4, %xmm15, %xmm0
.LVL344:
.LBE2527:
.LBE2526:
.LBB2528:
.LBB2529:
	.loc 3 1250 0
	vpxor	%xmm0, %xmm15, %xmm6
.LVL345:
.LBE2529:
.LBE2528:
.LBB2530:
.LBB2531:
	.loc 3 1154 0
	vpslldq	$4, %xmm0, %xmm0
.LBE2531:
.LBE2530:
.LBE2525:
.LBE2524:
.LBB2543:
.LBB2544:
	.loc 4 88 0
	vaeskeygenassist	$54, %xmm15, %xmm5
.LVL346:
.LBE2544:
.LBE2543:
.LBB2545:
.LBB2542:
.LBB2532:
.LBB2533:
	.loc 3 1250 0
	vpxor	%xmm0, %xmm6, %xmm6
.LBE2533:
.LBE2532:
.LBB2534:
.LBB2535:
	.loc 3 1154 0
	vpslldq	$4, %xmm0, %xmm0
.LBE2535:
.LBE2534:
.LBB2536:
.LBB2537:
	.loc 3 1379 0
	vpshufd	$255, %xmm5, %xmm5
.LVL347:
.LBE2537:
.LBE2536:
.LBB2538:
.LBB2539:
	.loc 3 1250 0
	vpxor	%xmm0, %xmm6, %xmm0
.LVL348:
.LBE2539:
.LBE2538:
.LBB2540:
.LBB2541:
	vpxor	%xmm5, %xmm0, %xmm6
.LVL349:
	vmovdqa	%xmm6, 16(%rsp)
.LBE2541:
.LBE2540:
.LBE2542:
.LBE2545:
.LBE2548:
.LBE2551:
	.loc 1 24 0
	jle	.L147
.LVL350:
.LBB2552:
.LBB2553:
	.loc 1 172 0
	leal	15(%rax), %ebp
.LBB2554:
.LBB2555:
.LBB2556:
.LBB2557:
	.loc 4 62 0
	vaesenc	%xmm4, %xmm7, %xmm0
.LVL351:
.LBE2557:
.LBE2556:
.LBE2555:
.LBE2554:
.LBB2578:
.LBB2579:
	.loc 5 136 0
	vmovdqa	.LC35(%rip), %xmm7
.LVL352:
.LBE2579:
.LBE2578:
	.loc 1 172 0
	sarl	$4, %ebp
.LVL353:
.LBB2581:
.LBB2576:
.LBB2558:
.LBB2559:
	.loc 4 62 0
	vaesenc	%xmm3, %xmm0, %xmm0
.LVL354:
.LBE2559:
.LBE2558:
.LBB2560:
.LBB2561:
	vaesenc	%xmm2, %xmm0, %xmm0
.LVL355:
.LBE2561:
.LBE2560:
.LBE2576:
.LBE2581:
	.loc 1 176 0
	testl	%ebp, %ebp
.LBB2582:
.LBB2577:
.LBB2562:
.LBB2563:
	.loc 4 62 0
	vaesenc	%xmm1, %xmm0, %xmm0
.LVL356:
.LBE2563:
.LBE2562:
.LBB2564:
.LBB2565:
	vaesenc	%xmm11, %xmm0, %xmm0
.LVL357:
.LBE2565:
.LBE2564:
.LBB2566:
.LBB2567:
	vaesenc	%xmm10, %xmm0, %xmm0
.LVL358:
.LBE2567:
.LBE2566:
.LBB2568:
.LBB2569:
	vaesenc	%xmm9, %xmm0, %xmm0
.LVL359:
.LBE2569:
.LBE2568:
.LBB2570:
.LBB2571:
	vaesenc	%xmm13, %xmm0, %xmm0
.LVL360:
.LBE2571:
.LBE2570:
.LBB2572:
.LBB2573:
	vaesenc	%xmm15, %xmm0, %xmm0
.LVL361:
.LBE2573:
.LBE2572:
.LBB2574:
.LBB2575:
	.loc 4 70 0
	vaesenclast	%xmm6, %xmm0, %xmm0
.LVL362:
.LBE2575:
.LBE2574:
.LBE2577:
.LBE2582:
.LBB2583:
.LBB2580:
	.loc 5 136 0
	vpshufb	%xmm7, %xmm0, %xmm0
	vmovdqa	%xmm0, %xmm12
.LVL363:
.LBE2580:
.LBE2583:
	.loc 1 176 0
	jle	.L158
	leal	-1(%rbp), %r12d
	andl	$15, %eax
.LVL364:
	movl	%eax, %r15d
	je	.L159
	.loc 1 173 0
	vpxor	%xmm8, %xmm8, %xmm8
	.loc 1 176 0
	xorl	%ebx, %ebx
	vmovdqa	.LC0(%rip), %xmm6
.LVL365:
	vmovdqa	.LC2(%rip), %xmm5
.LVL366:
	.loc 1 180 0
	movl	%eax, %r14d
.LBB2584:
.LBB2585:
.LBB2586:
.LBB2587:
	.loc 3 1250 0
	vmovdqa	.LC3(%rip), %xmm14
	jmp	.L121
.LVL367:
	.p2align 4,,10
	.p2align 3
.L161:
.LBE2587:
.LBE2586:
.LBE2585:
.LBE2584:
	.loc 1 176 0
	vmovdqa	%xmm0, %xmm12
.LVL368:
.L121:
	.loc 1 179 0
	cmpl	%r12d, %ebx
.LBB2612:
.LBB2613:
	.loc 5 136 0
	vpshufb	%xmm7, %xmm12, %xmm13
.LBE2613:
.LBE2612:
.LBE2553:
.LBE2552:
	.loc 1 178 0
	vmovdqa	(%rdx), %xmm0
.LVL369:
.LBB2714:
.LBB2710:
	.loc 1 179 0
	je	.L160
.L118:
.LVL370:
.LBB2615:
.LBB2608:
.LBB2590:
.LBB2591:
	.loc 2 67 0
	vptest	%xmm12, %xmm6
.LBE2591:
.LBE2590:
.LBE2608:
.LBE2615:
.LBB2616:
.LBB2617:
	.loc 3 1250 0
	vpxor	%xmm13, %xmm0, %xmm0
.LVL371:
.LBE2617:
.LBE2616:
.LBB2619:
.LBB2620:
	.loc 4 62 0
	vaesenc	%xmm4, %xmm0, %xmm0
.LVL372:
.LBE2620:
.LBE2619:
.LBB2622:
.LBB2623:
	vaesenc	%xmm3, %xmm0, %xmm0
.LVL373:
.LBE2623:
.LBE2622:
.LBB2625:
.LBB2626:
	vaesenc	%xmm2, %xmm0, %xmm0
.LVL374:
.LBE2626:
.LBE2625:
.LBB2628:
.LBB2629:
	vaesenc	%xmm1, %xmm0, %xmm0
.LVL375:
.LBE2629:
.LBE2628:
.LBB2631:
.LBB2632:
	.loc 3 1250 0
	vpxor	%xmm0, %xmm8, %xmm8
.LVL376:
.LBE2632:
.LBE2631:
.LBB2634:
.LBB2609:
.LBB2593:
.LBB2594:
	.loc 3 1178 0
	vpsrlq	$1, %xmm12, %xmm0
.LVL377:
.LBE2594:
.LBE2593:
	.loc 1 208 0
	je	.L119
.LVL378:
.LBB2596:
.LBB2597:
	.loc 3 1250 0
	vpxor	.LC1(%rip), %xmm0, %xmm0
.LVL379:
.L119:
.LBE2597:
.LBE2596:
.LBB2599:
.LBB2600:
	.loc 2 67 0
	vptest	%xmm12, %xmm5
.LBE2600:
.LBE2599:
	.loc 1 213 0
	je	.L120
.LVL380:
.LBB2602:
.LBB2588:
	.loc 3 1250 0
	vpxor	%xmm14, %xmm0, %xmm0
.LVL381:
.L120:
.LBE2588:
.LBE2602:
.LBE2609:
.LBE2634:
	.loc 1 176 0
	addl	$1, %ebx
.LVL382:
	addq	$16, %rdx
.LVL383:
	cmpl	%ebp, %ebx
	jne	.L161
.LVL384:
.L110:
	.loc 1 191 0
	testl	%r15d, %r15d
	je	.L122
.LVL385:
.LBB2635:
.LBB2636:
.LBB2637:
.LBB2638:
	.loc 2 67 0
	vptest	%xmm0, %xmm6
.LBE2638:
.LBE2637:
.LBB2639:
.LBB2640:
	.loc 3 1178 0
	vpsrlq	$1, %xmm0, %xmm12
.LVL386:
.LBE2640:
.LBE2639:
	.loc 1 208 0
	je	.L123
.LVL387:
.LBB2641:
.LBB2642:
	.loc 3 1250 0
	vpxor	.LC1(%rip), %xmm12, %xmm12
.LVL388:
.L123:
.LBE2642:
.LBE2641:
.LBB2643:
.LBB2644:
	.loc 2 67 0
	vptest	%xmm0, %xmm5
.LBE2644:
.LBE2643:
	.loc 1 213 0
	je	.L124
.LVL389:
.LBB2645:
.LBB2646:
	.loc 3 1250 0
	vpxor	.LC3(%rip), %xmm12, %xmm12
.LVL390:
.L124:
.LBE2646:
.LBE2645:
.LBE2636:
.LBE2635:
.LBB2647:
.LBB2648:
.LBB2649:
.LBB2650:
	.loc 2 67 0
	vptest	%xmm12, %xmm6
.LBE2650:
.LBE2649:
.LBB2651:
.LBB2652:
	.loc 3 1178 0
	vpsrlq	$1, %xmm12, %xmm13
.LVL391:
.LBE2652:
.LBE2651:
	.loc 1 208 0
	je	.L125
.LVL392:
.LBB2653:
.LBB2654:
	.loc 3 1250 0
	vpxor	.LC1(%rip), %xmm13, %xmm13
.LVL393:
.L125:
.LBE2654:
.LBE2653:
.LBB2655:
.LBB2656:
	.loc 2 67 0
	vptest	%xmm12, %xmm5
.LBE2656:
.LBE2655:
	.loc 1 213 0
	je	.L129
.LVL394:
.L156:
.LBE2648:
.LBE2647:
.LBB2657:
.LBB2658:
.LBB2659:
.LBB2660:
	.loc 3 1250 0
	vpxor	.LC3(%rip), %xmm13, %xmm13
.LVL395:
.L129:
.LBE2660:
.LBE2659:
.LBE2658:
.LBE2657:
.LBB2670:
.LBB2671:
	vpxor	%xmm0, %xmm13, %xmm0
.LVL396:
.LBE2671:
.LBE2670:
.LBB2672:
.LBB2673:
	.loc 5 136 0
	vpshufb	%xmm7, %xmm0, %xmm0
.LVL397:
.LBE2673:
.LBE2672:
.LBB2674:
.LBB2675:
	.loc 3 1250 0
	vpxor	%xmm0, %xmm8, %xmm0
.LVL398:
.LBE2675:
.LBE2674:
.LBB2676:
.LBB2677:
.LBB2678:
.LBB2679:
	vpxor	32(%rsp), %xmm0, %xmm0
.LVL399:
.LBE2679:
.LBE2678:
.LBB2680:
.LBB2681:
	.loc 4 62 0
	vaesenc	%xmm4, %xmm0, %xmm0
.LVL400:
.LBE2681:
.LBE2680:
.LBB2682:
.LBB2683:
	vaesenc	%xmm3, %xmm0, %xmm0
.LVL401:
.LBE2683:
.LBE2682:
.LBB2684:
.LBB2685:
	vaesenc	%xmm2, %xmm0, %xmm0
.LVL402:
.LBE2685:
.LBE2684:
.LBB2686:
.LBB2687:
	vaesenc	%xmm1, %xmm0, %xmm0
.LVL403:
.LBE2687:
.LBE2686:
.LBB2688:
.LBB2689:
	vaesenc	%xmm11, %xmm0, %xmm0
.LVL404:
.LBE2689:
.LBE2688:
.LBB2690:
.LBB2691:
	vaesenc	%xmm10, %xmm0, %xmm0
.LVL405:
.LBE2691:
.LBE2690:
.LBB2692:
.LBB2693:
	vaesenc	%xmm9, %xmm0, %xmm0
.LVL406:
.LBE2693:
.LBE2692:
.LBB2694:
.LBB2695:
	vaesenc	(%rsp), %xmm0, %xmm0
.LVL407:
.LBE2695:
.LBE2694:
.LBB2696:
.LBB2697:
	vaesenc	%xmm15, %xmm0, %xmm0
.LVL408:
.LBE2697:
.LBE2696:
.LBB2698:
.LBB2699:
	.loc 4 70 0
	vaesenclast	16(%rsp), %xmm0, %xmm0
.LVL409:
	vmovdqa	%xmm0, 48(%rsp)
.LVL410:
.L108:
.LBE2699:
.LBE2698:
.LBE2677:
.LBE2676:
.LBE2710:
.LBE2714:
.LBB2715:
.LBB2716:
	.loc 1 63 0
	leal	30(%r13), %ebp
	movl	%r13d, %eax
.LBB2717:
.LBB2718:
	.loc 3 1250 0
	vmovdqa	32(%rsp), %xmm0
.LBE2718:
.LBE2717:
	.loc 1 63 0
	addl	$15, %eax
	cmovns	%eax, %ebp
.LBB2720:
.LBB2719:
	.loc 3 1250 0
	vpxor	(%rsi), %xmm0, %xmm8
.LBE2719:
.LBE2720:
.LBB2721:
.LBB2722:
.LBB2723:
.LBB2724:
	vpxor	.LC34(%rip), %xmm8, %xmm8
.LBE2724:
.LBE2723:
.LBB2725:
.LBB2726:
	.loc 4 62 0
	vaesenc	%xmm4, %xmm8, %xmm8
.LBE2726:
.LBE2725:
.LBB2727:
.LBB2728:
	vaesenc	%xmm3, %xmm8, %xmm8
.LBE2728:
.LBE2727:
.LBB2729:
.LBB2730:
	vaesenc	%xmm2, %xmm8, %xmm8
.LBE2730:
.LBE2729:
.LBE2722:
.LBE2721:
	.loc 1 63 0
	sarl	$4, %ebp
.LVL411:
.LBB2747:
.LBB2745:
.LBB2731:
.LBB2732:
	.loc 4 62 0
	vaesenc	%xmm1, %xmm8, %xmm8
.LVL412:
.LBE2732:
.LBE2731:
.LBB2733:
.LBB2734:
	vaesenc	%xmm11, %xmm8, %xmm8
.LVL413:
.LBE2734:
.LBE2733:
.LBE2745:
.LBE2747:
	.loc 1 70 0
	testl	%ebp, %ebp
.LBB2748:
.LBB2746:
.LBB2735:
.LBB2736:
	.loc 4 62 0
	vaesenc	%xmm10, %xmm8, %xmm8
.LVL414:
.LBE2736:
.LBE2735:
.LBB2737:
.LBB2738:
	vaesenc	%xmm9, %xmm8, %xmm8
.LVL415:
.LBE2738:
.LBE2737:
.LBB2739:
.LBB2740:
	vaesenc	(%rsp), %xmm8, %xmm8
.LVL416:
.LBE2740:
.LBE2739:
.LBB2741:
.LBB2742:
	vaesenc	%xmm15, %xmm8, %xmm8
.LVL417:
.LBE2742:
.LBE2741:
.LBB2743:
.LBB2744:
	.loc 4 70 0
	vaesenclast	16(%rsp), %xmm8, %xmm8
.LVL418:
.LBE2744:
.LBE2743:
.LBE2746:
.LBE2748:
	.loc 1 70 0
	jle	.L162
	.loc 1 81 0
	movl	%r13d, %eax
	movl	%r13d, %r15d
	.loc 1 68 0
	vpxor	%xmm13, %xmm13, %xmm13
	.loc 1 81 0
	sarl	$31, %eax
	andl	$15, %r15d
	.loc 1 70 0
	xorl	%ebx, %ebx
	leal	-1(%rbp), %r12d
	.loc 1 81 0
	shrl	$28, %eax
	leal	0(%r13,%rax), %r14d
	andl	$15, %r14d
	subl	%eax, %r14d
	jmp	.L137
.LVL419:
	.p2align 4,,10
	.p2align 3
.L164:
	.loc 1 70 0
	vmovdqa	%xmm0, %xmm8
.LVL420:
.L137:
	.loc 1 80 0
	cmpl	%r12d, %ebx
.LBB2749:
.LBB2750:
	.loc 5 136 0
	vpshufb	%xmm7, %xmm8, %xmm12
.LVL421:
.LBE2750:
.LBE2749:
	.loc 1 79 0
	vmovdqa	(%rcx), %xmm0
.LBB2751:
.LBB2752:
	.loc 4 62 0
	vaesenc	%xmm4, %xmm12, %xmm14
.LVL422:
.LBE2752:
.LBE2751:
.LBB2753:
.LBB2754:
	vaesenc	%xmm3, %xmm14, %xmm14
.LVL423:
.LBE2754:
.LBE2753:
.LBB2755:
.LBB2756:
	vaesenc	%xmm2, %xmm14, %xmm14
.LVL424:
.LBE2756:
.LBE2755:
.LBB2757:
.LBB2758:
	vaesenc	%xmm1, %xmm14, %xmm14
.LVL425:
.LBE2758:
.LBE2757:
.LBB2759:
.LBB2760:
	vaesenc	%xmm11, %xmm14, %xmm14
.LVL426:
.LBE2760:
.LBE2759:
.LBB2761:
.LBB2762:
	vaesenc	%xmm10, %xmm14, %xmm14
.LVL427:
.LBE2762:
.LBE2761:
	.loc 1 80 0
	je	.L163
.LVL428:
.LBB2763:
.LBB2764:
	.loc 3 1250 0
	vpxor	%xmm0, %xmm14, %xmm0
.LVL429:
.LBE2764:
.LBE2763:
.LBB2768:
.LBB2769:
	.loc 4 62 0
	vaesenc	%xmm9, %xmm0, %xmm14
.LVL430:
.LBE2769:
.LBE2768:
.LBB2774:
.LBB2775:
	.loc 3 1250 0
	vpxor	%xmm12, %xmm0, %xmm0
.LVL431:
.LBE2775:
.LBE2774:
.LBB2779:
.LBB2780:
	.loc 4 62 0
	vaesenc	(%rsp), %xmm14, %xmm14
.LVL432:
.LBE2780:
.LBE2779:
.LBB2783:
.LBB2784:
	vaesenc	%xmm15, %xmm14, %xmm14
.LVL433:
.LBE2784:
.LBE2783:
.LBB2789:
.LBB2790:
	vaesenc	16(%rsp), %xmm14, %xmm14
.LVL434:
.LBE2790:
.LBE2789:
.LBB2793:
.LBB2794:
	.loc 3 1250 0
	vpxor	%xmm14, %xmm13, %xmm13
.LVL435:
.L134:
.LBE2794:
.LBE2793:
.LBB2799:
.LBB2800:
.LBB2801:
.LBB2802:
	.loc 2 67 0
	vptest	%xmm8, %xmm6
.LBE2802:
.LBE2801:
.LBE2800:
.LBE2799:
	.loc 1 94 0
	vmovdqa	%xmm0, (%r8)
.LVL436:
.LBB2812:
.LBB2811:
.LBB2803:
.LBB2804:
	.loc 3 1178 0
	vpsrlq	$1, %xmm8, %xmm0
.LVL437:
.LBE2804:
.LBE2803:
	.loc 1 208 0
	je	.L135
.LVL438:
.LBB2805:
.LBB2806:
	.loc 3 1250 0
	vpxor	.LC1(%rip), %xmm0, %xmm0
.LVL439:
.L135:
.LBE2806:
.LBE2805:
.LBB2807:
.LBB2808:
	.loc 2 67 0
	vptest	%xmm8, %xmm5
.LBE2808:
.LBE2807:
	.loc 1 213 0
	je	.L136
.LVL440:
.LBB2809:
.LBB2810:
	.loc 3 1250 0
	vpxor	.LC3(%rip), %xmm0, %xmm0
.LVL441:
.L136:
.LBE2810:
.LBE2809:
.LBE2811:
.LBE2812:
	.loc 1 70 0
	addl	$1, %ebx
.LVL442:
	addq	$16, %rcx
	addq	$16, %r8
.LVL443:
	cmpl	%ebp, %ebx
	jne	.L164
.LVL444:
.L131:
	.loc 1 97 0
	testl	%r15d, %r15d
	jne	.L138
	testl	%r13d, %r13d
	je	.L138
.LVL445:
.LBB2813:
.LBB2814:
.LBB2815:
.LBB2816:
	.loc 2 67 0
	vptest	%xmm0, %xmm6
.LBE2816:
.LBE2815:
.LBB2817:
.LBB2818:
	.loc 3 1178 0
	vpsrlq	$1, %xmm0, %xmm12
.LVL446:
.LBE2818:
.LBE2817:
	.loc 1 208 0
	je	.L145
.LVL447:
.LBB2819:
.LBB2820:
	.loc 3 1250 0
	vpxor	.LC1(%rip), %xmm12, %xmm12
.LVL448:
.L145:
.LBE2820:
.LBE2819:
.LBB2821:
.LBB2822:
	.loc 2 67 0
	vptest	%xmm0, %xmm5
.LBE2822:
.LBE2821:
	.loc 1 213 0
	je	.L146
.LVL449:
.LBB2823:
.LBB2824:
	.loc 3 1250 0
	vpxor	.LC3(%rip), %xmm12, %xmm12
.LVL450:
	.p2align 4,,10
	.p2align 3
.L146:
.LBE2824:
.LBE2823:
.LBE2814:
.LBE2813:
.LBB2828:
.LBB2829:
	vpxor	%xmm0, %xmm12, %xmm0
.LVL451:
.LBE2829:
.LBE2828:
.LBB2830:
.LBB2831:
	.loc 5 136 0
	vpshufb	%xmm7, %xmm0, %xmm0
.LVL452:
.LBE2831:
.LBE2830:
.LBB2832:
.LBB2833:
	.loc 3 1250 0
	vpxor	%xmm0, %xmm13, %xmm0
.LVL453:
.LBE2833:
.LBE2832:
.LBB2834:
.LBB2835:
.LBB2836:
.LBB2837:
	vpxor	32(%rsp), %xmm0, %xmm0
.LVL454:
.LBE2837:
.LBE2836:
.LBB2838:
.LBB2839:
	.loc 4 62 0
	vaesenc	%xmm4, %xmm0, %xmm0
.LVL455:
.LBE2839:
.LBE2838:
.LBB2840:
.LBB2841:
	vaesenc	%xmm3, %xmm0, %xmm0
.LVL456:
.LBE2841:
.LBE2840:
.LBB2842:
.LBB2843:
	vaesenc	%xmm2, %xmm0, %xmm0
.LVL457:
.LBE2843:
.LBE2842:
.LBB2844:
.LBB2845:
	vaesenc	%xmm1, %xmm0, %xmm0
.LVL458:
.LBE2845:
.LBE2844:
.LBB2846:
.LBB2847:
	vaesenc	%xmm11, %xmm0, %xmm0
.LVL459:
.LBE2847:
.LBE2846:
.LBB2848:
.LBB2849:
	vaesenc	%xmm10, %xmm0, %xmm0
.LVL460:
.LBE2849:
.LBE2848:
.LBB2850:
.LBB2851:
	vaesenc	%xmm9, %xmm0, %xmm0
.LVL461:
.LBE2851:
.LBE2850:
.LBB2852:
.LBB2853:
	vaesenc	(%rsp), %xmm0, %xmm0
.LVL462:
.LBE2853:
.LBE2852:
.LBB2854:
.LBB2855:
	vaesenc	%xmm15, %xmm0, %xmm0
.LVL463:
.LBE2855:
.LBE2854:
.LBB2856:
.LBB2857:
	.loc 4 70 0
	vaesenclast	16(%rsp), %xmm0, %xmm0
.LVL464:
.LBE2857:
.LBE2856:
.LBE2835:
.LBE2834:
.LBE2716:
.LBE2715:
.LBB2907:
.LBB2908:
	.loc 3 1250 0
	vpxor	48(%rsp), %xmm0, %xmm0
.LVL465:
.LBE2908:
.LBE2907:
.LBB2909:
.LBB2910:
	.loc 3 696 0
	vmovdqa	%xmm0, (%r9)
.LBE2910:
.LBE2909:
	.loc 1 35 0
	addq	$376, %rsp
	.cfi_remember_state
	.cfi_def_cfa_offset 56
.LVL466:
	popq	%rbx
	.cfi_def_cfa_offset 48
	popq	%rbp
	.cfi_def_cfa_offset 40
.LVL467:
	popq	%r12
	.cfi_def_cfa_offset 32
	popq	%r13
	.cfi_def_cfa_offset 24
.LVL468:
	popq	%r14
	.cfi_def_cfa_offset 16
	popq	%r15
	.cfi_def_cfa_offset 8
	ret
.LVL469:
	.p2align 4,,10
	.p2align 3
.L159:
	.cfi_restore_state
	salq	$4, %r12
	vmovdqa	.LC0(%rip), %xmm6
.LVL470:
.LBB2911:
.LBB2711:
	.loc 1 173 0
	vpxor	%xmm8, %xmm8, %xmm8
	vmovdqa	.LC2(%rip), %xmm5
.LVL471:
	leaq	16(%rdx,%r12), %rax
	vmovdqa	.LC3(%rip), %xmm14
.LVL472:
	.p2align 4,,10
	.p2align 3
.L117:
.LBB2700:
.LBB2610:
.LBB2603:
.LBB2592:
	.loc 2 67 0
	vptest	%xmm0, %xmm6
.LBE2592:
.LBE2603:
.LBE2610:
.LBE2700:
.LBB2701:
.LBB2614:
	.loc 5 136 0
	vpshufb	%xmm7, %xmm0, %xmm12
.LBE2614:
.LBE2701:
.LBB2702:
.LBB2618:
	.loc 3 1250 0
	vpxor	(%rdx), %xmm12, %xmm12
.LBE2618:
.LBE2702:
.LBB2703:
.LBB2621:
	.loc 4 62 0
	vaesenc	%xmm4, %xmm12, %xmm12
.LBE2621:
.LBE2703:
.LBB2704:
.LBB2624:
	vaesenc	%xmm3, %xmm12, %xmm12
.LBE2624:
.LBE2704:
.LBB2705:
.LBB2627:
	vaesenc	%xmm2, %xmm12, %xmm12
.LBE2627:
.LBE2705:
.LBB2706:
.LBB2630:
	vaesenc	%xmm1, %xmm12, %xmm12
.LBE2630:
.LBE2706:
.LBB2707:
.LBB2633:
	.loc 3 1250 0
	vpxor	%xmm12, %xmm8, %xmm8
.LBE2633:
.LBE2707:
.LBB2708:
.LBB2611:
.LBB2604:
.LBB2595:
	.loc 3 1178 0
	vpsrlq	$1, %xmm0, %xmm12
.LBE2595:
.LBE2604:
.LBB2605:
.LBB2598:
	.loc 3 1250 0
	vpxor	.LC1(%rip), %xmm12, %xmm13
	je	.L113
	vmovdqa	%xmm13, %xmm12
.L113:
.LBE2598:
.LBE2605:
.LBB2606:
.LBB2601:
	.loc 2 67 0
	vptest	%xmm0, %xmm5
.LBE2601:
.LBE2606:
.LBB2607:
.LBB2589:
	.loc 3 1250 0
	vpxor	%xmm14, %xmm12, %xmm13
	vmovdqa	%xmm12, %xmm0
	je	.L115
	vmovdqa	%xmm13, %xmm0
.L115:
.LVL473:
	addq	$16, %rdx
.LBE2589:
.LBE2607:
.LBE2611:
.LBE2708:
	.loc 1 176 0
	cmpq	%rax, %rdx
	jne	.L117
.LVL474:
.L122:
.LBB2709:
.LBB2669:
.LBB2661:
.LBB2662:
	.loc 2 67 0
	vptest	%xmm0, %xmm6
.LBE2662:
.LBE2661:
.LBB2663:
.LBB2664:
	.loc 3 1178 0
	vpsrlq	$1, %xmm0, %xmm13
.LVL475:
.LBE2664:
.LBE2663:
	.loc 1 208 0
	je	.L128
.LVL476:
.LBB2665:
.LBB2666:
	.loc 3 1250 0
	vpxor	.LC1(%rip), %xmm13, %xmm13
.LVL477:
.L128:
.LBE2666:
.LBE2665:
.LBB2667:
.LBB2668:
	.loc 2 67 0
	vptest	%xmm0, %xmm5
.LBE2668:
.LBE2667:
	.loc 1 213 0
	je	.L129
	jmp	.L156
.LVL478:
	.p2align 4,,10
	.p2align 3
.L138:
.LBE2669:
.LBE2709:
.LBE2711:
.LBE2911:
.LBB2912:
.LBB2903:
.LBB2858:
.LBB2859:
.LBB2860:
.LBB2861:
	.loc 2 67 0
	vptest	%xmm0, %xmm6
.LBE2861:
.LBE2860:
.LBB2862:
.LBB2863:
	.loc 3 1178 0
	vpsrlq	$1, %xmm0, %xmm8
.LVL479:
.LBE2863:
.LBE2862:
	.loc 1 208 0
	je	.L140
.LVL480:
.LBB2864:
.LBB2865:
	.loc 3 1250 0
	vpxor	.LC1(%rip), %xmm8, %xmm8
.LVL481:
.L140:
.LBE2865:
.LBE2864:
.LBB2866:
.LBB2867:
	.loc 2 67 0
	vptest	%xmm0, %xmm5
.LBE2867:
.LBE2866:
	.loc 1 213 0
	je	.L141
.LVL482:
.LBB2868:
.LBB2869:
	.loc 3 1250 0
	vpxor	.LC3(%rip), %xmm8, %xmm8
.LVL483:
.L141:
.LBE2869:
.LBE2868:
.LBE2859:
.LBE2858:
.LBB2870:
.LBB2871:
.LBB2872:
.LBB2873:
	.loc 2 67 0
	vptest	%xmm8, %xmm6
.LBE2873:
.LBE2872:
.LBB2874:
.LBB2875:
	.loc 3 1178 0
	vpsrlq	$1, %xmm8, %xmm12
.LVL484:
.LBE2875:
.LBE2874:
	.loc 1 208 0
	je	.L142
.LVL485:
.LBB2876:
.LBB2877:
	.loc 3 1250 0
	vpxor	.LC1(%rip), %xmm12, %xmm12
.LVL486:
.L142:
.LBE2877:
.LBE2876:
.LBB2878:
.LBB2879:
	.loc 2 67 0
	vptest	%xmm8, %xmm5
.LBE2879:
.LBE2878:
	.loc 1 213 0
	je	.L146
.LVL487:
.LBE2871:
.LBE2870:
.LBB2880:
.LBB2827:
.LBB2826:
.LBB2825:
	.loc 3 1250 0
	vpxor	.LC3(%rip), %xmm12, %xmm12
.LVL488:
	jmp	.L146
.LVL489:
	.p2align 4,,10
	.p2align 3
.L147:
.LBE2825:
.LBE2826:
.LBE2827:
.LBE2880:
.LBE2903:
.LBE2912:
	.loc 1 28 0
	vpxor	%xmm7, %xmm7, %xmm7
.LVL490:
	vmovdqa	.LC0(%rip), %xmm6
	vmovdqa	%xmm7, 48(%rsp)
	vmovdqa	.LC2(%rip), %xmm5
.LVL491:
	vmovdqa	.LC35(%rip), %xmm7
	jmp	.L108
.LVL492:
.L162:
	movl	%r13d, %r15d
.LBB2913:
.LBB2904:
	.loc 1 69 0
	vmovdqa	%xmm8, %xmm0
.LVL493:
	.loc 1 68 0
	vpxor	%xmm13, %xmm13, %xmm13
	andl	$15, %r15d
	jmp	.L131
.LVL494:
.L158:
	andl	$15, %eax
.LVL495:
.LBE2904:
.LBE2913:
.LBB2914:
.LBB2712:
	.loc 1 173 0
	vpxor	%xmm8, %xmm8, %xmm8
	vmovdqa	.LC0(%rip), %xmm6
.LVL496:
	movl	%eax, %r15d
	vmovdqa	.LC2(%rip), %xmm5
.LVL497:
	jmp	.L110
.LVL498:
.L163:
.LBE2712:
.LBE2914:
.LBB2915:
.LBB2905:
	.loc 1 80 0
	testl	%r15d, %r15d
	je	.L133
	.loc 1 81 0
	movl	%r14d, %edi
	movq	%r8, 120(%rsp)
	vmovdqa	%xmm7, 352(%rsp)
	vmovdqa	%xmm5, 336(%rsp)
	vmovdqa	%xmm6, 320(%rsp)
	vmovdqa	%xmm8, 304(%rsp)
	vmovdqa	%xmm10, 256(%rsp)
	vmovdqa	%xmm11, 240(%rsp)
	vmovdqa	%xmm1, 224(%rsp)
	vmovdqa	%xmm2, 208(%rsp)
	vmovdqa	%xmm3, 192(%rsp)
	vmovdqa	%xmm4, 176(%rsp)
	movq	%r9, 144(%rsp)
	movq	%rcx, 128(%rsp)
	vmovdqa	%xmm13, 288(%rsp)
	vmovdqa	%xmm15, 272(%rsp)
	vmovdqa	%xmm9, 80(%rsp)
	vmovdqa	%xmm14, 64(%rsp)
	vmovdqa	%xmm12, 160(%rsp)
	call	padd
.LVL499:
.LBB2881:
.LBB2770:
	.loc 4 62 0
	vmovdqa	80(%rsp), %xmm9
.LBE2770:
.LBE2881:
	.loc 1 92 0
	movl	%r14d, %edi
.LBB2882:
.LBB2785:
	.loc 4 62 0
	vmovdqa	272(%rsp), %xmm15
.LBE2785:
.LBE2882:
.LBB2883:
.LBB2765:
	.loc 3 1250 0
	vmovdqa	64(%rsp), %xmm14
.LBE2765:
.LBE2883:
.LBB2884:
.LBB2771:
	.loc 4 62 0
	vmovdqa	%xmm9, 96(%rsp)
.LBE2771:
.LBE2884:
.LBB2885:
.LBB2776:
	.loc 3 1250 0
	vmovdqa	160(%rsp), %xmm12
.LBE2776:
.LBE2885:
.LBB2886:
.LBB2786:
	.loc 4 62 0
	vmovdqa	%xmm15, 80(%rsp)
.LVL500:
.LBE2786:
.LBE2886:
.LBB2887:
.LBB2795:
	.loc 3 1250 0
	vmovdqa	288(%rsp), %xmm13
.LBE2795:
.LBE2887:
.LBB2888:
.LBB2766:
	vpxor	%xmm0, %xmm14, %xmm14
.LVL501:
.LBE2766:
.LBE2888:
.LBB2889:
.LBB2772:
	.loc 4 62 0
	vaesenc	%xmm9, %xmm14, %xmm0
.LVL502:
.LBE2772:
.LBE2889:
.LBB2890:
.LBB2781:
	vaesenc	(%rsp), %xmm0, %xmm0
.LVL503:
.LBE2781:
.LBE2890:
.LBB2891:
.LBB2787:
	vaesenc	%xmm15, %xmm0, %xmm0
.LVL504:
.LBE2787:
.LBE2891:
.LBB2892:
.LBB2791:
	vaesenc	16(%rsp), %xmm0, %xmm0
.LVL505:
.LBE2791:
.LBE2892:
.LBB2893:
.LBB2796:
	.loc 3 1250 0
	vpxor	%xmm0, %xmm13, %xmm13
.LBE2796:
.LBE2893:
.LBB2894:
.LBB2777:
	vpxor	%xmm12, %xmm14, %xmm0
.LVL506:
.LBE2777:
.LBE2894:
.LBB2895:
.LBB2797:
	vmovdqa	%xmm13, 64(%rsp)
.LVL507:
.LBE2797:
.LBE2895:
	.loc 1 92 0
	call	padd
.LVL508:
	vmovdqa	64(%rsp), %xmm13
	vmovdqa	80(%rsp), %xmm15
	vmovdqa	96(%rsp), %xmm9
	movq	120(%rsp), %r8
	movq	128(%rsp), %rcx
	movq	144(%rsp), %r9
	vmovdqa	176(%rsp), %xmm4
	vmovdqa	192(%rsp), %xmm3
	vmovdqa	208(%rsp), %xmm2
	vmovdqa	224(%rsp), %xmm1
	vmovdqa	240(%rsp), %xmm11
	vmovdqa	256(%rsp), %xmm10
	vmovdqa	304(%rsp), %xmm8
	vmovdqa	320(%rsp), %xmm6
	vmovdqa	336(%rsp), %xmm5
	vmovdqa	352(%rsp), %xmm7
	jmp	.L134
.LVL509:
.L160:
.LBE2905:
.LBE2915:
.LBB2916:
.LBB2713:
	.loc 1 180 0
	movl	%r14d, %edi
	movq	%r9, 120(%rsp)
	vmovdqa	%xmm7, 352(%rsp)
	vmovdqa	%xmm5, 336(%rsp)
	vmovdqa	%xmm6, 320(%rsp)
	vmovdqa	%xmm8, 304(%rsp)
	vmovdqa	%xmm12, 288(%rsp)
	vmovdqa	%xmm15, 272(%rsp)
	vmovdqa	%xmm9, 256(%rsp)
	vmovdqa	%xmm10, 240(%rsp)
	vmovdqa	%xmm11, 224(%rsp)
	vmovdqa	%xmm1, 208(%rsp)
	vmovdqa	%xmm2, 192(%rsp)
	vmovdqa	%xmm3, 176(%rsp)
	vmovdqa	%xmm4, 160(%rsp)
	vmovdqa	%xmm14, 144(%rsp)
	vmovdqa	%xmm13, 128(%rsp)
	movq	%r8, 96(%rsp)
	movq	%rcx, 80(%rsp)
	movq	%rsi, 64(%rsp)
	movq	%rdx, 48(%rsp)
	call	padd
.LVL510:
	movq	120(%rsp), %r9
	vmovdqa	352(%rsp), %xmm7
	vmovdqa	336(%rsp), %xmm5
	vmovdqa	320(%rsp), %xmm6
	vmovdqa	304(%rsp), %xmm8
	vmovdqa	288(%rsp), %xmm12
	vmovdqa	272(%rsp), %xmm15
	vmovdqa	256(%rsp), %xmm9
	vmovdqa	240(%rsp), %xmm10
	vmovdqa	224(%rsp), %xmm11
	vmovdqa	208(%rsp), %xmm1
	vmovdqa	192(%rsp), %xmm2
	vmovdqa	176(%rsp), %xmm3
	vmovdqa	160(%rsp), %xmm4
	vmovdqa	144(%rsp), %xmm14
	vmovdqa	128(%rsp), %xmm13
	movq	96(%rsp), %r8
	movq	80(%rsp), %rcx
	movq	64(%rsp), %rsi
	movq	48(%rsp), %rdx
.LVL511:
	jmp	.L118
.LVL512:
.L133:
.LBE2713:
.LBE2916:
.LBB2917:
.LBB2906:
.LBB2896:
.LBB2767:
	.loc 3 1250 0
	vpxor	%xmm0, %xmm14, %xmm14
.LVL513:
.LBE2767:
.LBE2896:
.LBB2897:
.LBB2773:
	.loc 4 62 0
	vaesenc	%xmm9, %xmm14, %xmm0
.LVL514:
.LBE2773:
.LBE2897:
.LBB2898:
.LBB2782:
	vaesenc	(%rsp), %xmm0, %xmm0
.LVL515:
.LBE2782:
.LBE2898:
.LBB2899:
.LBB2788:
	vaesenc	%xmm15, %xmm0, %xmm0
.LVL516:
.LBE2788:
.LBE2899:
.LBB2900:
.LBB2792:
	vaesenc	16(%rsp), %xmm0, %xmm0
.LVL517:
.LBE2792:
.LBE2900:
.LBB2901:
.LBB2798:
	.loc 3 1250 0
	vpxor	%xmm0, %xmm13, %xmm13
.LVL518:
.LBE2798:
.LBE2901:
.LBB2902:
.LBB2778:
	vpxor	%xmm12, %xmm14, %xmm0
.LVL519:
	jmp	.L134
.LBE2778:
.LBE2902:
.LBE2906:
.LBE2917:
	.cfi_endproc
.LFE653:
	.size	YAES128_ENC, .-YAES128_ENC
	.p2align 4,,15
	.globl	YAES128_DEC
	.type	YAES128_DEC, @function
YAES128_DEC:
.LFB654:
	.loc 1 37 0
	.cfi_startproc
.LVL520:
	pushq	%r15
	.cfi_def_cfa_offset 16
	.cfi_offset 15, -16
	pushq	%r14
	.cfi_def_cfa_offset 24
	.cfi_offset 14, -24
	pushq	%r13
	.cfi_def_cfa_offset 32
	.cfi_offset 13, -32
	pushq	%r12
	.cfi_def_cfa_offset 40
	.cfi_offset 12, -40
	pushq	%rbp
	.cfi_def_cfa_offset 48
	.cfi_offset 6, -48
	pushq	%rbx
	.cfi_def_cfa_offset 56
	.cfi_offset 3, -56
	subq	$376, %rsp
	.cfi_def_cfa_offset 432
	.loc 1 37 0
	vmovdqa	(%rdi), %xmm7
	movl	448(%rsp), %eax
.LBB3392:
.LBB3393:
.LBB3394:
.LBB3395:
.LBB3396:
.LBB3397:
	.loc 3 1154 0
	vpslldq	$4, %xmm7, %xmm0
.LBE3397:
.LBE3396:
.LBE3395:
.LBE3394:
.LBB3415:
.LBB3416:
	.loc 4 88 0
	vaeskeygenassist	$1, %xmm7, %xmm1
.LBE3416:
.LBE3415:
.LBB3417:
.LBB3412:
.LBB3398:
.LBB3399:
	.loc 3 1379 0
	vpshufd	$255, %xmm1, %xmm1
.LBE3399:
.LBE3398:
.LBB3400:
.LBB3401:
	.loc 3 1250 0
	vpxor	%xmm7, %xmm0, %xmm5
.LBE3401:
.LBE3400:
.LBB3402:
.LBB3403:
	.loc 3 1154 0
	vpslldq	$4, %xmm0, %xmm0
.LBE3403:
.LBE3402:
.LBE3412:
.LBE3417:
.LBE3393:
.LBE3392:
	.loc 1 37 0
	movl	440(%rsp), %r12d
.LBB3644:
.LBB3640:
.LBB3418:
.LBB3413:
.LBB3404:
.LBB3405:
	.loc 3 1250 0
	vpxor	%xmm0, %xmm5, %xmm5
.LBE3405:
.LBE3404:
.LBB3406:
.LBB3407:
	.loc 3 1154 0
	vpslldq	$4, %xmm0, %xmm0
.LBE3407:
.LBE3406:
.LBE3413:
.LBE3418:
.LBE3640:
.LBE3644:
	.loc 1 37 0
	vmovdqa	%xmm7, 48(%rsp)
.LVL521:
.LBB3645:
.LBB3641:
.LBB3419:
.LBB3414:
.LBB3408:
.LBB3409:
	.loc 3 1250 0
	vpxor	%xmm0, %xmm5, %xmm5
.LVL522:
.LBE3409:
.LBE3408:
.LBB3410:
.LBB3411:
	vpxor	%xmm1, %xmm5, %xmm5
.LVL523:
.LBE3411:
.LBE3410:
.LBE3414:
.LBE3419:
.LBB3420:
.LBB3421:
.LBB3422:
.LBB3423:
	.loc 3 1154 0
	vpslldq	$4, %xmm5, %xmm0
.LVL524:
.LBE3423:
.LBE3422:
.LBB3424:
.LBB3425:
	.loc 3 1250 0
	vpxor	%xmm0, %xmm5, %xmm4
.LBE3425:
.LBE3424:
.LBB3426:
.LBB3427:
	.loc 3 1154 0
	vpslldq	$4, %xmm0, %xmm0
.LBE3427:
.LBE3426:
.LBE3421:
.LBE3420:
.LBB3439:
.LBB3440:
	.loc 4 88 0
	vaeskeygenassist	$2, %xmm5, %xmm1
.LVL525:
.LBE3440:
.LBE3439:
.LBB3441:
.LBB3438:
.LBB3428:
.LBB3429:
	.loc 3 1250 0
	vpxor	%xmm0, %xmm4, %xmm4
.LBE3429:
.LBE3428:
.LBB3430:
.LBB3431:
	.loc 3 1154 0
	vpslldq	$4, %xmm0, %xmm0
.LBE3431:
.LBE3430:
.LBB3432:
.LBB3433:
	.loc 3 1379 0
	vpshufd	$255, %xmm1, %xmm1
.LVL526:
.LBE3433:
.LBE3432:
.LBB3434:
.LBB3435:
	.loc 3 1250 0
	vpxor	%xmm0, %xmm4, %xmm4
.LVL527:
.LBE3435:
.LBE3434:
.LBB3436:
.LBB3437:
	vpxor	%xmm1, %xmm4, %xmm4
.LVL528:
.LBE3437:
.LBE3436:
.LBE3438:
.LBE3441:
.LBB3442:
.LBB3443:
.LBB3444:
.LBB3445:
	.loc 3 1154 0
	vpslldq	$4, %xmm4, %xmm0
.LVL529:
.LBE3445:
.LBE3444:
.LBB3446:
.LBB3447:
	.loc 3 1250 0
	vpxor	%xmm0, %xmm4, %xmm3
.LBE3447:
.LBE3446:
.LBB3448:
.LBB3449:
	.loc 3 1154 0
	vpslldq	$4, %xmm0, %xmm0
.LBE3449:
.LBE3448:
.LBE3443:
.LBE3442:
.LBB3461:
.LBB3462:
	.loc 4 88 0
	vaeskeygenassist	$4, %xmm4, %xmm1
.LVL530:
.LBE3462:
.LBE3461:
.LBB3463:
.LBB3460:
.LBB3450:
.LBB3451:
	.loc 3 1250 0
	vpxor	%xmm0, %xmm3, %xmm3
.LBE3451:
.LBE3450:
.LBB3452:
.LBB3453:
	.loc 3 1154 0
	vpslldq	$4, %xmm0, %xmm0
.LBE3453:
.LBE3452:
.LBB3454:
.LBB3455:
	.loc 3 1379 0
	vpshufd	$255, %xmm1, %xmm1
.LVL531:
.LBE3455:
.LBE3454:
.LBB3456:
.LBB3457:
	.loc 3 1250 0
	vpxor	%xmm0, %xmm3, %xmm3
.LVL532:
.LBE3457:
.LBE3456:
.LBB3458:
.LBB3459:
	vpxor	%xmm1, %xmm3, %xmm3
.LVL533:
.LBE3459:
.LBE3458:
.LBE3460:
.LBE3463:
.LBB3464:
.LBB3465:
.LBB3466:
.LBB3467:
	.loc 3 1154 0
	vpslldq	$4, %xmm3, %xmm0
.LVL534:
.LBE3467:
.LBE3466:
.LBB3468:
.LBB3469:
	.loc 3 1250 0
	vpxor	%xmm0, %xmm3, %xmm2
.LBE3469:
.LBE3468:
.LBB3470:
.LBB3471:
	.loc 3 1154 0
	vpslldq	$4, %xmm0, %xmm0
.LBE3471:
.LBE3470:
.LBE3465:
.LBE3464:
.LBB3483:
.LBB3484:
	.loc 4 88 0
	vaeskeygenassist	$8, %xmm3, %xmm1
.LVL535:
.LBE3484:
.LBE3483:
.LBB3485:
.LBB3482:
.LBB3472:
.LBB3473:
	.loc 3 1250 0
	vpxor	%xmm0, %xmm2, %xmm2
.LBE3473:
.LBE3472:
.LBB3474:
.LBB3475:
	.loc 3 1154 0
	vpslldq	$4, %xmm0, %xmm0
.LBE3475:
.LBE3474:
.LBB3476:
.LBB3477:
	.loc 3 1379 0
	vpshufd	$255, %xmm1, %xmm1
.LVL536:
.LBE3477:
.LBE3476:
.LBB3478:
.LBB3479:
	.loc 3 1250 0
	vpxor	%xmm0, %xmm2, %xmm2
.LVL537:
.LBE3479:
.LBE3478:
.LBB3480:
.LBB3481:
	vpxor	%xmm1, %xmm2, %xmm2
.LVL538:
.LBE3481:
.LBE3480:
.LBE3482:
.LBE3485:
.LBB3486:
.LBB3487:
.LBB3488:
.LBB3489:
	.loc 3 1154 0
	vpslldq	$4, %xmm2, %xmm0
.LVL539:
.LBE3489:
.LBE3488:
.LBB3490:
.LBB3491:
	.loc 3 1250 0
	vpxor	%xmm0, %xmm2, %xmm12
.LBE3491:
.LBE3490:
.LBB3492:
.LBB3493:
	.loc 3 1154 0
	vpslldq	$4, %xmm0, %xmm0
.LBE3493:
.LBE3492:
.LBE3487:
.LBE3486:
.LBB3505:
.LBB3506:
	.loc 4 88 0
	vaeskeygenassist	$16, %xmm2, %xmm1
.LVL540:
.LBE3506:
.LBE3505:
.LBB3507:
.LBB3504:
.LBB3494:
.LBB3495:
	.loc 3 1250 0
	vpxor	%xmm0, %xmm12, %xmm12
.LBE3495:
.LBE3494:
.LBB3496:
.LBB3497:
	.loc 3 1154 0
	vpslldq	$4, %xmm0, %xmm0
.LBE3497:
.LBE3496:
.LBB3498:
.LBB3499:
	.loc 3 1379 0
	vpshufd	$255, %xmm1, %xmm1
.LVL541:
.LBE3499:
.LBE3498:
.LBB3500:
.LBB3501:
	.loc 3 1250 0
	vpxor	%xmm0, %xmm12, %xmm12
.LVL542:
.LBE3501:
.LBE3500:
.LBB3502:
.LBB3503:
	vpxor	%xmm1, %xmm12, %xmm12
.LVL543:
.LBE3503:
.LBE3502:
.LBE3504:
.LBE3507:
.LBB3508:
.LBB3509:
.LBB3510:
.LBB3511:
	.loc 3 1154 0
	vpslldq	$4, %xmm12, %xmm0
.LVL544:
.LBE3511:
.LBE3510:
.LBB3512:
.LBB3513:
	.loc 3 1250 0
	vpxor	%xmm0, %xmm12, %xmm11
.LBE3513:
.LBE3512:
.LBB3514:
.LBB3515:
	.loc 3 1154 0
	vpslldq	$4, %xmm0, %xmm0
.LBE3515:
.LBE3514:
.LBE3509:
.LBE3508:
.LBB3527:
.LBB3528:
	.loc 4 88 0
	vaeskeygenassist	$32, %xmm12, %xmm1
.LVL545:
.LBE3528:
.LBE3527:
.LBB3529:
.LBB3526:
.LBB3516:
.LBB3517:
	.loc 3 1250 0
	vpxor	%xmm0, %xmm11, %xmm11
.LBE3517:
.LBE3516:
.LBB3518:
.LBB3519:
	.loc 3 1154 0
	vpslldq	$4, %xmm0, %xmm0
.LBE3519:
.LBE3518:
.LBB3520:
.LBB3521:
	.loc 3 1379 0
	vpshufd	$255, %xmm1, %xmm1
.LVL546:
.LBE3521:
.LBE3520:
.LBB3522:
.LBB3523:
	.loc 3 1250 0
	vpxor	%xmm0, %xmm11, %xmm11
.LVL547:
.LBE3523:
.LBE3522:
.LBB3524:
.LBB3525:
	vpxor	%xmm1, %xmm11, %xmm11
.LVL548:
.LBE3525:
.LBE3524:
.LBE3526:
.LBE3529:
.LBB3530:
.LBB3531:
.LBB3532:
.LBB3533:
	.loc 3 1154 0
	vpslldq	$4, %xmm11, %xmm0
.LVL549:
.LBE3533:
.LBE3532:
.LBB3534:
.LBB3535:
	.loc 3 1250 0
	vpxor	%xmm0, %xmm11, %xmm10
.LBE3535:
.LBE3534:
.LBB3536:
.LBB3537:
	.loc 3 1154 0
	vpslldq	$4, %xmm0, %xmm0
.LBE3537:
.LBE3536:
.LBE3531:
.LBE3530:
.LBB3549:
.LBB3550:
	.loc 4 88 0
	vaeskeygenassist	$64, %xmm11, %xmm1
.LVL550:
.LBE3550:
.LBE3549:
.LBB3551:
.LBB3548:
.LBB3538:
.LBB3539:
	.loc 3 1250 0
	vpxor	%xmm0, %xmm10, %xmm10
.LBE3539:
.LBE3538:
.LBB3540:
.LBB3541:
	.loc 3 1154 0
	vpslldq	$4, %xmm0, %xmm0
.LBE3541:
.LBE3540:
.LBB3542:
.LBB3543:
	.loc 3 1379 0
	vpshufd	$255, %xmm1, %xmm1
.LVL551:
.LBE3543:
.LBE3542:
.LBB3544:
.LBB3545:
	.loc 3 1250 0
	vpxor	%xmm0, %xmm10, %xmm10
.LVL552:
.LBE3545:
.LBE3544:
.LBB3546:
.LBB3547:
	vpxor	%xmm1, %xmm10, %xmm10
.LVL553:
.LBE3547:
.LBE3546:
.LBE3548:
.LBE3551:
.LBB3552:
.LBB3553:
.LBB3554:
.LBB3555:
	.loc 3 1154 0
	vpslldq	$4, %xmm10, %xmm0
.LVL554:
.LBE3555:
.LBE3554:
.LBB3556:
.LBB3557:
	.loc 3 1250 0
	vpxor	%xmm0, %xmm10, %xmm6
.LBE3557:
.LBE3556:
.LBB3558:
.LBB3559:
	.loc 3 1154 0
	vpslldq	$4, %xmm0, %xmm0
.LBE3559:
.LBE3558:
.LBE3553:
.LBE3552:
.LBB3577:
.LBB3578:
	.loc 4 88 0
	vaeskeygenassist	$128, %xmm10, %xmm1
.LVL555:
.LBE3578:
.LBE3577:
.LBB3579:
.LBB3574:
.LBB3560:
.LBB3561:
	.loc 3 1250 0
	vpxor	%xmm0, %xmm6, %xmm6
.LBE3561:
.LBE3560:
.LBB3562:
.LBB3563:
	.loc 3 1154 0
	vpslldq	$4, %xmm0, %xmm0
.LBE3563:
.LBE3562:
.LBB3564:
.LBB3565:
	.loc 3 1379 0
	vpshufd	$255, %xmm1, %xmm1
.LVL556:
.LBE3565:
.LBE3564:
.LBB3566:
.LBB3567:
	.loc 3 1250 0
	vpxor	%xmm0, %xmm6, %xmm0
.LVL557:
.LBE3567:
.LBE3566:
.LBB3568:
.LBB3569:
	vpxor	%xmm1, %xmm0, %xmm6
.LVL558:
.LBE3569:
.LBE3568:
.LBE3574:
.LBE3579:
.LBB3580:
.LBB3581:
.LBB3582:
.LBB3583:
	.loc 3 1154 0
	vpslldq	$4, %xmm6, %xmm0
.LVL559:
.LBE3583:
.LBE3582:
.LBE3581:
.LBE3580:
.LBB3606:
.LBB3575:
.LBB3572:
.LBB3570:
	.loc 3 1250 0
	vmovdqa	%xmm6, %xmm8
.LBE3570:
.LBE3572:
.LBE3575:
.LBE3606:
.LBB3607:
.LBB3608:
	.loc 4 88 0
	vaeskeygenassist	$27, %xmm6, %xmm1
.LVL560:
.LBE3608:
.LBE3607:
.LBB3609:
.LBB3576:
.LBB3573:
.LBB3571:
	.loc 3 1250 0
	vmovdqa	%xmm6, (%rsp)
.LVL561:
.LBE3571:
.LBE3573:
.LBE3576:
.LBE3609:
.LBB3610:
.LBB3602:
.LBB3584:
.LBB3585:
	vpxor	%xmm8, %xmm0, %xmm6
.LVL562:
.LBE3585:
.LBE3584:
.LBB3586:
.LBB3587:
	.loc 3 1154 0
	vpslldq	$4, %xmm0, %xmm0
.LBE3587:
.LBE3586:
.LBB3588:
.LBB3589:
	.loc 3 1379 0
	vpshufd	$255, %xmm1, %xmm1
.LVL563:
.LBE3589:
.LBE3588:
.LBB3590:
.LBB3591:
	.loc 3 1250 0
	vpxor	%xmm0, %xmm6, %xmm6
.LVL564:
.LBE3591:
.LBE3590:
.LBB3592:
.LBB3593:
	.loc 3 1154 0
	vpslldq	$4, %xmm0, %xmm0
.LVL565:
.LBE3593:
.LBE3592:
.LBE3602:
.LBE3610:
.LBE3641:
.LBE3645:
	.loc 1 43 0
	testl	%eax, %eax
.LBB3646:
.LBB3642:
.LBB3611:
.LBB3603:
.LBB3594:
.LBB3595:
	.loc 3 1250 0
	vpxor	%xmm0, %xmm6, %xmm0
.LVL566:
.LBE3595:
.LBE3594:
.LBB3596:
.LBB3597:
	vpxor	%xmm1, %xmm0, %xmm6
.LVL567:
.LBE3597:
.LBE3596:
.LBE3603:
.LBE3611:
.LBB3612:
.LBB3613:
.LBB3614:
.LBB3615:
	.loc 3 1154 0
	vpslldq	$4, %xmm6, %xmm0
.LVL568:
.LBE3615:
.LBE3614:
.LBE3613:
.LBE3612:
.LBB3634:
.LBB3604:
.LBB3600:
.LBB3598:
	.loc 3 1250 0
	vmovdqa	%xmm6, %xmm14
.LBE3598:
.LBE3600:
.LBE3604:
.LBE3634:
.LBB3635:
.LBB3636:
	.loc 4 88 0
	vaeskeygenassist	$54, %xmm6, %xmm1
.LVL569:
.LBE3636:
.LBE3635:
.LBB3637:
.LBB3605:
.LBB3601:
.LBB3599:
	.loc 3 1250 0
	vmovdqa	%xmm6, 16(%rsp)
.LVL570:
.LBE3599:
.LBE3601:
.LBE3605:
.LBE3637:
.LBB3638:
.LBB3632:
.LBB3616:
.LBB3617:
	vpxor	%xmm14, %xmm0, %xmm6
.LVL571:
.LBE3617:
.LBE3616:
.LBB3618:
.LBB3619:
	.loc 3 1154 0
	vpslldq	$4, %xmm0, %xmm0
.LBE3619:
.LBE3618:
.LBB3620:
.LBB3621:
	.loc 3 1379 0
	vpshufd	$255, %xmm1, %xmm1
.LVL572:
.LBE3621:
.LBE3620:
.LBB3622:
.LBB3623:
	.loc 3 1250 0
	vpxor	%xmm0, %xmm6, %xmm6
.LVL573:
.LBE3623:
.LBE3622:
.LBB3624:
.LBB3625:
	.loc 3 1154 0
	vpslldq	$4, %xmm0, %xmm0
.LVL574:
.LBE3625:
.LBE3624:
.LBB3626:
.LBB3627:
	.loc 3 1250 0
	vpxor	%xmm0, %xmm6, %xmm0
.LVL575:
.LBE3627:
.LBE3626:
.LBB3628:
.LBB3629:
	vpxor	%xmm1, %xmm0, %xmm6
.LVL576:
.LBE3629:
.LBE3628:
.LBE3632:
.LBE3638:
.LBE3642:
.LBE3646:
	.loc 1 37 0
	vmovdqa	(%r9), %xmm1
.LVL577:
.LBB3647:
.LBB3643:
.LBB3639:
.LBB3633:
.LBB3631:
.LBB3630:
	.loc 3 1250 0
	vmovdqa	%xmm6, 32(%rsp)
.LBE3630:
.LBE3631:
.LBE3633:
.LBE3639:
.LBE3643:
.LBE3647:
	.loc 1 37 0
	vmovdqa	%xmm1, 64(%rsp)
.LVL578:
	.loc 1 43 0
	jle	.L212
.LVL579:
.LBB3648:
.LBB3649:
	.loc 1 172 0
	leal	15(%rax), %ebp
.LBB3650:
.LBB3651:
.LBB3652:
.LBB3653:
	.loc 4 62 0
	vaesenc	%xmm5, %xmm7, %xmm1
.LBE3653:
.LBE3652:
.LBB3654:
.LBB3655:
	vaesenc	%xmm4, %xmm1, %xmm1
.LBE3655:
.LBE3654:
.LBE3651:
.LBE3650:
	.loc 1 172 0
	sarl	$4, %ebp
.LVL580:
.LBB3673:
.LBB3672:
.LBB3656:
.LBB3657:
	.loc 4 62 0
	vaesenc	%xmm3, %xmm1, %xmm1
.LVL581:
.LBE3657:
.LBE3656:
.LBB3658:
.LBB3659:
	vaesenc	%xmm2, %xmm1, %xmm1
.LVL582:
.LBE3659:
.LBE3658:
.LBB3660:
.LBB3661:
	vaesenc	%xmm12, %xmm1, %xmm1
.LVL583:
.LBE3661:
.LBE3660:
.LBB3662:
.LBB3663:
	vaesenc	%xmm11, %xmm1, %xmm1
.LVL584:
.LBE3663:
.LBE3662:
.LBB3664:
.LBB3665:
	vaesenc	%xmm10, %xmm1, %xmm1
.LVL585:
.LBE3665:
.LBE3664:
.LBB3666:
.LBB3667:
	vaesenc	%xmm8, %xmm1, %xmm1
.LVL586:
.LBE3667:
.LBE3666:
.LBB3668:
.LBB3669:
	vaesenc	%xmm14, %xmm1, %xmm1
.LVL587:
.LBE3669:
.LBE3668:
.LBB3670:
.LBB3671:
	.loc 4 70 0
	vaesenclast	%xmm6, %xmm1, %xmm1
.LVL588:
.LBE3671:
.LBE3670:
.LBE3672:
.LBE3673:
.LBB3674:
.LBB3675:
	.loc 5 136 0
	vmovdqa	.LC35(%rip), %xmm6
.LVL589:
.LBE3675:
.LBE3674:
	.loc 1 176 0
	testl	%ebp, %ebp
.LBB3677:
.LBB3676:
	.loc 5 136 0
	vpshufb	%xmm6, %xmm1, %xmm1
	vmovdqa	%xmm1, %xmm13
.LVL590:
.LBE3676:
.LBE3677:
	.loc 1 176 0
	jle	.L224
	leal	-1(%rbp), %r13d
	andl	$15, %eax
.LVL591:
	movl	%eax, %r15d
	je	.L225
	.loc 1 173 0
	vpxor	%xmm9, %xmm9, %xmm9
	.loc 1 176 0
	xorl	%ebx, %ebx
	vmovdqa	.LC0(%rip), %xmm8
.LVL592:
	vmovdqa	.LC2(%rip), %xmm7
.LVL593:
	.loc 1 180 0
	movl	%eax, %r14d
.LBB3678:
.LBB3679:
.LBB3680:
.LBB3681:
	.loc 3 1250 0
	vmovdqa	.LC1(%rip), %xmm15
.LBE3681:
.LBE3680:
.LBB3684:
.LBB3685:
	vmovdqa	.LC3(%rip), %xmm14
.LVL594:
	jmp	.L179
.LVL595:
	.p2align 4,,10
	.p2align 3
.L227:
.LBE3685:
.LBE3684:
.LBE3679:
.LBE3678:
	.loc 1 176 0
	vmovdqa	%xmm1, %xmm13
.LVL596:
.L179:
	.loc 1 179 0
	cmpl	%r13d, %ebx
.LBB3709:
.LBB3710:
	.loc 5 136 0
	vpshufb	%xmm6, %xmm13, %xmm1
.LVL597:
.LBE3710:
.LBE3709:
.LBE3649:
.LBE3648:
	.loc 1 178 0
	vmovdqa	(%rdx), %xmm0
.LVL598:
.LBB3813:
.LBB3810:
	.loc 1 179 0
	je	.L226
.L176:
.LVL599:
.LBB3712:
.LBB3704:
.LBB3688:
.LBB3689:
	.loc 2 67 0
	vptest	%xmm13, %xmm8
.LBE3689:
.LBE3688:
.LBE3704:
.LBE3712:
.LBB3713:
.LBB3714:
	.loc 3 1250 0
	vpxor	%xmm1, %xmm0, %xmm0
.LVL600:
.LBE3714:
.LBE3713:
.LBB3716:
.LBB3717:
	.loc 4 62 0
	vaesenc	%xmm5, %xmm0, %xmm0
.LVL601:
.LBE3717:
.LBE3716:
.LBB3719:
.LBB3705:
.LBB3691:
.LBB3692:
	.loc 3 1178 0
	vpsrlq	$1, %xmm13, %xmm1
.LVL602:
.LBE3692:
.LBE3691:
.LBE3705:
.LBE3719:
.LBB3720:
.LBB3721:
	.loc 4 62 0
	vaesenc	%xmm4, %xmm0, %xmm0
.LVL603:
.LBE3721:
.LBE3720:
.LBB3723:
.LBB3724:
	vaesenc	%xmm3, %xmm0, %xmm0
.LVL604:
.LBE3724:
.LBE3723:
.LBB3726:
.LBB3727:
	vaesenc	%xmm2, %xmm0, %xmm0
.LVL605:
.LBE3727:
.LBE3726:
.LBB3729:
.LBB3730:
	.loc 3 1250 0
	vpxor	%xmm0, %xmm9, %xmm9
.LVL606:
.LBE3730:
.LBE3729:
.LBB3732:
.LBB3706:
	.loc 1 208 0
	je	.L177
.LVL607:
.LBB3694:
.LBB3682:
	.loc 3 1250 0
	vpxor	%xmm15, %xmm1, %xmm1
.LVL608:
.L177:
.LBE3682:
.LBE3694:
.LBB3695:
.LBB3696:
	.loc 2 67 0
	vptest	%xmm13, %xmm7
.LBE3696:
.LBE3695:
	.loc 1 213 0
	je	.L178
.LVL609:
.LBB3698:
.LBB3686:
	.loc 3 1250 0
	vpxor	%xmm14, %xmm1, %xmm1
.LVL610:
.L178:
.LBE3686:
.LBE3698:
.LBE3706:
.LBE3732:
	.loc 1 176 0
	addl	$1, %ebx
.LVL611:
	addq	$16, %rdx
.LVL612:
	cmpl	%ebp, %ebx
	jne	.L227
.LVL613:
.L168:
	.loc 1 191 0
	testl	%r15d, %r15d
	je	.L180
.LVL614:
.LBB3733:
.LBB3734:
.LBB3735:
.LBB3736:
	.loc 2 67 0
	vptest	%xmm1, %xmm8
.LBE3736:
.LBE3735:
.LBB3737:
.LBB3738:
	.loc 3 1178 0
	vpsrlq	$1, %xmm1, %xmm0
.LVL615:
.LBE3738:
.LBE3737:
	.loc 1 208 0
	je	.L181
.LVL616:
.LBB3739:
.LBB3740:
	.loc 3 1250 0
	vpxor	.LC1(%rip), %xmm0, %xmm0
.LVL617:
.L181:
.LBE3740:
.LBE3739:
.LBB3741:
.LBB3742:
	.loc 2 67 0
	vptest	%xmm1, %xmm7
.LBE3742:
.LBE3741:
	.loc 1 213 0
	je	.L182
.LVL618:
.LBB3743:
.LBB3744:
	.loc 3 1250 0
	vpxor	.LC3(%rip), %xmm0, %xmm0
.LVL619:
.L182:
.LBE3744:
.LBE3743:
.LBE3734:
.LBE3733:
.LBB3745:
.LBB3746:
.LBB3747:
.LBB3748:
	.loc 2 67 0
	vptest	%xmm0, %xmm8
.LBE3748:
.LBE3747:
.LBB3749:
.LBB3750:
	.loc 3 1178 0
	vpsrlq	$1, %xmm0, %xmm13
.LVL620:
.LBE3750:
.LBE3749:
	.loc 1 208 0
	je	.L183
.LVL621:
.LBB3751:
.LBB3752:
	.loc 3 1250 0
	vpxor	.LC1(%rip), %xmm13, %xmm13
.LVL622:
.L183:
.LBE3752:
.LBE3751:
.LBB3753:
.LBB3754:
	.loc 2 67 0
	vptest	%xmm0, %xmm7
.LBE3754:
.LBE3753:
	.loc 1 213 0
	je	.L187
.LVL623:
.LBE3746:
.LBE3745:
.LBB3755:
.LBB3756:
.LBB3757:
.LBB3758:
	.loc 3 1250 0
	vpxor	.LC3(%rip), %xmm13, %xmm13
.LVL624:
.L187:
.LBE3758:
.LBE3757:
.LBE3756:
.LBE3755:
.LBB3770:
.LBB3771:
	vpxor	%xmm1, %xmm13, %xmm0
.LVL625:
.LBE3771:
.LBE3770:
.LBB3772:
.LBB3773:
	.loc 5 136 0
	vpshufb	%xmm6, %xmm0, %xmm0
.LVL626:
.LBE3773:
.LBE3772:
.LBB3774:
.LBB3775:
	.loc 3 1250 0
	vpxor	%xmm0, %xmm9, %xmm0
.LVL627:
.LBE3775:
.LBE3774:
.LBB3776:
.LBB3777:
.LBB3778:
.LBB3779:
	vpxor	48(%rsp), %xmm0, %xmm0
.LVL628:
.LBE3779:
.LBE3778:
.LBB3780:
.LBB3781:
	.loc 4 62 0
	vaesenc	%xmm5, %xmm0, %xmm0
.LVL629:
.LBE3781:
.LBE3780:
.LBB3782:
.LBB3783:
	vaesenc	%xmm4, %xmm0, %xmm0
.LVL630:
.LBE3783:
.LBE3782:
.LBB3784:
.LBB3785:
	vaesenc	%xmm3, %xmm0, %xmm0
.LVL631:
.LBE3785:
.LBE3784:
.LBB3786:
.LBB3787:
	vaesenc	%xmm2, %xmm0, %xmm0
.LVL632:
.LBE3787:
.LBE3786:
.LBB3788:
.LBB3789:
	vaesenc	%xmm12, %xmm0, %xmm0
.LVL633:
.LBE3789:
.LBE3788:
.LBB3790:
.LBB3791:
	vaesenc	%xmm11, %xmm0, %xmm0
.LVL634:
.LBE3791:
.LBE3790:
.LBB3792:
.LBB3793:
	vaesenc	%xmm10, %xmm0, %xmm0
.LVL635:
.LBE3793:
.LBE3792:
.LBB3794:
.LBB3795:
	vaesenc	(%rsp), %xmm0, %xmm0
.LVL636:
.LBE3795:
.LBE3794:
.LBB3796:
.LBB3797:
	vaesenc	16(%rsp), %xmm0, %xmm0
.LVL637:
.LBE3797:
.LBE3796:
.LBB3798:
.LBB3799:
	.loc 4 70 0
	vaesenclast	32(%rsp), %xmm0, %xmm1
.LVL638:
	vmovdqa	%xmm1, 80(%rsp)
.LVL639:
.L166:
.LBE3799:
.LBE3798:
.LBE3777:
.LBE3776:
.LBE3810:
.LBE3813:
.LBB3814:
.LBB3815:
	.loc 1 116 0
	movl	%r12d, %eax
.LBB3816:
.LBB3817:
	.loc 3 1250 0
	vmovdqa	48(%rsp), %xmm1
	movl	%r12d, %r15d
.LBE3817:
.LBE3816:
	.loc 1 116 0
	leal	30(%r12), %ebp
	addl	$15, %eax
	cmovns	%eax, %ebp
	andl	$15, %r15d
.LBB3819:
.LBB3818:
	.loc 3 1250 0
	vpxor	(%rsi), %xmm1, %xmm0
.LBE3818:
.LBE3819:
	.loc 1 121 0
	vpxor	%xmm1, %xmm1, %xmm1
.LBB3820:
.LBB3821:
.LBB3822:
.LBB3823:
	.loc 3 1250 0
	vpxor	.LC34(%rip), %xmm0, %xmm0
.LBE3823:
.LBE3822:
.LBB3824:
.LBB3825:
	.loc 4 62 0
	vaesenc	%xmm5, %xmm0, %xmm0
.LBE3825:
.LBE3824:
.LBE3821:
.LBE3820:
	.loc 1 116 0
	sarl	$4, %ebp
.LVL640:
.LBB3846:
.LBB3844:
.LBB3826:
.LBB3827:
	.loc 4 62 0
	vaesenc	%xmm4, %xmm0, %xmm0
.LVL641:
.LBE3827:
.LBE3826:
.LBB3828:
.LBB3829:
	vaesenc	%xmm3, %xmm0, %xmm0
.LVL642:
.LBE3829:
.LBE3828:
.LBE3844:
.LBE3846:
	.loc 1 124 0
	testl	%ebp, %ebp
.LBB3847:
.LBB3845:
.LBB3830:
.LBB3831:
	.loc 4 62 0
	vaesenc	%xmm2, %xmm0, %xmm0
.LVL643:
.LBE3831:
.LBE3830:
.LBB3832:
.LBB3833:
	vaesenc	%xmm12, %xmm0, %xmm0
.LVL644:
.LBE3833:
.LBE3832:
.LBB3834:
.LBB3835:
	vaesenc	%xmm11, %xmm0, %xmm0
.LVL645:
.LBE3835:
.LBE3834:
.LBB3836:
.LBB3837:
	vaesenc	%xmm10, %xmm0, %xmm0
.LVL646:
.LBE3837:
.LBE3836:
.LBB3838:
.LBB3839:
	vaesenc	(%rsp), %xmm0, %xmm0
.LVL647:
.LBE3839:
.LBE3838:
.LBB3840:
.LBB3841:
	vaesenc	16(%rsp), %xmm0, %xmm0
.LVL648:
.LBE3841:
.LBE3840:
.LBB3842:
.LBB3843:
	.loc 4 70 0
	vaesenclast	32(%rsp), %xmm0, %xmm0
.LVL649:
.LBE3843:
.LBE3842:
.LBE3845:
.LBE3847:
.LBB3848:
.LBB3849:
	.loc 5 136 0
	vpshufb	%xmm6, %xmm0, %xmm0
	vmovdqa	%xmm0, %xmm9
.LVL650:
.LBE3849:
.LBE3848:
	.loc 1 124 0
	jle	.L189
	leal	-1(%rbp), %r13d
	.loc 1 137 0
	movl	%r12d, %eax
	movl	%r12d, %r15d
	sarl	$31, %eax
	shrl	$28, %eax
	leal	(%r12,%rax), %r14d
	andl	$15, %r14d
	subl	%eax, %r14d
	andl	$15, %r15d
	jne	.L190
	vmovdqa	.LC1(%rip), %xmm14
	xorl	%eax, %eax
	.loc 1 124 0
	xorl	%edx, %edx
	vmovdqa	.LC3(%rip), %xmm13
	.loc 1 121 0
	vpxor	%xmm1, %xmm1, %xmm1
.LVL651:
	.p2align 4,,10
	.p2align 3
.L196:
.LBB3850:
.LBB3851:
.LBB3852:
.LBB3853:
	.loc 2 67 0
	vptest	%xmm0, %xmm8
.LBE3853:
.LBE3852:
.LBE3851:
.LBE3850:
.LBB3878:
.LBB3879:
	.loc 5 136 0
	vpshufb	%xmm6, %xmm0, %xmm9
.LBE3879:
.LBE3878:
.LBB3881:
.LBB3882:
	.loc 4 62 0
	vaesenc	%xmm5, %xmm9, %xmm15
.LBE3882:
.LBE3881:
.LBB3884:
.LBB3885:
	vaesenc	%xmm4, %xmm15, %xmm15
.LBE3885:
.LBE3884:
.LBB3887:
.LBB3888:
	vaesenc	%xmm3, %xmm15, %xmm15
.LBE3888:
.LBE3887:
.LBB3890:
.LBB3891:
	vaesenc	%xmm2, %xmm15, %xmm15
.LBE3891:
.LBE3890:
.LBB3893:
.LBB3894:
	vaesenc	%xmm12, %xmm15, %xmm15
.LBE3894:
.LBE3893:
.LBB3896:
.LBB3897:
	vaesenc	%xmm11, %xmm15, %xmm15
.LBE3897:
.LBE3896:
.LBB3899:
.LBB3900:
	.loc 3 1250 0
	vpxor	%xmm9, %xmm15, %xmm9
.LBE3900:
.LBE3899:
.LBB3902:
.LBB3903:
	vpxor	(%r8,%rax), %xmm9, %xmm9
.LBE3903:
.LBE3902:
.LBB3906:
.LBB3907:
	.loc 3 696 0
	vmovdqa	%xmm9, (%rcx,%rax)
.LBE3907:
.LBE3906:
.LBB3909:
.LBB3910:
	.loc 3 1250 0
	vpxor	%xmm9, %xmm15, %xmm9
.LBE3910:
.LBE3909:
.LBB3912:
.LBB3913:
	.loc 4 62 0
	vaesenc	%xmm10, %xmm9, %xmm9
.LBE3913:
.LBE3912:
.LBB3915:
.LBB3916:
	vaesenc	(%rsp), %xmm9, %xmm9
.LBE3916:
.LBE3915:
.LBB3918:
.LBB3919:
	vaesenc	16(%rsp), %xmm9, %xmm9
.LBE3919:
.LBE3918:
.LBB3921:
.LBB3922:
	vaesenc	32(%rsp), %xmm9, %xmm9
.LBE3922:
.LBE3921:
.LBB3924:
.LBB3925:
	.loc 3 1250 0
	vpxor	%xmm9, %xmm1, %xmm1
.LBE3925:
.LBE3924:
.LBB3927:
.LBB3874:
.LBB3855:
.LBB3856:
	.loc 3 1178 0
	vpsrlq	$1, %xmm0, %xmm9
.LBE3856:
.LBE3855:
.LBB3858:
.LBB3859:
	.loc 3 1250 0
	vpxor	%xmm14, %xmm9, %xmm15
	je	.L192
	vmovdqa	%xmm15, %xmm9
.L192:
.LBE3859:
.LBE3858:
.LBB3862:
.LBB3863:
	.loc 2 67 0
	vptest	%xmm0, %xmm7
.LBE3863:
.LBE3862:
.LBB3865:
.LBB3866:
	.loc 3 1250 0
	vpxor	%xmm13, %xmm9, %xmm15
	vmovdqa	%xmm9, %xmm0
	je	.L194
	vmovdqa	%xmm15, %xmm0
.L194:
.LVL652:
.LBE3866:
.LBE3865:
.LBE3874:
.LBE3927:
	.loc 1 124 0
	addl	$1, %edx
.LVL653:
	addq	$16, %rax
	cmpl	%ebp, %edx
	jne	.L196
.LVL654:
.L214:
	.loc 1 154 0
	testl	%r12d, %r12d
	je	.L202
.LVL655:
.LBB3928:
.LBB3929:
.LBB3930:
.LBB3931:
	.loc 2 67 0
	vptest	%xmm0, %xmm8
.LBE3931:
.LBE3930:
.LBB3932:
.LBB3933:
	.loc 3 1178 0
	vpsrlq	$1, %xmm0, %xmm13
.LVL656:
.LBE3933:
.LBE3932:
	.loc 1 208 0
	je	.L209
.LVL657:
.LBB3934:
.LBB3935:
	.loc 3 1250 0
	vpxor	.LC1(%rip), %xmm13, %xmm13
.LVL658:
.L209:
.LBE3935:
.LBE3934:
.LBB3936:
.LBB3937:
	.loc 2 67 0
	vptest	%xmm0, %xmm7
.LBE3937:
.LBE3936:
	.loc 1 213 0
	je	.L210
.LVL659:
.LBB3938:
.LBB3939:
	.loc 3 1250 0
	vpxor	.LC3(%rip), %xmm13, %xmm13
.LVL660:
	.p2align 4,,10
	.p2align 3
.L210:
.LBE3939:
.LBE3938:
.LBE3929:
.LBE3928:
.LBB3943:
.LBB3944:
	vpxor	%xmm0, %xmm13, %xmm0
.LVL661:
.LBE3944:
.LBE3943:
.LBB3945:
.LBB3946:
	.loc 5 136 0
	vpshufb	%xmm6, %xmm0, %xmm0
.LVL662:
.LBE3946:
.LBE3945:
.LBB3947:
.LBB3948:
	.loc 3 1250 0
	vpxor	%xmm0, %xmm1, %xmm0
.LVL663:
.LBE3948:
.LBE3947:
.LBB3949:
.LBB3950:
.LBB3951:
.LBB3952:
	vpxor	48(%rsp), %xmm0, %xmm0
.LVL664:
.LBE3952:
.LBE3951:
.LBB3953:
.LBB3954:
	.loc 4 62 0
	vaesenc	%xmm5, %xmm0, %xmm0
.LVL665:
.LBE3954:
.LBE3953:
.LBB3955:
.LBB3956:
	vaesenc	%xmm4, %xmm0, %xmm0
.LVL666:
.LBE3956:
.LBE3955:
.LBB3957:
.LBB3958:
	vaesenc	%xmm3, %xmm0, %xmm0
.LVL667:
.LBE3958:
.LBE3957:
.LBB3959:
.LBB3960:
	vaesenc	%xmm2, %xmm0, %xmm0
.LVL668:
.LBE3960:
.LBE3959:
.LBB3961:
.LBB3962:
	vaesenc	%xmm12, %xmm0, %xmm0
.LVL669:
.LBE3962:
.LBE3961:
.LBB3963:
.LBB3964:
	vaesenc	%xmm11, %xmm0, %xmm0
.LVL670:
.LBE3964:
.LBE3963:
.LBB3965:
.LBB3966:
	vaesenc	%xmm10, %xmm0, %xmm0
.LVL671:
.LBE3966:
.LBE3965:
.LBB3967:
.LBB3968:
	vaesenc	(%rsp), %xmm0, %xmm0
.LVL672:
.LBE3968:
.LBE3967:
.LBB3969:
.LBB3970:
	vaesenc	16(%rsp), %xmm0, %xmm0
.LVL673:
.LBE3970:
.LBE3969:
.LBB3971:
.LBB3972:
	.loc 4 70 0
	vaesenclast	32(%rsp), %xmm0, %xmm0
.LVL674:
.LBE3972:
.LBE3971:
.LBE3950:
.LBE3949:
.LBE3815:
.LBE3814:
.LBB4018:
.LBB4019:
	.loc 2 75 0
	xorl	%eax, %eax
.LBE4019:
.LBE4018:
.LBB4021:
.LBB4022:
	.loc 3 1250 0
	vpxor	80(%rsp), %xmm0, %xmm0
.LVL675:
.LBE4022:
.LBE4021:
.LBB4023:
.LBB4024:
	.loc 3 1256 0
	vpcmpeqb	64(%rsp), %xmm0, %xmm0
.LVL676:
.LBE4024:
.LBE4023:
.LBB4025:
.LBB4026:
	.loc 3 1268 0
	vpcmpeqd	%xmm0, %xmm0, %xmm1
.LVL677:
.LBE4026:
.LBE4025:
.LBB4027:
.LBB4020:
	.loc 2 75 0
	vptest	%xmm1, %xmm0
	setb	%al
.LBE4020:
.LBE4027:
	.loc 1 53 0
	cmpl	$1, %eax
	sbbl	%eax, %eax
	.loc 1 55 0
	addq	$376, %rsp
	.cfi_remember_state
	.cfi_def_cfa_offset 56
.LVL678:
	popq	%rbx
	.cfi_def_cfa_offset 48
	.loc 1 53 0
	orl	$1, %eax
	.loc 1 55 0
	popq	%rbp
	.cfi_def_cfa_offset 40
.LVL679:
	popq	%r12
	.cfi_def_cfa_offset 32
.LVL680:
	popq	%r13
	.cfi_def_cfa_offset 24
	popq	%r14
	.cfi_def_cfa_offset 16
	popq	%r15
	.cfi_def_cfa_offset 8
	ret
.LVL681:
	.p2align 4,,10
	.p2align 3
.L225:
	.cfi_restore_state
	salq	$4, %r13
	vmovdqa	.LC0(%rip), %xmm8
.LVL682:
.LBB4028:
.LBB3811:
	.loc 1 173 0
	vpxor	%xmm9, %xmm9, %xmm9
	vmovdqa	.LC1(%rip), %xmm14
.LVL683:
	leaq	16(%rdx,%r13), %rax
	vmovdqa	.LC2(%rip), %xmm7
.LVL684:
	vmovdqa	.LC3(%rip), %xmm13
.LVL685:
	.p2align 4,,10
	.p2align 3
.L175:
.LBB3800:
.LBB3707:
.LBB3699:
.LBB3690:
	.loc 2 67 0
	vptest	%xmm1, %xmm8
.LBE3690:
.LBE3699:
.LBE3707:
.LBE3800:
.LBB3801:
.LBB3711:
	.loc 5 136 0
	vpshufb	%xmm6, %xmm1, %xmm0
.LBE3711:
.LBE3801:
.LBB3802:
.LBB3715:
	.loc 3 1250 0
	vpxor	(%rdx), %xmm0, %xmm0
.LBE3715:
.LBE3802:
.LBB3803:
.LBB3718:
	.loc 4 62 0
	vaesenc	%xmm5, %xmm0, %xmm0
.LBE3718:
.LBE3803:
.LBB3804:
.LBB3722:
	vaesenc	%xmm4, %xmm0, %xmm0
.LBE3722:
.LBE3804:
.LBB3805:
.LBB3725:
	vaesenc	%xmm3, %xmm0, %xmm0
.LBE3725:
.LBE3805:
.LBB3806:
.LBB3728:
	vaesenc	%xmm2, %xmm0, %xmm0
.LBE3728:
.LBE3806:
.LBB3807:
.LBB3731:
	.loc 3 1250 0
	vpxor	%xmm0, %xmm9, %xmm9
.LBE3731:
.LBE3807:
.LBB3808:
.LBB3708:
.LBB3700:
.LBB3693:
	.loc 3 1178 0
	vpsrlq	$1, %xmm1, %xmm0
.LBE3693:
.LBE3700:
.LBB3701:
.LBB3683:
	.loc 3 1250 0
	vpxor	%xmm14, %xmm0, %xmm15
	je	.L171
	vmovdqa	%xmm15, %xmm0
.L171:
.LBE3683:
.LBE3701:
.LBB3702:
.LBB3697:
	.loc 2 67 0
	vptest	%xmm1, %xmm7
.LBE3697:
.LBE3702:
.LBB3703:
.LBB3687:
	.loc 3 1250 0
	vpxor	%xmm13, %xmm0, %xmm15
	vmovdqa	%xmm0, %xmm1
	je	.L173
	vmovdqa	%xmm15, %xmm1
.L173:
.LVL686:
	addq	$16, %rdx
.LBE3687:
.LBE3703:
.LBE3708:
.LBE3808:
	.loc 1 176 0
	cmpq	%rax, %rdx
	jne	.L175
.LVL687:
.L180:
.LBB3809:
.LBB3769:
.LBB3760:
.LBB3761:
	.loc 2 67 0
	vptest	%xmm1, %xmm8
.LBE3761:
.LBE3760:
.LBB3762:
.LBB3763:
	.loc 3 1178 0
	vpsrlq	$1, %xmm1, %xmm13
.LVL688:
.LBE3763:
.LBE3762:
	.loc 1 208 0
	je	.L186
.LVL689:
.LBB3764:
.LBB3765:
	.loc 3 1250 0
	vpxor	.LC1(%rip), %xmm13, %xmm13
.LVL690:
.L186:
.LBE3765:
.LBE3764:
.LBB3766:
.LBB3767:
	.loc 2 67 0
	vptest	%xmm1, %xmm7
.LBE3767:
.LBE3766:
	.loc 1 213 0
	je	.L187
.LVL691:
.LBB3768:
.LBB3759:
	.loc 3 1250 0
	vpxor	.LC3(%rip), %xmm13, %xmm13
.LVL692:
	jmp	.L187
.LVL693:
	.p2align 4,,10
	.p2align 3
.L190:
.LBE3759:
.LBE3768:
.LBE3769:
.LBE3809:
.LBE3811:
.LBE4028:
.LBB4029:
.LBB4016:
	.loc 1 121 0
	vpxor	%xmm1, %xmm1, %xmm1
	.loc 1 124 0
	xorl	%ebx, %ebx
.LBB3973:
.LBB3875:
.LBB3868:
.LBB3860:
	.loc 3 1250 0
	vmovdqa	.LC1(%rip), %xmm15
	jmp	.L201
.LVL694:
	.p2align 4,,10
	.p2align 3
.L229:
.LBE3860:
.LBE3868:
.LBE3875:
.LBE3973:
	.loc 1 124 0
	vmovdqa	%xmm0, %xmm9
.LVL695:
.L201:
	.loc 1 136 0
	cmpl	%r13d, %ebx
.LBB3974:
.LBB3880:
	.loc 5 136 0
	vpshufb	%xmm6, %xmm9, %xmm14
.LVL696:
.LBE3880:
.LBE3974:
	.loc 1 135 0
	vmovdqa	(%r8), %xmm0
.LVL697:
.LBB3975:
.LBB3883:
	.loc 4 62 0
	vaesenc	%xmm5, %xmm14, %xmm13
.LVL698:
.LBE3883:
.LBE3975:
.LBB3976:
.LBB3886:
	vaesenc	%xmm4, %xmm13, %xmm13
.LVL699:
.LBE3886:
.LBE3976:
.LBB3977:
.LBB3889:
	vaesenc	%xmm3, %xmm13, %xmm13
.LVL700:
.LBE3889:
.LBE3977:
.LBB3978:
.LBB3892:
	vaesenc	%xmm2, %xmm13, %xmm13
.LVL701:
.LBE3892:
.LBE3978:
.LBB3979:
.LBB3895:
	vaesenc	%xmm12, %xmm13, %xmm13
.LVL702:
.LBE3895:
.LBE3979:
.LBB3980:
.LBB3898:
	vaesenc	%xmm11, %xmm13, %xmm13
.LVL703:
.LBE3898:
.LBE3980:
.LBB3981:
.LBB3901:
	.loc 3 1250 0
	vpxor	%xmm14, %xmm13, %xmm14
.LVL704:
.LBE3901:
.LBE3981:
	.loc 1 136 0
	je	.L228
.LVL705:
.LBB3982:
.LBB3904:
	.loc 3 1250 0
	vpxor	%xmm14, %xmm0, %xmm0
.LVL706:
.L198:
.LBE3904:
.LBE3982:
.LBB3983:
.LBB3876:
.LBB3869:
.LBB3854:
	.loc 2 67 0
	vptest	%xmm9, %xmm8
.LBE3854:
.LBE3869:
.LBE3876:
.LBE3983:
.LBB3984:
.LBB3908:
	.loc 3 696 0
	vmovdqa	%xmm0, (%rcx)
.LVL707:
.LBE3908:
.LBE3984:
.LBB3985:
.LBB3911:
	.loc 3 1250 0
	vpxor	%xmm0, %xmm13, %xmm0
.LVL708:
.LBE3911:
.LBE3985:
.LBB3986:
.LBB3914:
	.loc 4 62 0
	vaesenc	%xmm10, %xmm0, %xmm0
.LVL709:
.LBE3914:
.LBE3986:
.LBB3987:
.LBB3917:
	vaesenc	(%rsp), %xmm0, %xmm0
.LVL710:
.LBE3917:
.LBE3987:
.LBB3988:
.LBB3920:
	vaesenc	16(%rsp), %xmm0, %xmm0
.LVL711:
.LBE3920:
.LBE3988:
.LBB3989:
.LBB3923:
	vaesenc	32(%rsp), %xmm0, %xmm0
.LVL712:
.LBE3923:
.LBE3989:
.LBB3990:
.LBB3926:
	.loc 3 1250 0
	vpxor	%xmm0, %xmm1, %xmm1
.LVL713:
.LBE3926:
.LBE3990:
.LBB3991:
.LBB3877:
.LBB3870:
.LBB3857:
	.loc 3 1178 0
	vpsrlq	$1, %xmm9, %xmm0
.LVL714:
.LBE3857:
.LBE3870:
	.loc 1 208 0
	je	.L199
.LVL715:
.LBB3871:
.LBB3861:
	.loc 3 1250 0
	vpxor	%xmm15, %xmm0, %xmm0
.LVL716:
.L199:
.LBE3861:
.LBE3871:
.LBB3872:
.LBB3864:
	.loc 2 67 0
	vptest	%xmm9, %xmm7
.LBE3864:
.LBE3872:
	.loc 1 213 0
	je	.L200
.LVL717:
.LBB3873:
.LBB3867:
	.loc 3 1250 0
	vpxor	.LC3(%rip), %xmm0, %xmm0
.LVL718:
.L200:
.LBE3867:
.LBE3873:
.LBE3877:
.LBE3991:
	.loc 1 124 0
	addl	$1, %ebx
.LVL719:
	addq	$16, %r8
.LVL720:
	addq	$16, %rcx
.LVL721:
	cmpl	%ebp, %ebx
	jne	.L229
.LVL722:
.L189:
	.loc 1 154 0
	testl	%r15d, %r15d
	je	.L214
.LVL723:
.L202:
.LBB3992:
.LBB3993:
.LBB3994:
.LBB3995:
	.loc 2 67 0
	vptest	%xmm0, %xmm8
.LBE3995:
.LBE3994:
.LBB3996:
.LBB3997:
	.loc 3 1178 0
	vpsrlq	$1, %xmm0, %xmm9
.LVL724:
.LBE3997:
.LBE3996:
	.loc 1 208 0
	je	.L204
.LVL725:
.LBB3998:
.LBB3999:
	.loc 3 1250 0
	vpxor	.LC1(%rip), %xmm9, %xmm9
.LVL726:
.L204:
.LBE3999:
.LBE3998:
.LBB4000:
.LBB4001:
	.loc 2 67 0
	vptest	%xmm0, %xmm7
.LBE4001:
.LBE4000:
	.loc 1 213 0
	je	.L205
.LVL727:
.LBB4002:
.LBB4003:
	.loc 3 1250 0
	vpxor	.LC3(%rip), %xmm9, %xmm9
.LVL728:
.L205:
.LBE4003:
.LBE4002:
.LBE3993:
.LBE3992:
.LBB4004:
.LBB4005:
.LBB4006:
.LBB4007:
	.loc 2 67 0
	vptest	%xmm9, %xmm8
.LBE4007:
.LBE4006:
.LBB4008:
.LBB4009:
	.loc 3 1178 0
	vpsrlq	$1, %xmm9, %xmm13
.LVL729:
.LBE4009:
.LBE4008:
	.loc 1 208 0
	je	.L206
.LVL730:
.LBB4010:
.LBB4011:
	.loc 3 1250 0
	vpxor	.LC1(%rip), %xmm13, %xmm13
.LVL731:
.L206:
.LBE4011:
.LBE4010:
.LBB4012:
.LBB4013:
	.loc 2 67 0
	vptest	%xmm9, %xmm7
.LBE4013:
.LBE4012:
	.loc 1 213 0
	je	.L210
.LVL732:
.LBE4005:
.LBE4004:
.LBB4014:
.LBB3942:
.LBB3941:
.LBB3940:
	.loc 3 1250 0
	vpxor	.LC3(%rip), %xmm13, %xmm13
.LVL733:
	jmp	.L210
.LVL734:
	.p2align 4,,10
	.p2align 3
.L212:
.LBE3940:
.LBE3941:
.LBE3942:
.LBE4014:
.LBE4016:
.LBE4029:
	.loc 1 47 0
	vpxor	%xmm7, %xmm7, %xmm7
.LVL735:
	vmovdqa	.LC35(%rip), %xmm6
	vmovdqa	%xmm7, 80(%rsp)
	vmovdqa	.LC0(%rip), %xmm8
.LVL736:
	vmovdqa	.LC2(%rip), %xmm7
	jmp	.L166
.LVL737:
	.p2align 4,,10
	.p2align 3
.L224:
	andl	$15, %eax
.LVL738:
.LBB4030:
.LBB3812:
	.loc 1 173 0
	vpxor	%xmm9, %xmm9, %xmm9
	vmovdqa	.LC0(%rip), %xmm8
.LVL739:
	movl	%eax, %r15d
	vmovdqa	.LC2(%rip), %xmm7
.LVL740:
	jmp	.L168
.LVL741:
.L226:
	.loc 1 180 0
	movl	%r14d, %edi
	movq	%r8, 120(%rsp)
	vmovdqa	%xmm7, 352(%rsp)
	vmovdqa	%xmm8, 336(%rsp)
	vmovdqa	%xmm6, 320(%rsp)
	vmovdqa	%xmm9, 304(%rsp)
	vmovdqa	%xmm13, 288(%rsp)
	vmovdqa	%xmm10, 272(%rsp)
	vmovdqa	%xmm11, 256(%rsp)
	vmovdqa	%xmm12, 240(%rsp)
	vmovdqa	%xmm2, 224(%rsp)
	vmovdqa	%xmm3, 208(%rsp)
	vmovdqa	%xmm4, 192(%rsp)
	vmovdqa	%xmm5, 176(%rsp)
	vmovdqa	%xmm14, 160(%rsp)
	vmovdqa	%xmm15, 144(%rsp)
	vmovdqa	%xmm1, 128(%rsp)
	movq	%rcx, 112(%rsp)
	movq	%rsi, 96(%rsp)
	movq	%rdx, 80(%rsp)
	call	padd
.LVL742:
	movq	120(%rsp), %r8
	vmovdqa	352(%rsp), %xmm7
	vmovdqa	336(%rsp), %xmm8
	vmovdqa	320(%rsp), %xmm6
	vmovdqa	304(%rsp), %xmm9
	vmovdqa	288(%rsp), %xmm13
	vmovdqa	272(%rsp), %xmm10
	vmovdqa	256(%rsp), %xmm11
	vmovdqa	240(%rsp), %xmm12
	vmovdqa	224(%rsp), %xmm2
	vmovdqa	208(%rsp), %xmm3
	vmovdqa	192(%rsp), %xmm4
	vmovdqa	176(%rsp), %xmm5
	vmovdqa	160(%rsp), %xmm14
	vmovdqa	144(%rsp), %xmm15
	vmovdqa	128(%rsp), %xmm1
	movq	112(%rsp), %rcx
	movq	96(%rsp), %rsi
	movq	80(%rsp), %rdx
.LVL743:
	jmp	.L176
.LVL744:
.L228:
.LBE3812:
.LBE4030:
.LBB4031:
.LBB4017:
	.loc 1 137 0
	movl	%r14d, %edi
	movq	%r8, 120(%rsp)
	vmovdqa	%xmm7, 336(%rsp)
	vmovdqa	%xmm8, 320(%rsp)
	vmovdqa	%xmm6, 304(%rsp)
	vmovdqa	%xmm1, 288(%rsp)
	vmovdqa	%xmm9, 272(%rsp)
	vmovdqa	%xmm10, 256(%rsp)
	vmovdqa	%xmm11, 240(%rsp)
	vmovdqa	%xmm12, 224(%rsp)
	vmovdqa	%xmm2, 208(%rsp)
	vmovdqa	%xmm3, 192(%rsp)
	vmovdqa	%xmm4, 176(%rsp)
	vmovdqa	%xmm5, 160(%rsp)
	vmovdqa	%xmm15, 144(%rsp)
	movq	%rcx, 112(%rsp)
	vmovdqa	%xmm13, 96(%rsp)
	vmovdqa	%xmm14, 128(%rsp)
	call	padd
.LVL745:
	.loc 1 141 0
	movl	%r14d, %edi
.LBB4015:
.LBB3905:
	.loc 3 1250 0
	vmovdqa	128(%rsp), %xmm14
	vpxor	%xmm14, %xmm0, %xmm0
.LVL746:
.LBE3905:
.LBE4015:
	.loc 1 141 0
	call	padd
.LVL747:
	vmovdqa	96(%rsp), %xmm13
	movq	112(%rsp), %rcx
	movq	120(%rsp), %r8
	vmovdqa	144(%rsp), %xmm15
	vmovdqa	160(%rsp), %xmm5
	vmovdqa	176(%rsp), %xmm4
	vmovdqa	192(%rsp), %xmm3
	vmovdqa	208(%rsp), %xmm2
	vmovdqa	224(%rsp), %xmm12
	vmovdqa	240(%rsp), %xmm11
	vmovdqa	256(%rsp), %xmm10
	vmovdqa	272(%rsp), %xmm9
	vmovdqa	288(%rsp), %xmm1
	vmovdqa	304(%rsp), %xmm6
	vmovdqa	320(%rsp), %xmm8
	vmovdqa	336(%rsp), %xmm7
	jmp	.L198
.LBE4017:
.LBE4031:
	.cfi_endproc
.LFE654:
	.size	YAES128_DEC, .-YAES128_DEC
	.p2align 4,,15
	.globl	AES_128_ASSIST
	.type	AES_128_ASSIST, @function
AES_128_ASSIST:
.LFB660:
	.loc 1 305 0
	.cfi_startproc
.LVL748:
.LBB4032:
.LBB4033:
	.loc 3 1154 0
	vpslldq	$4, %xmm0, %xmm2
.LBE4033:
.LBE4032:
.LBB4034:
.LBB4035:
	.loc 3 1379 0
	vpshufd	$255, %xmm1, %xmm1
.LVL749:
.LBE4035:
.LBE4034:
.LBB4036:
.LBB4037:
	.loc 3 1250 0
	vpxor	%xmm2, %xmm0, %xmm0
.LVL750:
.LBE4037:
.LBE4036:
.LBB4038:
.LBB4039:
	.loc 3 1154 0
	vpslldq	$4, %xmm2, %xmm2
.LVL751:
.LBE4039:
.LBE4038:
.LBB4040:
.LBB4041:
	.loc 3 1250 0
	vpxor	%xmm2, %xmm0, %xmm0
.LVL752:
.LBE4041:
.LBE4040:
.LBB4042:
.LBB4043:
	.loc 3 1154 0
	vpslldq	$4, %xmm2, %xmm2
.LVL753:
.LBE4043:
.LBE4042:
.LBB4044:
.LBB4045:
	.loc 3 1250 0
	vpxor	%xmm2, %xmm0, %xmm0
.LVL754:
.LBE4045:
.LBE4044:
.LBB4046:
.LBB4047:
	vpxor	%xmm1, %xmm0, %xmm0
.LVL755:
.LBE4047:
.LBE4046:
	.loc 1 316 0
	ret
	.cfi_endproc
.LFE660:
	.size	AES_128_ASSIST, .-AES_128_ASSIST
	.p2align 4,,15
	.globl	AES_128_Key_Expansion
	.type	AES_128_Key_Expansion, @function
AES_128_Key_Expansion:
.LFB661:
	.loc 1 318 0
	.cfi_startproc
.LVL756:
	.loc 1 320 0
	vmovdqa	(%rdi), %xmm1
.LVL757:
.LBB4048:
.LBB4049:
.LBB4050:
.LBB4051:
	.loc 3 1154 0
	vpslldq	$4, %xmm1, %xmm2
.LBE4051:
.LBE4050:
.LBE4049:
.LBE4048:
.LBB4067:
.LBB4068:
	.loc 4 88 0
	vaeskeygenassist	$1, %xmm1, %xmm3
.LVL758:
.LBE4068:
.LBE4067:
.LBB4069:
.LBB4066:
.LBB4052:
.LBB4053:
	.loc 3 1379 0
	vpshufd	$255, %xmm3, %xmm3
.LVL759:
.LBE4053:
.LBE4052:
.LBB4054:
.LBB4055:
	.loc 3 1250 0
	vpxor	%xmm2, %xmm1, %xmm0
.LVL760:
.LBE4055:
.LBE4054:
.LBB4056:
.LBB4057:
	.loc 3 1154 0
	vpslldq	$4, %xmm2, %xmm2
.LVL761:
.LBE4057:
.LBE4056:
.LBB4058:
.LBB4059:
	.loc 3 1250 0
	vpxor	%xmm2, %xmm0, %xmm0
.LVL762:
.LBE4059:
.LBE4058:
.LBB4060:
.LBB4061:
	.loc 3 1154 0
	vpslldq	$4, %xmm2, %xmm2
.LVL763:
.LBE4061:
.LBE4060:
.LBB4062:
.LBB4063:
	.loc 3 1250 0
	vpxor	%xmm2, %xmm0, %xmm0
.LVL764:
.LBE4063:
.LBE4062:
.LBB4064:
.LBB4065:
	vpxor	%xmm3, %xmm0, %xmm0
.LVL765:
.LBE4065:
.LBE4064:
.LBE4066:
.LBE4069:
.LBB4070:
.LBB4071:
.LBB4072:
.LBB4073:
	.loc 3 1154 0
	vpslldq	$4, %xmm0, %xmm2
.LVL766:
.LBE4073:
.LBE4072:
.LBB4074:
.LBB4075:
	.loc 3 1250 0
	vpxor	%xmm2, %xmm0, %xmm1
.LVL767:
.LBE4075:
.LBE4074:
.LBB4076:
.LBB4077:
	.loc 3 1154 0
	vpslldq	$4, %xmm2, %xmm2
.LBE4077:
.LBE4076:
.LBE4071:
.LBE4070:
.LBB4089:
.LBB4090:
	.loc 4 88 0
	vaeskeygenassist	$2, %xmm0, %xmm3
.LVL768:
.LBE4090:
.LBE4089:
.LBB4091:
.LBB4088:
.LBB4078:
.LBB4079:
	.loc 3 1250 0
	vpxor	%xmm2, %xmm1, %xmm1
.LBE4079:
.LBE4078:
.LBB4080:
.LBB4081:
	.loc 3 1154 0
	vpslldq	$4, %xmm2, %xmm2
.LBE4081:
.LBE4080:
.LBB4082:
.LBB4083:
	.loc 3 1379 0
	vpshufd	$255, %xmm3, %xmm3
.LBE4083:
.LBE4082:
.LBB4084:
.LBB4085:
	.loc 3 1250 0
	vpxor	%xmm2, %xmm1, %xmm1
.LBE4085:
.LBE4084:
.LBB4086:
.LBB4087:
	vpxor	%xmm3, %xmm1, %xmm1
.LBE4087:
.LBE4086:
.LBE4088:
.LBE4091:
.LBB4092:
.LBB4093:
.LBB4094:
.LBB4095:
	.loc 3 1154 0
	vpslldq	$4, %xmm1, %xmm2
.LBE4095:
.LBE4094:
.LBE4093:
.LBE4092:
	.loc 1 321 0
	vmovdqa	%xmm0, 16(%rdi)
.LVL769:
.LBB4112:
.LBB4110:
.LBB4096:
.LBB4097:
	.loc 3 1250 0
	vpxor	%xmm2, %xmm1, %xmm0
.LVL770:
.LBE4097:
.LBE4096:
.LBB4098:
.LBB4099:
	.loc 3 1154 0
	vpslldq	$4, %xmm2, %xmm2
.LBE4099:
.LBE4098:
.LBB4100:
.LBB4101:
	.loc 3 1250 0
	vpxor	%xmm2, %xmm0, %xmm0
.LBE4101:
.LBE4100:
.LBB4102:
.LBB4103:
	.loc 3 1154 0
	vpslldq	$4, %xmm2, %xmm2
.LBE4103:
.LBE4102:
.LBE4110:
.LBE4112:
.LBB4113:
.LBB4114:
	.loc 4 88 0
	vaeskeygenassist	$4, %xmm1, %xmm3
.LVL771:
.LBE4114:
.LBE4113:
.LBB4115:
.LBB4111:
.LBB4104:
.LBB4105:
	.loc 3 1250 0
	vpxor	%xmm2, %xmm0, %xmm0
.LBE4105:
.LBE4104:
.LBB4106:
.LBB4107:
	.loc 3 1379 0
	vpshufd	$255, %xmm3, %xmm3
.LBE4107:
.LBE4106:
.LBB4108:
.LBB4109:
	.loc 3 1250 0
	vpxor	%xmm3, %xmm0, %xmm0
.LBE4109:
.LBE4108:
.LBE4111:
.LBE4115:
.LBB4116:
.LBB4117:
.LBB4118:
.LBB4119:
	.loc 3 1154 0
	vpslldq	$4, %xmm0, %xmm2
.LBE4119:
.LBE4118:
.LBE4117:
.LBE4116:
	.loc 1 323 0
	vmovdqa	%xmm1, 32(%rdi)
.LVL772:
.LBB4136:
.LBB4137:
	.loc 4 88 0
	vaeskeygenassist	$8, %xmm0, %xmm3
.LVL773:
.LBE4137:
.LBE4136:
.LBB4138:
.LBB4134:
.LBB4120:
.LBB4121:
	.loc 3 1250 0
	vpxor	%xmm2, %xmm0, %xmm1
.LVL774:
.LBE4121:
.LBE4120:
.LBB4122:
.LBB4123:
	.loc 3 1154 0
	vpslldq	$4, %xmm2, %xmm2
.LBE4123:
.LBE4122:
.LBB4124:
.LBB4125:
	.loc 3 1379 0
	vpshufd	$255, %xmm3, %xmm3
.LBE4125:
.LBE4124:
.LBB4126:
.LBB4127:
	.loc 3 1250 0
	vpxor	%xmm2, %xmm1, %xmm1
.LBE4127:
.LBE4126:
.LBB4128:
.LBB4129:
	.loc 3 1154 0
	vpslldq	$4, %xmm2, %xmm2
.LBE4129:
.LBE4128:
.LBE4134:
.LBE4138:
	.loc 1 325 0
	vmovdqa	%xmm0, 48(%rdi)
.LVL775:
.LBB4139:
.LBB4135:
.LBB4130:
.LBB4131:
	.loc 3 1250 0
	vpxor	%xmm2, %xmm1, %xmm1
.LVL776:
.LBE4131:
.LBE4130:
.LBB4132:
.LBB4133:
	vpxor	%xmm3, %xmm1, %xmm1
.LVL777:
.LBE4133:
.LBE4132:
.LBE4135:
.LBE4139:
.LBB4140:
.LBB4141:
.LBB4142:
.LBB4143:
	.loc 3 1154 0
	vpslldq	$4, %xmm1, %xmm2
.LVL778:
.LBE4143:
.LBE4142:
.LBB4144:
.LBB4145:
	.loc 3 1250 0
	vpxor	%xmm2, %xmm1, %xmm0
.LVL779:
.LBE4145:
.LBE4144:
.LBB4146:
.LBB4147:
	.loc 3 1154 0
	vpslldq	$4, %xmm2, %xmm2
.LBE4147:
.LBE4146:
.LBE4141:
.LBE4140:
.LBB4159:
.LBB4160:
	.loc 4 88 0
	vaeskeygenassist	$16, %xmm1, %xmm3
.LVL780:
.LBE4160:
.LBE4159:
.LBB4161:
.LBB4158:
.LBB4148:
.LBB4149:
	.loc 3 1250 0
	vpxor	%xmm2, %xmm0, %xmm0
.LBE4149:
.LBE4148:
.LBB4150:
.LBB4151:
	.loc 3 1154 0
	vpslldq	$4, %xmm2, %xmm2
.LBE4151:
.LBE4150:
.LBB4152:
.LBB4153:
	.loc 3 1379 0
	vpshufd	$255, %xmm3, %xmm3
.LBE4153:
.LBE4152:
.LBB4154:
.LBB4155:
	.loc 3 1250 0
	vpxor	%xmm2, %xmm0, %xmm0
.LBE4155:
.LBE4154:
.LBB4156:
.LBB4157:
	vpxor	%xmm3, %xmm0, %xmm0
.LBE4157:
.LBE4156:
.LBE4158:
.LBE4161:
.LBB4162:
.LBB4163:
.LBB4164:
.LBB4165:
	.loc 3 1154 0
	vpslldq	$4, %xmm0, %xmm2
.LBE4165:
.LBE4164:
.LBE4163:
.LBE4162:
	.loc 1 327 0
	vmovdqa	%xmm1, 64(%rdi)
.LVL781:
.LBB4182:
.LBB4180:
.LBB4166:
.LBB4167:
	.loc 3 1250 0
	vpxor	%xmm2, %xmm0, %xmm1
.LVL782:
.LBE4167:
.LBE4166:
.LBB4168:
.LBB4169:
	.loc 3 1154 0
	vpslldq	$4, %xmm2, %xmm2
.LBE4169:
.LBE4168:
.LBB4170:
.LBB4171:
	.loc 3 1250 0
	vpxor	%xmm2, %xmm1, %xmm1
.LBE4171:
.LBE4170:
.LBB4172:
.LBB4173:
	.loc 3 1154 0
	vpslldq	$4, %xmm2, %xmm2
.LBE4173:
.LBE4172:
.LBE4180:
.LBE4182:
.LBB4183:
.LBB4184:
	.loc 4 88 0
	vaeskeygenassist	$32, %xmm0, %xmm3
.LVL783:
.LBE4184:
.LBE4183:
.LBB4185:
.LBB4181:
.LBB4174:
.LBB4175:
	.loc 3 1250 0
	vpxor	%xmm2, %xmm1, %xmm1
.LBE4175:
.LBE4174:
.LBB4176:
.LBB4177:
	.loc 3 1379 0
	vpshufd	$255, %xmm3, %xmm3
.LBE4177:
.LBE4176:
.LBB4178:
.LBB4179:
	.loc 3 1250 0
	vpxor	%xmm3, %xmm1, %xmm1
.LBE4179:
.LBE4178:
.LBE4181:
.LBE4185:
.LBB4186:
.LBB4187:
.LBB4188:
.LBB4189:
	.loc 3 1154 0
	vpslldq	$4, %xmm1, %xmm2
.LBE4189:
.LBE4188:
.LBE4187:
.LBE4186:
	.loc 1 329 0
	vmovdqa	%xmm0, 80(%rdi)
.LVL784:
.LBB4206:
.LBB4207:
	.loc 4 88 0
	vaeskeygenassist	$64, %xmm1, %xmm3
.LVL785:
.LBE4207:
.LBE4206:
.LBB4208:
.LBB4204:
.LBB4190:
.LBB4191:
	.loc 3 1250 0
	vpxor	%xmm2, %xmm1, %xmm0
.LVL786:
.LBE4191:
.LBE4190:
.LBB4192:
.LBB4193:
	.loc 3 1154 0
	vpslldq	$4, %xmm2, %xmm2
.LBE4193:
.LBE4192:
.LBB4194:
.LBB4195:
	.loc 3 1379 0
	vpshufd	$255, %xmm3, %xmm3
.LBE4195:
.LBE4194:
.LBB4196:
.LBB4197:
	.loc 3 1250 0
	vpxor	%xmm2, %xmm0, %xmm0
.LBE4197:
.LBE4196:
.LBB4198:
.LBB4199:
	.loc 3 1154 0
	vpslldq	$4, %xmm2, %xmm2
.LBE4199:
.LBE4198:
.LBE4204:
.LBE4208:
	.loc 1 331 0
	vmovdqa	%xmm1, 96(%rdi)
.LVL787:
.LBB4209:
.LBB4205:
.LBB4200:
.LBB4201:
	.loc 3 1250 0
	vpxor	%xmm2, %xmm0, %xmm0
.LVL788:
.LBE4201:
.LBE4200:
.LBB4202:
.LBB4203:
	vpxor	%xmm3, %xmm0, %xmm0
.LVL789:
.LBE4203:
.LBE4202:
.LBE4205:
.LBE4209:
.LBB4210:
.LBB4211:
.LBB4212:
.LBB4213:
	.loc 3 1154 0
	vpslldq	$4, %xmm0, %xmm2
.LVL790:
.LBE4213:
.LBE4212:
.LBB4214:
.LBB4215:
	.loc 3 1250 0
	vpxor	%xmm2, %xmm0, %xmm1
.LVL791:
.LBE4215:
.LBE4214:
.LBB4216:
.LBB4217:
	.loc 3 1154 0
	vpslldq	$4, %xmm2, %xmm2
.LBE4217:
.LBE4216:
.LBE4211:
.LBE4210:
.LBB4229:
.LBB4230:
	.loc 4 88 0
	vaeskeygenassist	$128, %xmm0, %xmm3
.LVL792:
.LBE4230:
.LBE4229:
.LBB4231:
.LBB4228:
.LBB4218:
.LBB4219:
	.loc 3 1250 0
	vpxor	%xmm2, %xmm1, %xmm1
.LBE4219:
.LBE4218:
.LBB4220:
.LBB4221:
	.loc 3 1154 0
	vpslldq	$4, %xmm2, %xmm2
.LBE4221:
.LBE4220:
.LBB4222:
.LBB4223:
	.loc 3 1379 0
	vpshufd	$255, %xmm3, %xmm3
.LBE4223:
.LBE4222:
.LBB4224:
.LBB4225:
	.loc 3 1250 0
	vpxor	%xmm2, %xmm1, %xmm1
.LBE4225:
.LBE4224:
.LBB4226:
.LBB4227:
	vpxor	%xmm3, %xmm1, %xmm1
.LBE4227:
.LBE4226:
.LBE4228:
.LBE4231:
.LBB4232:
.LBB4233:
.LBB4234:
.LBB4235:
	.loc 3 1154 0
	vpslldq	$4, %xmm1, %xmm2
.LBE4235:
.LBE4234:
.LBE4233:
.LBE4232:
	.loc 1 333 0
	vmovdqa	%xmm0, 112(%rdi)
.LVL793:
.LBB4253:
.LBB4250:
.LBB4236:
.LBB4237:
	.loc 3 1250 0
	vpxor	%xmm2, %xmm1, %xmm0
.LVL794:
.LBE4237:
.LBE4236:
.LBB4238:
.LBB4239:
	.loc 3 1154 0
	vpslldq	$4, %xmm2, %xmm2
.LBE4239:
.LBE4238:
.LBB4240:
.LBB4241:
	.loc 3 1250 0
	vpxor	%xmm2, %xmm0, %xmm0
.LBE4241:
.LBE4240:
.LBB4242:
.LBB4243:
	.loc 3 1154 0
	vpslldq	$4, %xmm2, %xmm2
.LBE4243:
.LBE4242:
.LBE4250:
.LBE4253:
.LBB4254:
.LBB4255:
	.loc 4 88 0
	vaeskeygenassist	$27, %xmm1, %xmm3
.LVL795:
.LBE4255:
.LBE4254:
.LBB4256:
.LBB4251:
.LBB4244:
.LBB4245:
	.loc 3 1250 0
	vpxor	%xmm2, %xmm0, %xmm0
.LBE4245:
.LBE4244:
.LBE4251:
.LBE4256:
	.loc 1 335 0
	vmovdqa	%xmm1, 128(%rdi)
.LVL796:
.LBB4257:
.LBB4252:
.LBB4246:
.LBB4247:
	.loc 3 1379 0
	vpshufd	$255, %xmm3, %xmm3
.LVL797:
.LBE4247:
.LBE4246:
.LBB4248:
.LBB4249:
	.loc 3 1250 0
	vpxor	%xmm3, %xmm0, %xmm0
.LVL798:
.LBE4249:
.LBE4248:
.LBE4252:
.LBE4257:
.LBB4258:
.LBB4259:
.LBB4260:
.LBB4261:
	.loc 3 1154 0
	vpslldq	$4, %xmm0, %xmm1
.LVL799:
.LBE4261:
.LBE4260:
.LBE4259:
.LBE4258:
.LBB4277:
.LBB4278:
	.loc 4 88 0
	vaeskeygenassist	$54, %xmm0, %xmm2
.LVL800:
.LBE4278:
.LBE4277:
	.loc 1 337 0
	vmovdqa	%xmm0, 144(%rdi)
.LVL801:
.LBB4279:
.LBB4276:
.LBB4262:
.LBB4263:
	.loc 3 1250 0
	vpxor	%xmm1, %xmm0, %xmm0
.LVL802:
.LBE4263:
.LBE4262:
.LBB4264:
.LBB4265:
	.loc 3 1154 0
	vpslldq	$4, %xmm1, %xmm1
.LBE4265:
.LBE4264:
.LBB4266:
.LBB4267:
	.loc 3 1250 0
	vpxor	%xmm1, %xmm0, %xmm0
.LBE4267:
.LBE4266:
.LBB4268:
.LBB4269:
	.loc 3 1154 0
	vpslldq	$4, %xmm1, %xmm1
.LBE4269:
.LBE4268:
.LBB4270:
.LBB4271:
	.loc 3 1379 0
	vpshufd	$255, %xmm2, %xmm2
.LVL803:
.LBE4271:
.LBE4270:
.LBB4272:
.LBB4273:
	.loc 3 1250 0
	vpxor	%xmm1, %xmm0, %xmm1
.LVL804:
.LBE4273:
.LBE4272:
.LBB4274:
.LBB4275:
	vpxor	%xmm2, %xmm1, %xmm1
.LVL805:
.LBE4275:
.LBE4274:
.LBE4276:
.LBE4279:
	.loc 1 339 0
	vmovdqa	%xmm1, 160(%rdi)
	ret
	.cfi_endproc
.LFE661:
	.size	AES_128_Key_Expansion, .-AES_128_Key_Expansion
	.p2align 4,,15
	.globl	AES_ECB_encrypt
	.type	AES_ECB_encrypt, @function
AES_ECB_encrypt:
.LFB662:
	.loc 1 344 0
	.cfi_startproc
.LVL806:
.LBB4280:
.LBB4281:
	.loc 3 1250 0
	vpxor	(%rdi), %xmm0, %xmm0
.LVL807:
.LBE4281:
.LBE4280:
.LBB4282:
.LBB4283:
	.loc 4 62 0
	vaesenc	16(%rdi), %xmm0, %xmm0
.LVL808:
.LBE4283:
.LBE4282:
.LBB4284:
.LBB4285:
	vaesenc	32(%rdi), %xmm0, %xmm0
.LVL809:
.LBE4285:
.LBE4284:
.LBB4286:
.LBB4287:
	vaesenc	48(%rdi), %xmm0, %xmm0
.LVL810:
.LBE4287:
.LBE4286:
.LBB4288:
.LBB4289:
	vaesenc	64(%rdi), %xmm0, %xmm0
.LVL811:
.LBE4289:
.LBE4288:
.LBB4290:
.LBB4291:
	vaesenc	80(%rdi), %xmm0, %xmm0
.LVL812:
.LBE4291:
.LBE4290:
.LBB4292:
.LBB4293:
	vaesenc	96(%rdi), %xmm0, %xmm0
.LVL813:
.LBE4293:
.LBE4292:
.LBB4294:
.LBB4295:
	vaesenc	112(%rdi), %xmm0, %xmm0
.LVL814:
.LBE4295:
.LBE4294:
.LBB4296:
.LBB4297:
	vaesenc	128(%rdi), %xmm0, %xmm0
.LVL815:
.LBE4297:
.LBE4296:
.LBB4298:
.LBB4299:
	vaesenc	144(%rdi), %xmm0, %xmm0
.LVL816:
.LBE4299:
.LBE4298:
.LBB4300:
.LBB4301:
	.loc 4 70 0
	vaesenclast	160(%rdi), %xmm0, %xmm0
.LVL817:
.LBE4301:
.LBE4300:
	.loc 1 358 0
	ret
	.cfi_endproc
.LFE662:
	.size	AES_ECB_encrypt, .-AES_ECB_encrypt
	.section	.rodata.cst16,"aM",@progbits,16
	.align 16
.LC0:
	.quad	0
	.quad	1
	.align 16
.LC1:
	.quad	-9223372036854775808
	.quad	0
	.align 16
.LC2:
	.quad	1
	.quad	0
	.align 16
.LC3:
	.quad	0
	.quad	-2233785415175766016
	.align 16
.LC4:
	.byte	0
	.byte	-128
	.byte	0
	.byte	0
	.byte	0
	.byte	0
	.byte	0
	.byte	0
	.byte	0
	.byte	0
	.byte	0
	.byte	0
	.byte	0
	.byte	0
	.byte	0
	.byte	0
	.align 16
.LC5:
	.byte	0
	.byte	-1
	.byte	-1
	.byte	-1
	.byte	-1
	.byte	-1
	.byte	-1
	.byte	-1
	.byte	-1
	.byte	-1
	.byte	-1
	.byte	-1
	.byte	-1
	.byte	-1
	.byte	-1
	.byte	-1
	.align 16
.LC6:
	.byte	0
	.byte	0
	.byte	-128
	.byte	0
	.byte	0
	.byte	0
	.byte	0
	.byte	0
	.byte	0
	.byte	0
	.byte	0
	.byte	0
	.byte	0
	.byte	0
	.byte	0
	.byte	0
	.align 16
.LC7:
	.byte	0
	.byte	0
	.byte	-1
	.byte	-1
	.byte	-1
	.byte	-1
	.byte	-1
	.byte	-1
	.byte	-1
	.byte	-1
	.byte	-1
	.byte	-1
	.byte	-1
	.byte	-1
	.byte	-1
	.byte	-1
	.align 16
.LC8:
	.byte	0
	.byte	0
	.byte	0
	.byte	-128
	.byte	0
	.byte	0
	.byte	0
	.byte	0
	.byte	0
	.byte	0
	.byte	0
	.byte	0
	.byte	0
	.byte	0
	.byte	0
	.byte	0
	.align 16
.LC9:
	.byte	0
	.byte	0
	.byte	0
	.byte	-1
	.byte	-1
	.byte	-1
	.byte	-1
	.byte	-1
	.byte	-1
	.byte	-1
	.byte	-1
	.byte	-1
	.byte	-1
	.byte	-1
	.byte	-1
	.byte	-1
	.align 16
.LC10:
	.byte	0
	.byte	0
	.byte	0
	.byte	0
	.byte	-128
	.byte	0
	.byte	0
	.byte	0
	.byte	0
	.byte	0
	.byte	0
	.byte	0
	.byte	0
	.byte	0
	.byte	0
	.byte	0
	.align 16
.LC11:
	.byte	0
	.byte	0
	.byte	0
	.byte	0
	.byte	-1
	.byte	-1
	.byte	-1
	.byte	-1
	.byte	-1
	.byte	-1
	.byte	-1
	.byte	-1
	.byte	-1
	.byte	-1
	.byte	-1
	.byte	-1
	.align 16
.LC12:
	.byte	0
	.byte	0
	.byte	0
	.byte	0
	.byte	0
	.byte	-128
	.byte	0
	.byte	0
	.byte	0
	.byte	0
	.byte	0
	.byte	0
	.byte	0
	.byte	0
	.byte	0
	.byte	0
	.align 16
.LC13:
	.byte	0
	.byte	0
	.byte	0
	.byte	0
	.byte	0
	.byte	-1
	.byte	-1
	.byte	-1
	.byte	-1
	.byte	-1
	.byte	-1
	.byte	-1
	.byte	-1
	.byte	-1
	.byte	-1
	.byte	-1
	.align 16
.LC14:
	.byte	0
	.byte	0
	.byte	0
	.byte	0
	.byte	0
	.byte	0
	.byte	-128
	.byte	0
	.byte	0
	.byte	0
	.byte	0
	.byte	0
	.byte	0
	.byte	0
	.byte	0
	.byte	0
	.align 16
.LC15:
	.byte	0
	.byte	0
	.byte	0
	.byte	0
	.byte	0
	.byte	0
	.byte	-1
	.byte	-1
	.byte	-1
	.byte	-1
	.byte	-1
	.byte	-1
	.byte	-1
	.byte	-1
	.byte	-1
	.byte	-1
	.align 16
.LC16:
	.byte	0
	.byte	0
	.byte	0
	.byte	0
	.byte	0
	.byte	0
	.byte	0
	.byte	-128
	.byte	0
	.byte	0
	.byte	0
	.byte	0
	.byte	0
	.byte	0
	.byte	0
	.byte	0
	.align 16
.LC17:
	.byte	0
	.byte	0
	.byte	0
	.byte	0
	.byte	0
	.byte	0
	.byte	0
	.byte	-1
	.byte	-1
	.byte	-1
	.byte	-1
	.byte	-1
	.byte	-1
	.byte	-1
	.byte	-1
	.byte	-1
	.align 16
.LC18:
	.byte	0
	.byte	0
	.byte	0
	.byte	0
	.byte	0
	.byte	0
	.byte	0
	.byte	0
	.byte	-128
	.byte	0
	.byte	0
	.byte	0
	.byte	0
	.byte	0
	.byte	0
	.byte	0
	.align 16
.LC19:
	.byte	0
	.byte	0
	.byte	0
	.byte	0
	.byte	0
	.byte	0
	.byte	0
	.byte	0
	.byte	-1
	.byte	-1
	.byte	-1
	.byte	-1
	.byte	-1
	.byte	-1
	.byte	-1
	.byte	-1
	.align 16
.LC20:
	.byte	0
	.byte	0
	.byte	0
	.byte	0
	.byte	0
	.byte	0
	.byte	0
	.byte	0
	.byte	0
	.byte	-128
	.byte	0
	.byte	0
	.byte	0
	.byte	0
	.byte	0
	.byte	0
	.align 16
.LC21:
	.byte	0
	.byte	0
	.byte	0
	.byte	0
	.byte	0
	.byte	0
	.byte	0
	.byte	0
	.byte	0
	.byte	-1
	.byte	-1
	.byte	-1
	.byte	-1
	.byte	-1
	.byte	-1
	.byte	-1
	.align 16
.LC22:
	.byte	0
	.byte	0
	.byte	0
	.byte	0
	.byte	0
	.byte	0
	.byte	0
	.byte	0
	.byte	0
	.byte	0
	.byte	-128
	.byte	0
	.byte	0
	.byte	0
	.byte	0
	.byte	0
	.align 16
.LC23:
	.byte	0
	.byte	0
	.byte	0
	.byte	0
	.byte	0
	.byte	0
	.byte	0
	.byte	0
	.byte	0
	.byte	0
	.byte	-1
	.byte	-1
	.byte	-1
	.byte	-1
	.byte	-1
	.byte	-1
	.align 16
.LC24:
	.byte	0
	.byte	0
	.byte	0
	.byte	0
	.byte	0
	.byte	0
	.byte	0
	.byte	0
	.byte	0
	.byte	0
	.byte	0
	.byte	-128
	.byte	0
	.byte	0
	.byte	0
	.byte	0
	.align 16
.LC25:
	.byte	0
	.byte	0
	.byte	0
	.byte	0
	.byte	0
	.byte	0
	.byte	0
	.byte	0
	.byte	0
	.byte	0
	.byte	0
	.byte	-1
	.byte	-1
	.byte	-1
	.byte	-1
	.byte	-1
	.align 16
.LC26:
	.byte	0
	.byte	0
	.byte	0
	.byte	0
	.byte	0
	.byte	0
	.byte	0
	.byte	0
	.byte	0
	.byte	0
	.byte	0
	.byte	0
	.byte	-128
	.byte	0
	.byte	0
	.byte	0
	.align 16
.LC27:
	.byte	0
	.byte	0
	.byte	0
	.byte	0
	.byte	0
	.byte	0
	.byte	0
	.byte	0
	.byte	0
	.byte	0
	.byte	0
	.byte	0
	.byte	-1
	.byte	-1
	.byte	-1
	.byte	-1
	.align 16
.LC28:
	.byte	0
	.byte	0
	.byte	0
	.byte	0
	.byte	0
	.byte	0
	.byte	0
	.byte	0
	.byte	0
	.byte	0
	.byte	0
	.byte	0
	.byte	0
	.byte	-128
	.byte	0
	.byte	0
	.align 16
.LC29:
	.byte	0
	.byte	0
	.byte	0
	.byte	0
	.byte	0
	.byte	0
	.byte	0
	.byte	0
	.byte	0
	.byte	0
	.byte	0
	.byte	0
	.byte	0
	.byte	-1
	.byte	-1
	.byte	-1
	.align 16
.LC30:
	.byte	0
	.byte	0
	.byte	0
	.byte	0
	.byte	0
	.byte	0
	.byte	0
	.byte	0
	.byte	0
	.byte	0
	.byte	0
	.byte	0
	.byte	0
	.byte	0
	.byte	-128
	.byte	0
	.align 16
.LC31:
	.byte	0
	.byte	0
	.byte	0
	.byte	0
	.byte	0
	.byte	0
	.byte	0
	.byte	0
	.byte	0
	.byte	0
	.byte	0
	.byte	0
	.byte	0
	.byte	0
	.byte	-1
	.byte	-1
	.align 16
.LC32:
	.byte	0
	.byte	0
	.byte	0
	.byte	0
	.byte	0
	.byte	0
	.byte	0
	.byte	0
	.byte	0
	.byte	0
	.byte	0
	.byte	0
	.byte	0
	.byte	0
	.byte	0
	.byte	-128
	.align 16
.LC33:
	.byte	0
	.byte	0
	.byte	0
	.byte	0
	.byte	0
	.byte	0
	.byte	0
	.byte	0
	.byte	0
	.byte	0
	.byte	0
	.byte	0
	.byte	0
	.byte	0
	.byte	0
	.byte	-1
	.align 16
.LC34:
	.quad	0
	.quad	72057594037927936
	.align 16
.LC35:
	.byte	15
	.byte	14
	.byte	13
	.byte	12
	.byte	11
	.byte	10
	.byte	9
	.byte	8
	.byte	7
	.byte	6
	.byte	5
	.byte	4
	.byte	3
	.byte	2
	.byte	1
	.byte	0
	.text
.Letext0:
	.file 6 "/usr/lib/gcc/x86_64-redhat-linux/4.8.2/include/stddef.h"
	.file 7 "/usr/include/bits/types.h"
	.file 8 "/usr/include/libio.h"
	.file 9 "/usr/include/stdio.h"
	.section	.note.GNU-stack,"",@progbits
