	.arch armv7-a
	.eabi_attribute 27, 3
	.eabi_attribute 28, 1
	.fpu vfpv3-d16
	.eabi_attribute 23, 1
	.eabi_attribute 24, 1
	.eabi_attribute 25, 1
	.eabi_attribute 26, 2
	.eabi_attribute 30, 2
	.eabi_attribute 34, 1
	.eabi_attribute 18, 4
	.file	"aes-core.c"
	.text
.Ltext0:
	.cfi_sections	.debug_frame
	.align	2
	.global	aesc_keyexp
	.type	aesc_keyexp, %function
aesc_keyexp:
.LFB22:
	.file 1 "aes-core.c"
	.loc 1 194 0
	.cfi_startproc
	@ args = 0, pretend = 0, frame = 0
	@ frame_needed = 0, uses_anonymous_args = 0
.LVL0:
	stmfd	sp!, {r4, r5, r6, r7, r8, r9, lr}
	.cfi_def_cfa_offset 28
	.cfi_offset 4, -28
	.cfi_offset 5, -24
	.cfi_offset 6, -20
	.cfi_offset 7, -16
	.cfi_offset 8, -12
	.cfi_offset 9, -8
	.cfi_offset 14, -4
	add	r3, r1, #16
.LBB20:
.LBB21:
	.file 2 "/usr/include/arm-linux-gnueabihf/bits/string3.h"
	.loc 2 51 0
	ldr	lr, [r0, #12]	@ unaligned
.LBE21:
.LBE20:
	.loc 1 209 0
	movw	r8, #:lower16:.LANCHOR0
.LBB25:
.LBB22:
	.loc 2 51 0
	ldr	r6, [r0]	@ unaligned
.LBE22:
.LBE25:
	.loc 1 209 0
	movt	r8, #:upper16:.LANCHOR0
.LBB26:
.LBB23:
	.loc 2 51 0
	ldr	r4, [r0, #4]	@ unaligned
.LBE23:
.LBE26:
	.loc 1 201 0
	mov	r2, #16
.LBB27:
.LBB24:
	.loc 2 51 0
	ldr	ip, [r0, #8]	@ unaligned
	str	lr, [r1, #12]	@ unaligned
.LVL1:
	ldrb	r7, [r1, #12]	@ zero_extendqisi2
	ldrb	r5, [r1, #13]	@ zero_extendqisi2
	ldrb	lr, [r1, #14]	@ zero_extendqisi2
	ldrb	r0, [r1, #15]	@ zero_extendqisi2
.LVL2:
	str	r6, [r1]	@ unaligned
	str	r4, [r1, #4]	@ unaligned
	str	ip, [r1, #8]	@ unaligned
.LVL3:
.L3:
.LBE24:
.LBE27:
	.loc 1 207 0
	tst	r2, #15
	.loc 1 209 0
	add	r9, r8, r5
	.loc 1 210 0
	add	r6, r8, lr
	.loc 1 211 0
	add	r4, r8, r0
	.loc 1 212 0
	add	ip, r8, r7
	.loc 1 207 0
	bne	.L2
	.loc 1 209 0
	ldrb	r0, [r9, #12]	@ zero_extendqisi2
.LVL4:
	ldrb	r7, [r8, r2, lsr #4]	@ zero_extendqisi2
.LVL5:
	.loc 1 210 0
	ldrb	r5, [r6, #12]	@ zero_extendqisi2
.LVL6:
	.loc 1 209 0
	eor	r7, r7, r0
	.loc 1 211 0
	ldrb	lr, [r4, #12]	@ zero_extendqisi2
.LVL7:
	.loc 1 212 0
	ldrb	r0, [ip, #12]	@ zero_extendqisi2
.LVL8:
.L2:
	.loc 1 215 0 discriminator 2
	ldrb	ip, [r3, #-16]	@ zero_extendqisi2
	add	r3, r3, #4
	eor	r7, r7, ip
.LVL9:
	strb	r7, [r1, r2]
	.loc 1 201 0 discriminator 2
	add	r2, r2, #4
.LVL10:
	.loc 1 216 0 discriminator 2
	ldrb	r6, [r3, #-19]	@ zero_extendqisi2
	.loc 1 217 0 discriminator 2
	ldrb	r4, [r3, #-18]	@ zero_extendqisi2
	.loc 1 201 0 discriminator 2
	cmp	r2, #176
	.loc 1 218 0 discriminator 2
	ldrb	ip, [r3, #-17]	@ zero_extendqisi2
	.loc 1 216 0 discriminator 2
	eor	r5, r5, r6
.LVL11:
	.loc 1 217 0 discriminator 2
	eor	lr, lr, r4
.LVL12:
	.loc 1 216 0 discriminator 2
	strb	r5, [r3, #-3]
	.loc 1 218 0 discriminator 2
	eor	r0, r0, ip
.LVL13:
	.loc 1 217 0 discriminator 2
	strb	lr, [r3, #-2]
	.loc 1 218 0 discriminator 2
	strb	r0, [r3, #-1]
	.loc 1 201 0 discriminator 2
	bne	.L3
	.loc 1 220 0
	ldmfd	sp!, {r4, r5, r6, r7, r8, r9, pc}
	.cfi_endproc
.LFE22:
	.size	aesc_keyexp, .-aesc_keyexp
	.align	2
	.global	aes_first_addroundkey
	.type	aes_first_addroundkey, %function
aes_first_addroundkey:
.LFB23:
	.loc 1 223 0
	.cfi_startproc
	@ args = 0, pretend = 0, frame = 0
	@ frame_needed = 0, uses_anonymous_args = 0
	@ link register save eliminated.
.LVL14:
	.loc 1 229 0
	ldr	ip, [r1]
.LVL15:
	ldr	r3, [r2]
	eor	r3, r3, ip
	str	r3, [r0]
.LVL16:
	ldr	ip, [r1, #4]
	ldr	r3, [r2, #4]
	eor	r3, r3, ip
	str	r3, [r0, #4]
.LVL17:
	ldr	ip, [r1, #8]
	ldr	r3, [r2, #8]
	eor	r3, r3, ip
	str	r3, [r0, #8]
.LVL18:
	ldr	r1, [r1, #12]
.LVL19:
	ldr	r3, [r2, #12]
	eor	r3, r3, r1
	str	r3, [r0, #12]
.LVL20:
	bx	lr
	.cfi_endproc
.LFE23:
	.size	aes_first_addroundkey, .-aes_first_addroundkey
	.align	2
	.global	aes_addroundkey
	.type	aes_addroundkey, %function
aes_addroundkey:
.LFB24:
	.loc 1 233 0
	.cfi_startproc
	@ args = 0, pretend = 0, frame = 0
	@ frame_needed = 0, uses_anonymous_args = 0
.LVL21:
	.loc 1 238 0
	ldr	r2, [r1]
	ldr	r3, [r0]
	ldr	ip, [r0, #4]
	eor	r2, r2, r3
	str	r2, [r0]
.LVL22:
	ldr	r3, [r1, #4]
	.loc 1 233 0
	str	lr, [sp, #-4]!
	.cfi_def_cfa_offset 4
	.cfi_offset 14, -4
	.loc 1 238 0
	eor	r3, r3, ip
	ldr	lr, [r0, #8]
	str	r3, [r0, #4]
.LVL23:
	ldr	r2, [r1, #8]
	ldr	ip, [r0, #12]
	eor	r2, r2, lr
	str	r2, [r0, #8]
.LVL24:
	ldr	r3, [r1, #12]
	eor	r3, r3, ip
	str	r3, [r0, #12]
.LVL25:
	ldr	pc, [sp], #4
	.cfi_endproc
.LFE24:
	.size	aes_addroundkey, .-aes_addroundkey
	.align	2
	.global	aes_last_addroundkey
	.type	aes_last_addroundkey, %function
aes_last_addroundkey:
.LFB25:
	.loc 1 242 0
	.cfi_startproc
	@ args = 0, pretend = 0, frame = 0
	@ frame_needed = 0, uses_anonymous_args = 0
	@ link register save eliminated.
.LVL26:
	.loc 1 248 0
	ldr	ip, [r1]
.LVL27:
	ldr	r3, [r2]
	eor	r3, r3, ip
	str	r3, [r0]
.LVL28:
	ldr	ip, [r1, #4]
	ldr	r3, [r2, #4]
	eor	r3, r3, ip
	str	r3, [r0, #4]
.LVL29:
	ldr	ip, [r1, #8]
	ldr	r3, [r2, #8]
	eor	r3, r3, ip
	str	r3, [r0, #8]
.LVL30:
	ldr	r1, [r1, #12]
.LVL31:
	ldr	r3, [r2, #12]
	eor	r3, r3, r1
	str	r3, [r0, #12]
.LVL32:
	bx	lr
	.cfi_endproc
.LFE25:
	.size	aes_last_addroundkey, .-aes_last_addroundkey
	.align	2
	.global	aes_subbytes_shiftrows
	.type	aes_subbytes_shiftrows, %function
aes_subbytes_shiftrows:
.LFB26:
	.loc 1 252 0
	.cfi_startproc
	@ args = 0, pretend = 0, frame = 0
	@ frame_needed = 0, uses_anonymous_args = 0
.LVL33:
	stmfd	sp!, {r4, r5, r6, r7, r8, r9, r10, lr}
	.cfi_def_cfa_offset 32
	.cfi_offset 4, -32
	.cfi_offset 5, -28
	.cfi_offset 6, -24
	.cfi_offset 7, -20
	.cfi_offset 8, -16
	.cfi_offset 9, -12
	.cfi_offset 10, -8
	.cfi_offset 14, -4
	.loc 1 255 0
	movw	r3, #:lower16:.LANCHOR0
	ldrb	r10, [r0]	@ zero_extendqisi2
	movt	r3, #:upper16:.LANCHOR0
	.loc 1 256 0
	ldrb	r9, [r0, #4]	@ zero_extendqisi2
	.loc 1 257 0
	ldrb	r8, [r0, #8]	@ zero_extendqisi2
	.loc 1 255 0
	add	r10, r3, r10
	.loc 1 258 0
	ldrb	r7, [r0, #12]	@ zero_extendqisi2
	.loc 1 256 0
	add	r9, r3, r9
	.loc 1 261 0
	ldrb	r6, [r0, #5]	@ zero_extendqisi2
	.loc 1 257 0
	add	r8, r3, r8
	.loc 1 260 0
	ldrb	r5, [r0, #1]	@ zero_extendqisi2
.LVL34:
	.loc 1 258 0
	add	r7, r3, r7
	.loc 1 263 0
	ldrb	r4, [r0, #13]	@ zero_extendqisi2
	.loc 1 261 0
	add	r6, r3, r6
	.loc 1 262 0
	ldrb	lr, [r0, #9]	@ zero_extendqisi2
	.loc 1 264 0
	add	r5, r3, r5
.LVL35:
	.loc 1 267 0
	ldrb	ip, [r0, #10]	@ zero_extendqisi2
	.loc 1 263 0
	add	r4, r3, r4
	.loc 1 266 0
	ldrb	r1, [r0, #2]	@ zero_extendqisi2
.LVL36:
	.loc 1 262 0
	add	lr, r3, lr
	.loc 1 270 0
	ldrb	r2, [r0, #14]	@ zero_extendqisi2
	.loc 1 267 0
	add	ip, r3, ip
	.loc 1 268 0
	add	r1, r3, r1
.LVL37:
	.loc 1 263 0
	ldrb	r4, [r4, #12]	@ zero_extendqisi2
	.loc 1 270 0
	add	r2, r3, r2
	.loc 1 267 0
	ldrb	ip, [ip, #12]	@ zero_extendqisi2
	.loc 1 268 0
	ldrb	r1, [r1, #12]	@ zero_extendqisi2
	.loc 1 270 0
	ldrb	r2, [r2, #12]	@ zero_extendqisi2
	.loc 1 255 0
	ldrb	r10, [r10, #12]	@ zero_extendqisi2
	.loc 1 256 0
	ldrb	r9, [r9, #12]	@ zero_extendqisi2
	.loc 1 257 0
	ldrb	r8, [r8, #12]	@ zero_extendqisi2
	.loc 1 258 0
	ldrb	r7, [r7, #12]	@ zero_extendqisi2
	.loc 1 261 0
	ldrb	r6, [r6, #12]	@ zero_extendqisi2
	.loc 1 264 0
	ldrb	r5, [r5, #12]	@ zero_extendqisi2
	.loc 1 262 0
	ldrb	lr, [lr, #12]	@ zero_extendqisi2
	.loc 1 263 0
	strb	r4, [r0, #9]
	.loc 1 267 0
	strb	ip, [r0, #2]
.LVL38:
	.loc 1 268 0
	strb	r1, [r0, #10]
	.loc 1 255 0
	strb	r10, [r0]
	.loc 1 256 0
	strb	r9, [r0, #4]
	.loc 1 257 0
	strb	r8, [r0, #8]
	.loc 1 258 0
	strb	r7, [r0, #12]
	.loc 1 261 0
	strb	r6, [r0, #1]
	.loc 1 264 0
	strb	r5, [r0, #13]
	.loc 1 262 0
	strb	lr, [r0, #5]
	.loc 1 269 0
	ldrb	lr, [r0, #6]	@ zero_extendqisi2
.LVL39:
	.loc 1 274 0
	ldrb	ip, [r0, #15]	@ zero_extendqisi2
	.loc 1 273 0
	ldrb	r1, [r0, #3]	@ zero_extendqisi2
.LVL40:
	.loc 1 271 0
	add	lr, r3, lr
	.loc 1 275 0
	ldrb	r4, [r0, #11]	@ zero_extendqisi2
	.loc 1 274 0
	add	ip, r3, ip
	.loc 1 270 0
	strb	r2, [r0, #6]
	.loc 1 277 0
	add	r1, r3, r1
.LVL41:
	.loc 1 276 0
	ldrb	r2, [r0, #7]	@ zero_extendqisi2
	.loc 1 271 0
	ldrb	lr, [lr, #12]	@ zero_extendqisi2
	.loc 1 276 0
	add	r2, r3, r2
	.loc 1 275 0
	add	r3, r3, r4
	.loc 1 274 0
	ldrb	ip, [ip, #12]	@ zero_extendqisi2
	.loc 1 277 0
	ldrb	r1, [r1, #12]	@ zero_extendqisi2
	.loc 1 276 0
	ldrb	r2, [r2, #12]	@ zero_extendqisi2
	.loc 1 275 0
	ldrb	r3, [r3, #12]	@ zero_extendqisi2
	.loc 1 271 0
	strb	lr, [r0, #14]
	.loc 1 274 0
	strb	ip, [r0, #3]
.LVL42:
	.loc 1 277 0
	strb	r1, [r0, #7]
	.loc 1 276 0
	strb	r2, [r0, #11]
	.loc 1 275 0
	strb	r3, [r0, #15]
	ldmfd	sp!, {r4, r5, r6, r7, r8, r9, r10, pc}
	.cfi_endproc
.LFE26:
	.size	aes_subbytes_shiftrows, .-aes_subbytes_shiftrows
	.align	2
	.global	aes_subbyte_shiftrows_mixcols
	.type	aes_subbyte_shiftrows_mixcols, %function
aes_subbyte_shiftrows_mixcols:
.LFB27:
	.loc 1 281 0
	.cfi_startproc
	@ args = 0, pretend = 0, frame = 32
	@ frame_needed = 0, uses_anonymous_args = 0
.LVL43:
	stmfd	sp!, {r4, r5, r6, r7, r8, r9, r10, fp, lr}
	.cfi_def_cfa_offset 36
	.cfi_offset 4, -36
	.cfi_offset 5, -32
	.cfi_offset 6, -28
	.cfi_offset 7, -24
	.cfi_offset 8, -20
	.cfi_offset 9, -16
	.cfi_offset 10, -12
	.cfi_offset 11, -8
	.cfi_offset 14, -4
	.loc 1 286 0
	movw	r3, #:lower16:.LANCHOR0
	ldrb	r7, [r0]	@ zero_extendqisi2
	movt	r3, #:upper16:.LANCHOR0
	ldrb	r6, [r0, #5]	@ zero_extendqisi2
	.loc 1 281 0
	sub	sp, sp, #36
	.cfi_def_cfa_offset 72
	.loc 1 286 0
	ldrb	r5, [r0, #10]	@ zero_extendqisi2
	add	r7, r3, r7
	add	r6, r3, r6
	ldrb	r4, [r0, #15]	@ zero_extendqisi2
	add	r5, r3, r5
	ldrb	r2, [r7, #524]	@ zero_extendqisi2
	add	r4, r3, r4
	ldrb	r1, [r6, #268]	@ zero_extendqisi2
	ldrb	lr, [r5, #12]	@ zero_extendqisi2
	ldrb	r9, [r4, #12]	@ zero_extendqisi2
	eor	r2, r2, r1
	.loc 1 287 0
	ldrb	r8, [r7, #12]	@ zero_extendqisi2
	.loc 1 286 0
	eor	r2, r2, lr
.LBB30:
.LBB31:
	.loc 2 51 0
	ldrb	fp, [r0, #7]	@ zero_extendqisi2
.LBE31:
.LBE30:
	.loc 1 286 0
	eor	r2, r9, r2
	.loc 1 288 0
	ldrb	r10, [r6, #12]	@ zero_extendqisi2
	eor	r9, r9, r8
	ldrb	r6, [r6, #524]	@ zero_extendqisi2
	.loc 1 296 0
	add	fp, r3, fp
	str	fp, [sp, #16]
	.loc 1 288 0
	eor	r8, r8, r10
	ldrb	fp, [r5, #524]	@ zero_extendqisi2
	eor	r9, r9, r6
	.loc 1 287 0
	ldrb	r5, [r5, #268]	@ zero_extendqisi2
	eor	r10, r10, lr
	.loc 1 289 0
	ldrb	r7, [r7, #268]	@ zero_extendqisi2
	.loc 1 288 0
	eor	r8, r8, fp
	.loc 1 286 0
	str	r2, [sp, #20]
	.loc 1 287 0
	eor	r9, r9, r5
.LBB40:
.LBB32:
	.loc 2 51 0
	ldrb	ip, [r0, #2]	@ zero_extendqisi2
.LBE32:
.LBE40:
	.loc 1 289 0
	eor	r10, r10, r7
	.loc 1 286 0
	ldrb	r5, [sp, #20]	@ zero_extendqisi2
	.loc 1 288 0
	ldrb	r7, [r4, #268]	@ zero_extendqisi2
	.loc 1 296 0
	add	ip, r3, ip
.LBB41:
.LBB33:
	.loc 2 51 0
	ldrb	r1, [r0, #3]	@ zero_extendqisi2
	ldrb	r2, [r0, #14]	@ zero_extendqisi2
.LBE33:
.LBE41:
	.loc 1 288 0
	eor	r8, r8, r7
	.loc 1 289 0
	ldrb	r4, [r4, #524]	@ zero_extendqisi2
	.loc 1 291 0
	add	r1, r3, r1
.LBB42:
.LBB34:
	.loc 2 51 0
	ldrb	lr, [r0, #4]	@ zero_extendqisi2
.LBE34:
.LBE42:
	.loc 1 291 0
	add	r2, r3, r2
	.loc 1 296 0
	str	ip, [sp, #12]
	.loc 1 289 0
	eor	r10, r10, r4
.LBB43:
.LBB35:
	.loc 2 51 0
	ldrb	ip, [r0, #9]	@ zero_extendqisi2
.LBE35:
.LBE43:
	.loc 1 291 0
	add	lr, r3, lr
	str	r1, [sp, #8]
	str	r2, [sp, #4]
	add	ip, r3, ip
.LBB44:
.LBB36:
	.loc 2 51 0
	ldrb	r1, [r0, #8]	@ zero_extendqisi2
	ldrb	r2, [r0, #13]	@ zero_extendqisi2
.LBE36:
.LBE44:
	.loc 1 286 0
	strb	r5, [r0]
.LVL44:
	.loc 1 296 0
	add	r1, r3, r1
.LBB45:
.LBB37:
	.loc 2 51 0
	ldrb	r5, [r0, #1]	@ zero_extendqisi2
.LVL45:
.LBE37:
.LBE45:
	.loc 1 296 0
	add	r2, r3, r2
	.loc 1 287 0
	strb	r9, [r0, #1]
	.loc 1 291 0
	ldr	r4, [sp, #4]
	.loc 1 301 0
	add	r5, r3, r5
.LVL46:
.LBB46:
.LBB38:
	.loc 2 51 0
	ldrb	r6, [r0, #6]	@ zero_extendqisi2
.LVL47:
.LBE38:
.LBE46:
	.loc 1 288 0
	strb	r8, [r0, #2]
	.loc 1 301 0
	add	r8, r3, r6
	.loc 1 291 0
	ldr	r6, [sp, #8]
.LVL48:
	ldrb	r7, [r4, #12]	@ zero_extendqisi2
	.loc 1 301 0
	str	r5, [sp, #28]
	.loc 1 289 0
	strb	r10, [r0, #3]
.LBB47:
.LBB39:
	.loc 2 51 0
	ldrb	r5, [r0, #12]	@ zero_extendqisi2
	ldrb	r4, [r0, #11]	@ zero_extendqisi2
.LVL49:
.LBE39:
.LBE47:
	.loc 1 301 0
	str	r8, [sp, #24]
	.loc 1 291 0
	ldrb	r10, [lr, #524]	@ zero_extendqisi2
	.loc 1 301 0
	add	r4, r3, r4
.LVL50:
	.loc 1 291 0
	ldrb	r8, [ip, #268]	@ zero_extendqisi2
	.loc 1 301 0
	add	r3, r3, r5
	.loc 1 294 0
	ldrb	r9, [lr, #268]	@ zero_extendqisi2
	.loc 1 292 0
	ldrb	r5, [lr, #12]	@ zero_extendqisi2
.LVL51:
	.loc 1 291 0
	eor	r10, r10, r8
	.loc 1 293 0
	ldrb	lr, [ip, #12]	@ zero_extendqisi2
	.loc 1 291 0
	eor	r10, r10, r7
	ldrb	r6, [r6, #12]	@ zero_extendqisi2
	ldrb	r8, [ip, #524]	@ zero_extendqisi2
	eor	ip, r6, r10
	eor	r6, r6, r5
	.loc 1 293 0
	eor	r5, r5, lr
	eor	lr, lr, r7
	.loc 1 294 0
	eor	lr, lr, r9
	.loc 1 292 0
	ldr	r9, [sp, #4]
	.loc 1 296 0
	ldr	r10, [sp, #12]
	eor	r6, r6, r8
	.loc 1 291 0
	strb	ip, [r0, #4]
	.loc 1 292 0
	ldrb	r8, [r9, #268]	@ zero_extendqisi2
	.loc 1 293 0
	ldrb	ip, [r9, #524]	@ zero_extendqisi2
	.loc 1 296 0
	ldr	fp, [sp, #16]
	.loc 1 292 0
	eor	r6, r6, r8
	.loc 1 296 0
	ldrb	r7, [r2, #268]	@ zero_extendqisi2
	.loc 1 293 0
	eor	r5, r5, ip
	.loc 1 294 0
	str	lr, [sp, #20]
	.loc 1 296 0
	ldrb	lr, [r1, #524]	@ zero_extendqisi2
	.loc 1 298 0
	ldrb	r8, [r2, #12]	@ zero_extendqisi2
	.loc 1 296 0
	ldrb	r10, [r10, #12]	@ zero_extendqisi2
	eor	r7, r7, lr
	.loc 1 298 0
	ldr	ip, [sp, #12]
	.loc 1 297 0
	ldrb	r9, [r1, #12]	@ zero_extendqisi2
	.loc 1 296 0
	eor	r7, r7, r10
	.loc 1 299 0
	ldrb	r1, [r1, #268]	@ zero_extendqisi2
	eor	r10, r10, r8
	.loc 1 296 0
	ldrb	fp, [fp, #12]	@ zero_extendqisi2
	ldrb	r2, [r2, #524]	@ zero_extendqisi2
	.loc 1 299 0
	eor	r10, r10, r1
	.loc 1 298 0
	ldrb	lr, [ip, #524]	@ zero_extendqisi2
	.loc 1 296 0
	eor	r7, r7, fp
	.loc 1 293 0
	ldr	r1, [sp, #8]
	eor	fp, fp, r9
	eor	fp, fp, r2
	.loc 1 298 0
	ldr	r2, [sp, #16]
	eor	r9, r9, r8
	.loc 1 297 0
	ldrb	ip, [ip, #268]	@ zero_extendqisi2
	.loc 1 293 0
	ldrb	r8, [r1, #268]	@ zero_extendqisi2
	.loc 1 298 0
	eor	r9, r9, lr
	.loc 1 292 0
	strb	r6, [r0, #5]
.LVL52:
	.loc 1 297 0
	eor	fp, fp, ip
	.loc 1 301 0
	ldr	r6, [sp, #28]
	.loc 1 293 0
	eor	r5, r5, r8
	.loc 1 298 0
	ldrb	lr, [r2, #268]	@ zero_extendqisi2
	.loc 1 301 0
	ldr	r8, [sp, #24]
	.loc 1 299 0
	ldrb	r2, [r2, #524]	@ zero_extendqisi2
	.loc 1 298 0
	eor	r9, r9, lr
	.loc 1 294 0
	ldrb	r1, [r1, #524]	@ zero_extendqisi2
	ldr	ip, [sp, #20]
	.loc 1 299 0
	eor	r10, r10, r2
	.loc 1 293 0
	strb	r5, [r0, #6]
.LVL53:
	.loc 1 301 0
	ldrb	r2, [r3, #524]	@ zero_extendqisi2
	.loc 1 294 0
	eor	ip, ip, r1
	.loc 1 301 0
	ldrb	r5, [r6, #268]	@ zero_extendqisi2
	.loc 1 302 0
	ldrb	lr, [r3, #12]	@ zero_extendqisi2
	.loc 1 303 0
	ldrb	r1, [r6, #12]	@ zero_extendqisi2
	.loc 1 301 0
	eor	r2, r2, r5
	.loc 1 294 0
	strb	ip, [r0, #7]
	.loc 1 296 0
	strb	r7, [r0, #8]
.LVL54:
	.loc 1 301 0
	ldrb	ip, [r8, #12]	@ zero_extendqisi2
	ldrb	r7, [r4, #12]	@ zero_extendqisi2
	.loc 1 304 0
	ldrb	r5, [r3, #268]	@ zero_extendqisi2
	.loc 1 301 0
	eor	r2, r2, ip
	.loc 1 299 0
	strb	r10, [r0, #11]
.LVL55:
	.loc 1 303 0
	eor	r3, r1, lr
	ldrb	r10, [r6, #524]	@ zero_extendqisi2
	eor	r1, r1, ip
	ldrb	r6, [r8, #524]	@ zero_extendqisi2
	.loc 1 304 0
	eor	r1, r1, r5
	.loc 1 298 0
	strb	r9, [r0, #10]
.LVL56:
	eor	r9, lr, r7
	.loc 1 304 0
	ldrb	ip, [r4, #524]	@ zero_extendqisi2
	eor	r9, r9, r10
	.loc 1 303 0
	ldrb	lr, [r4, #268]	@ zero_extendqisi2
	eor	r3, r3, r6
	.loc 1 302 0
	ldrb	r8, [r8, #268]	@ zero_extendqisi2
	.loc 1 301 0
	eor	r2, r2, r7
	.loc 1 297 0
	strb	fp, [r0, #9]
	.loc 1 303 0
	eor	r3, r3, lr
	.loc 1 302 0
	eor	r8, r8, r9
	.loc 1 301 0
	strb	r2, [r0, #12]
.LVL57:
	.loc 1 302 0
	strb	r8, [r0, #13]
.LVL58:
	.loc 1 304 0
	eor	r1, r1, ip
	.loc 1 303 0
	strb	r3, [r0, #14]
	.loc 1 304 0
	strb	r1, [r0, #15]
.LVL59:
	.loc 1 305 0
	add	sp, sp, #36
	.cfi_def_cfa_offset 36
	@ sp needed
	ldmfd	sp!, {r4, r5, r6, r7, r8, r9, r10, fp, pc}
	.cfi_endproc
.LFE27:
	.size	aes_subbyte_shiftrows_mixcols, .-aes_subbyte_shiftrows_mixcols
	.align	2
	.global	aesc_encrypt
	.type	aesc_encrypt, %function
aesc_encrypt:
.LFB28:
	.loc 1 308 0
	.cfi_startproc
	@ args = 0, pretend = 0, frame = 72
	@ frame_needed = 0, uses_anonymous_args = 0
.LVL60:
	stmfd	sp!, {r4, r5, r6, r7, r8, r9, r10, fp, lr}
	.cfi_def_cfa_offset 36
	.cfi_offset 4, -36
	.cfi_offset 5, -32
	.cfi_offset 6, -28
	.cfi_offset 7, -24
	.cfi_offset 8, -20
	.cfi_offset 9, -16
	.cfi_offset 10, -12
	.cfi_offset 11, -8
	.cfi_offset 14, -4
	movw	r3, #:lower16:__stack_chk_guard
	sub	sp, sp, #76
	.cfi_def_cfa_offset 112
	.loc 1 308 0
	mov	r5, r2
	movt	r3, #:upper16:__stack_chk_guard
.LBB60:
.LBB61:
	.loc 1 229 0
	ldr	lr, [r0]
.LBE61:
.LBE60:
	.loc 1 308 0
	ldr	ip, [r3]
	movw	r9, #:lower16:.LANCHOR0
	str	r3, [sp, #44]
	movt	r9, #:upper16:.LANCHOR0
.LBB64:
.LBB62:
	.loc 1 229 0
	ldr	r3, [r5, #4]
.LBE62:
.LBE64:
	.loc 1 308 0
	str	r2, [sp, #40]
	add	r2, r5, #144
.LVL61:
	str	r1, [sp, #36]
	str	r2, [sp, #28]
.LBB65:
.LBB63:
	.loc 1 229 0
	ldr	r1, [r0, #4]
.LVL62:
	ldr	r2, [r5]
	ldr	r4, [r0, #8]
	eor	r1, r1, r3
	eor	lr, lr, r2
	ldr	r0, [r0, #12]
.LVL63:
	ldr	r2, [r5, #8]
	ldr	r3, [r5, #12]
	eor	r2, r2, r4
	str	r5, [sp, #12]
	eor	r3, r3, r0
	str	lr, [sp, #52]
	str	r1, [sp, #56]
	str	r2, [sp, #60]
	str	r3, [sp, #64]
.LBE63:
.LBE65:
	.loc 1 308 0
	str	ip, [sp, #68]
.LVL64:
.L16:
.LBB66:
.LBB67:
	.loc 1 286 0
	ldrb	lr, [sp, #52]	@ zero_extendqisi2
	movw	r3, #:lower16:.LANCHOR0
	ldrb	ip, [sp, #57]	@ zero_extendqisi2
	movt	r3, #:upper16:.LANCHOR0
	ldrb	r6, [sp, #62]	@ zero_extendqisi2
	add	lr, r9, lr
	add	ip, r9, ip
	ldrb	r5, [sp, #67]	@ zero_extendqisi2
	add	r6, r9, r6
	str	r3, [sp, #32]
	add	r5, r9, r5
	ldrb	r2, [ip, #268]	@ zero_extendqisi2
	ldrb	r3, [lr, #524]	@ zero_extendqisi2
	ldrb	r1, [r6, #12]	@ zero_extendqisi2
.LBB68:
.LBB69:
	.loc 2 51 0
	ldrb	r4, [sp, #61]	@ zero_extendqisi2
.LBE69:
.LBE68:
	.loc 1 286 0
	eor	r3, r3, r2
.LBB80:
.LBB70:
	.loc 2 51 0
	ldrb	fp, [sp, #59]	@ zero_extendqisi2
.LBE70:
.LBE80:
	.loc 1 286 0
	eor	r3, r3, r1
	ldrb	r10, [r5, #12]	@ zero_extendqisi2
	.loc 1 287 0
	ldrb	r7, [lr, #12]	@ zero_extendqisi2
	.loc 1 296 0
	add	fp, r9, fp
	.loc 1 288 0
	ldrb	r8, [ip, #12]	@ zero_extendqisi2
	.loc 1 286 0
	eor	r3, r10, r3
	.loc 1 296 0
	str	fp, [sp, #4]
	eor	r10, r10, r7
	ldrb	fp, [ip, #524]	@ zero_extendqisi2
	.loc 1 291 0
	add	ip, r9, r4
	.loc 1 288 0
	ldrb	r4, [r6, #524]	@ zero_extendqisi2
	eor	r7, r7, r8
	.loc 1 289 0
	ldrb	lr, [lr, #268]	@ zero_extendqisi2
	eor	r8, r8, r1
	.loc 1 286 0
	str	r3, [sp, #16]
	.loc 1 288 0
	eor	r7, r7, r4
	.loc 1 286 0
	ldrb	r4, [sp, #16]	@ zero_extendqisi2
	eor	r10, r10, fp
	.loc 1 287 0
	ldrb	r6, [r6, #268]	@ zero_extendqisi2
	.loc 1 289 0
	eor	r8, r8, lr
	.loc 1 288 0
	ldrb	fp, [r5, #268]	@ zero_extendqisi2
	.loc 1 289 0
	ldrb	lr, [r5, #524]	@ zero_extendqisi2
	.loc 1 287 0
	eor	r10, r10, r6
.LBB81:
.LBB71:
	.loc 2 51 0
	ldrb	r5, [sp, #53]	@ zero_extendqisi2
.LBE71:
.LBE81:
	.loc 1 288 0
	eor	r7, r7, fp
.LBB82:
.LBB72:
	.loc 2 51 0
	ldrb	r2, [sp, #54]	@ zero_extendqisi2
.LBE72:
.LBE82:
	.loc 1 289 0
	eor	r8, r8, lr
.LBB83:
.LBB73:
	.loc 2 51 0
	ldrb	r3, [sp, #55]	@ zero_extendqisi2
.LBE73:
.LBE83:
	.loc 1 301 0
	add	lr, r9, r5
.LBB84:
.LBB74:
	.loc 2 51 0
	ldrb	r0, [sp, #66]	@ zero_extendqisi2
.LBE74:
.LBE84:
	.loc 1 296 0
	add	r2, r9, r2
.LBB85:
.LBB75:
	.loc 2 51 0
	ldrb	r1, [sp, #56]	@ zero_extendqisi2
.LBE75:
.LBE85:
	.loc 1 291 0
	add	r3, r9, r3
	.loc 1 296 0
	str	r2, [sp, #8]
	.loc 1 291 0
	add	r0, r9, r0
	str	r3, [sp]
	add	r1, r9, r1
.LBB86:
.LBB76:
	.loc 2 51 0
	ldrb	r3, [sp, #60]	@ zero_extendqisi2
	ldrb	r2, [sp, #65]	@ zero_extendqisi2
.LVL65:
.LBE76:
.LBE86:
	.loc 1 286 0
	strb	r4, [sp, #52]
.LVL66:
	.loc 1 296 0
	add	r3, r9, r3
	.loc 1 287 0
	strb	r10, [sp, #53]
	.loc 1 296 0
	add	r2, r9, r2
	.loc 1 288 0
	strb	r7, [sp, #54]
.LBB87:
.LBB77:
	.loc 2 51 0
	ldrb	r5, [sp, #58]	@ zero_extendqisi2
.LVL67:
.LBE77:
.LBE87:
	.loc 1 292 0
	ldrb	fp, [r1, #12]	@ zero_extendqisi2
	.loc 1 301 0
	add	r7, r9, r5
	.loc 1 291 0
	ldr	r5, [sp]
.LVL68:
	.loc 1 301 0
	str	r7, [sp, #16]
.LBB88:
.LBB78:
	.loc 2 51 0
	ldrb	r4, [sp, #63]	@ zero_extendqisi2
.LVL69:
.LBE78:
.LBE88:
	.loc 1 291 0
	ldrb	r7, [r5, #12]	@ zero_extendqisi2
	ldrb	r5, [ip, #524]	@ zero_extendqisi2
	.loc 1 301 0
	add	r4, r9, r4
.LVL70:
	eor	r6, fp, r7
	str	r4, [sp, #20]
	eor	r6, r6, r5
	.loc 1 292 0
	ldrb	r5, [r0, #268]	@ zero_extendqisi2
	.loc 1 293 0
	ldrb	r4, [ip, #12]	@ zero_extendqisi2
	.loc 1 292 0
	eor	r5, r5, r6
	.loc 1 289 0
	strb	r8, [sp, #55]
.LVL71:
	.loc 1 296 0
	ldr	r6, [sp, #8]
	.loc 1 291 0
	ldrb	r8, [r0, #12]	@ zero_extendqisi2
	ldrb	r10, [ip, #268]	@ zero_extendqisi2
	.loc 1 293 0
	eor	ip, r4, fp
	ldrb	fp, [r0, #524]	@ zero_extendqisi2
	eor	r4, r4, r8
	.loc 1 291 0
	ldrb	r0, [r1, #524]	@ zero_extendqisi2
	.loc 1 294 0
	ldrb	r1, [r1, #268]	@ zero_extendqisi2
	.loc 1 293 0
	eor	ip, ip, fp
	.loc 1 291 0
	eor	r0, r0, r10
	.loc 1 296 0
	ldrb	fp, [r6, #12]	@ zero_extendqisi2
	ldrb	r10, [r2, #524]	@ zero_extendqisi2
	.loc 1 294 0
	eor	r4, r4, r1
	.loc 1 298 0
	ldrb	r6, [r2, #12]	@ zero_extendqisi2
	.loc 1 291 0
	eor	r0, r0, r8
	.loc 1 296 0
	ldrb	r1, [r2, #268]	@ zero_extendqisi2
	.loc 1 291 0
	eor	r7, r7, r0
	.loc 1 296 0
	ldrb	r2, [r3, #524]	@ zero_extendqisi2
	eor	r0, r6, fp
	.loc 1 292 0
	strb	r5, [sp, #57]
.LVL72:
	.loc 1 293 0
	ldr	r5, [sp]
	.loc 1 296 0
	eor	r2, r2, r1
	.loc 1 299 0
	ldrb	r8, [r3, #268]	@ zero_extendqisi2
	.loc 1 296 0
	eor	r2, r2, fp
	.loc 1 297 0
	ldrb	r1, [r3, #12]	@ zero_extendqisi2
	.loc 1 296 0
	ldr	fp, [sp, #4]
	.loc 1 299 0
	eor	r0, r0, r8
	.loc 1 294 0
	ldr	r3, [sp]
	.loc 1 298 0
	eor	r6, r6, r1
	.loc 1 293 0
	ldrb	r5, [r5, #268]	@ zero_extendqisi2
	.loc 1 301 0
	str	lr, [sp, #24]
	.loc 1 293 0
	eor	ip, ip, r5
	.loc 1 294 0
	ldrb	r3, [r3, #524]	@ zero_extendqisi2
	.loc 1 296 0
	ldrb	r5, [fp, #12]	@ zero_extendqisi2
.LBB89:
.LBB79:
	.loc 2 51 0
	ldrb	lr, [sp, #64]	@ zero_extendqisi2
.LVL73:
.LBE79:
.LBE89:
	.loc 1 294 0
	eor	r4, r4, r3
	.loc 1 298 0
	ldr	r8, [sp, #8]
	eor	r1, r1, r5
	eor	r1, r1, r10
	.loc 1 299 0
	ldr	r10, [sp, #4]
	.loc 1 301 0
	add	lr, r9, lr
.LVL74:
	.loc 1 291 0
	strb	r7, [sp, #56]
	.loc 1 298 0
	ldrb	fp, [r8, #524]	@ zero_extendqisi2
	.loc 1 296 0
	eor	r2, r2, r5
	.loc 1 297 0
	ldrb	r8, [r8, #268]	@ zero_extendqisi2
	.loc 1 298 0
	eor	r6, r6, fp
	ldr	fp, [sp, #4]
	.loc 1 301 0
	ldr	r7, [sp, #16]
	.loc 1 297 0
	eor	r1, r1, r8
	.loc 1 299 0
	ldrb	r10, [r10, #524]	@ zero_extendqisi2
	.loc 1 298 0
	ldrb	fp, [fp, #268]	@ zero_extendqisi2
	.loc 1 301 0
	ldr	r8, [sp, #20]
	.loc 1 299 0
	eor	r0, r0, r10
	.loc 1 298 0
	eor	r6, r6, fp
	strb	r6, [sp, #62]
.LVL75:
	.loc 1 301 0
	ldr	r6, [sp, #24]
	ldrb	r3, [lr, #524]	@ zero_extendqisi2
	.loc 1 299 0
	strb	r0, [sp, #63]
.LVL76:
	.loc 1 301 0
	ldrb	r0, [r6, #268]	@ zero_extendqisi2
	.loc 1 293 0
	strb	ip, [sp, #58]
.LVL77:
	.loc 1 294 0
	strb	r4, [sp, #59]
	.loc 1 301 0
	eor	r3, r3, r0
	ldrb	r4, [r7, #12]	@ zero_extendqisi2
	ldrb	ip, [r8, #12]	@ zero_extendqisi2
	.loc 1 296 0
	strb	r2, [sp, #60]
.LVL78:
	.loc 1 301 0
	eor	r3, r3, r4
	.loc 1 303 0
	ldrb	r2, [r6, #12]	@ zero_extendqisi2
	.loc 1 301 0
	eor	r3, r3, ip
	.loc 1 297 0
	strb	r1, [sp, #61]
	.loc 1 302 0
	ldrb	r1, [lr, #12]	@ zero_extendqisi2
	.loc 1 303 0
	ldrb	r0, [r7, #524]	@ zero_extendqisi2
	.loc 1 304 0
	ldrb	lr, [lr, #268]	@ zero_extendqisi2
	eor	r5, r1, ip
	ldrb	r6, [r6, #524]	@ zero_extendqisi2
	.loc 1 303 0
	eor	r1, r1, r2
	eor	r2, r2, r4
	mov	r4, r8
	.loc 1 304 0
	ldrb	r10, [r4, #524]	@ zero_extendqisi2
	.loc 1 303 0
	eor	r1, r1, r0
	.loc 1 302 0
	ldrb	r7, [r7, #268]	@ zero_extendqisi2
	.loc 1 304 0
	eor	r2, r2, lr
	.loc 1 303 0
	ldrb	r8, [r8, #268]	@ zero_extendqisi2
	eor	r5, r5, r6
	.loc 1 301 0
	strb	r3, [sp, #64]
.LVL79:
	.loc 1 304 0
	eor	r2, r2, r10
	.loc 1 303 0
	eor	r8, r8, r1
	.loc 1 304 0
	strb	r2, [sp, #67]
.LVL80:
	.loc 1 302 0
	eor	r5, r5, r7
	.loc 1 303 0
	strb	r8, [sp, #66]
	.loc 1 302 0
	strb	r5, [sp, #65]
.LVL81:
.LBE67:
.LBE66:
.LBB90:
.LBB91:
	.loc 1 238 0
	ldr	ip, [sp, #12]
.LBE91:
.LBE90:
	.loc 1 315 0
	ldr	r4, [sp, #28]
.LBB94:
.LBB92:
	.loc 1 238 0
	add	r1, ip, #16
	add	ip, ip, #16
	ldr	r0, [ip, #12]
	ldmia	r1, {r1, r2, r3}
	mov	lr, ip
	str	ip, [sp, #12]
.LBE92:
.LBE94:
	.loc 1 315 0
	cmp	lr, r4
.LBB95:
.LBB93:
	.loc 1 238 0
	ldr	ip, [sp, #64]
	ldr	r4, [sp, #52]
	ldr	lr, [sp, #56]
	eor	r0, r0, ip
	ldr	ip, [sp, #60]
	eor	r1, r1, r4
	eor	r2, r2, lr
	str	r0, [sp, #64]
	eor	r3, r3, ip
	str	r1, [sp, #52]
.LVL82:
	str	r2, [sp, #56]
.LVL83:
	str	r3, [sp, #60]
.LVL84:
.LBE93:
.LBE95:
	.loc 1 315 0
	bne	.L16
.LVL85:
.LBB96:
.LBB97:
	.loc 1 255 0
	ldr	r9, [sp, #32]
	ldrb	r8, [sp, #52]	@ zero_extendqisi2
	.loc 1 256 0
	ldrb	r7, [sp, #56]	@ zero_extendqisi2
	.loc 1 257 0
	ldrb	r6, [sp, #60]	@ zero_extendqisi2
	.loc 1 255 0
	add	r8, r9, r8
	.loc 1 258 0
	ldrb	r5, [sp, #64]	@ zero_extendqisi2
	.loc 1 256 0
	add	r7, r9, r7
	.loc 1 260 0
	ldrb	r4, [sp, #53]	@ zero_extendqisi2
.LVL86:
	.loc 1 257 0
	add	r6, r9, r6
	.loc 1 263 0
	ldrb	lr, [sp, #65]	@ zero_extendqisi2
	.loc 1 258 0
	add	r5, r9, r5
	.loc 1 262 0
	ldrb	ip, [sp, #61]	@ zero_extendqisi2
	.loc 1 264 0
	add	r4, r9, r4
.LVL87:
	.loc 1 261 0
	ldrb	r0, [sp, #57]	@ zero_extendqisi2
	.loc 1 263 0
	add	lr, r9, lr
	.loc 1 266 0
	ldrb	r1, [sp, #54]	@ zero_extendqisi2
.LVL88:
	.loc 1 262 0
	add	ip, r9, ip
	.loc 1 267 0
	ldrb	r2, [sp, #62]	@ zero_extendqisi2
	.loc 1 261 0
	add	r0, r9, r0
	.loc 1 268 0
	add	r1, r9, r1
.LVL89:
	.loc 1 270 0
	ldrb	r3, [sp, #66]	@ zero_extendqisi2
	.loc 1 267 0
	add	r2, r9, r2
	.loc 1 258 0
	ldrb	r5, [r5, #12]	@ zero_extendqisi2
	.loc 1 264 0
	ldrb	r4, [r4, #12]	@ zero_extendqisi2
	.loc 1 270 0
	add	r3, r9, r3
	.loc 1 263 0
	ldrb	lr, [lr, #12]	@ zero_extendqisi2
	.loc 1 262 0
	ldrb	ip, [ip, #12]	@ zero_extendqisi2
	.loc 1 261 0
	ldrb	r0, [r0, #12]	@ zero_extendqisi2
	.loc 1 267 0
	ldrb	r2, [r2, #12]	@ zero_extendqisi2
	.loc 1 255 0
	ldrb	r8, [r8, #12]	@ zero_extendqisi2
	.loc 1 256 0
	ldrb	r7, [r7, #12]	@ zero_extendqisi2
	.loc 1 257 0
	ldrb	r6, [r6, #12]	@ zero_extendqisi2
	.loc 1 268 0
	ldrb	r1, [r1, #12]	@ zero_extendqisi2
	.loc 1 270 0
	ldrb	r3, [r3, #12]	@ zero_extendqisi2
	.loc 1 258 0
	strb	r5, [sp, #64]
	.loc 1 264 0
	strb	r4, [sp, #65]
	.loc 1 263 0
	strb	lr, [sp, #61]
	.loc 1 262 0
	strb	ip, [sp, #57]
	.loc 1 261 0
	strb	r0, [sp, #53]
	.loc 1 267 0
	strb	r2, [sp, #54]
.LVL90:
	.loc 1 255 0
	strb	r8, [sp, #52]
	.loc 1 256 0
	strb	r7, [sp, #56]
	.loc 1 257 0
	strb	r6, [sp, #60]
	.loc 1 268 0
	strb	r1, [sp, #62]
	.loc 1 269 0
	ldrb	r1, [sp, #58]	@ zero_extendqisi2
.LVL91:
	.loc 1 274 0
	ldrb	ip, [sp, #67]	@ zero_extendqisi2
	.loc 1 273 0
	ldrb	r0, [sp, #55]	@ zero_extendqisi2
.LVL92:
	.loc 1 271 0
	add	r1, r9, r1
	.loc 1 274 0
	add	ip, r9, ip
	.loc 1 276 0
	ldrb	r2, [sp, #59]	@ zero_extendqisi2
	.loc 1 277 0
	add	r0, r9, r0
.LVL93:
	.loc 1 270 0
	strb	r3, [sp, #58]
	.loc 1 274 0
	ldrb	r4, [ip, #12]	@ zero_extendqisi2
	.loc 1 276 0
	add	r2, r9, r2
	.loc 1 277 0
	ldrb	lr, [r0, #12]	@ zero_extendqisi2
	.loc 1 275 0
	ldrb	r3, [sp, #63]	@ zero_extendqisi2
	.loc 1 274 0
	strb	r4, [sp, #55]
.LVL94:
.LBE97:
.LBE96:
.LBB106:
.LBB107:
	.loc 1 248 0
	ldr	r4, [sp, #40]
.LBE107:
.LBE106:
.LBB116:
.LBB98:
	.loc 1 275 0
	add	r3, r9, r3
.LBE98:
.LBE116:
.LBB117:
.LBB108:
	.loc 1 248 0
	ldr	r5, [sp, #36]
.LBE108:
.LBE117:
.LBB118:
.LBB99:
	.loc 1 276 0
	ldrb	ip, [r2, #12]	@ zero_extendqisi2
.LBE99:
.LBE118:
.LBB119:
.LBB109:
	.loc 1 248 0
	ldr	r0, [r4, #160]
	ldr	r2, [sp, #52]
.LBE109:
.LBE119:
.LBB120:
.LBB100:
	.loc 1 277 0
	strb	lr, [sp, #59]
.LVL95:
.LBE100:
.LBE120:
.LBB121:
.LBB110:
	.loc 1 248 0
	eor	r2, r2, r0
.LBE110:
.LBE121:
.LBB122:
.LBB101:
	.loc 1 275 0
	ldrb	r0, [r3, #12]	@ zero_extendqisi2
.LBE101:
.LBE122:
.LBB123:
.LBB111:
	.loc 1 248 0
	str	r2, [r5]
.LVL96:
	ldr	r3, [sp, #56]
	ldr	r2, [r4, #164]
.LBE111:
.LBE123:
.LBB124:
.LBB102:
	.loc 1 271 0
	ldrb	lr, [r1, #12]	@ zero_extendqisi2
.LBE102:
.LBE124:
.LBB125:
.LBB112:
	.loc 1 248 0
	eor	r2, r2, r3
	str	r2, [r5, #4]
.LVL97:
.LBE112:
.LBE125:
	.loc 1 322 0
	ldr	r2, [sp, #44]
.LBB126:
.LBB103:
	.loc 1 276 0
	strb	ip, [sp, #63]
.LBE103:
.LBE126:
	.loc 1 322 0
	ldr	r1, [sp, #68]
.LBB127:
.LBB113:
	.loc 1 248 0
	ldr	ip, [r4, #168]
.LBE113:
.LBE127:
	.loc 1 322 0
	ldr	r2, [r2]
.LBB128:
.LBB114:
	.loc 1 248 0
	ldr	r3, [sp, #60]
.LBE114:
.LBE128:
.LBB129:
.LBB104:
	.loc 1 271 0
	strb	lr, [sp, #66]
.LBE104:
.LBE129:
	.loc 1 322 0
	cmp	r1, r2
.LBB130:
.LBB105:
	.loc 1 275 0
	strb	r0, [sp, #67]
.LBE105:
.LBE130:
.LBB131:
.LBB115:
	.loc 1 248 0
	eor	r3, r3, ip
	str	r3, [r5, #8]
.LVL98:
	ldr	r3, [sp, #64]
	ldr	r2, [r4, #172]
	eor	r3, r3, r2
	str	r3, [r5, #12]
.LVL99:
.LBE115:
.LBE131:
	.loc 1 322 0
	bne	.L20
	add	sp, sp, #76
	.cfi_remember_state
	.cfi_def_cfa_offset 36
	@ sp needed
	ldmfd	sp!, {r4, r5, r6, r7, r8, r9, r10, fp, pc}
.L20:
	.cfi_restore_state
	bl	__stack_chk_fail
.LVL100:
	.cfi_endproc
.LFE28:
	.size	aesc_encrypt, .-aesc_encrypt
	.align	2
	.global	aes_isubbytes_ishiftrows
	.type	aes_isubbytes_ishiftrows, %function
aes_isubbytes_ishiftrows:
.LFB29:
	.loc 1 325 0
	.cfi_startproc
	@ args = 0, pretend = 0, frame = 0
	@ frame_needed = 0, uses_anonymous_args = 0
.LVL101:
	stmfd	sp!, {r4, r5, r6, r7, r8, r9, r10, lr}
	.cfi_def_cfa_offset 32
	.cfi_offset 4, -32
	.cfi_offset 5, -28
	.cfi_offset 6, -24
	.cfi_offset 7, -20
	.cfi_offset 8, -16
	.cfi_offset 9, -12
	.cfi_offset 10, -8
	.cfi_offset 14, -4
	.loc 1 328 0
	movw	r3, #:lower16:.LANCHOR0
	ldrb	r10, [r0]	@ zero_extendqisi2
	movt	r3, #:upper16:.LANCHOR0
	.loc 1 329 0
	ldrb	r9, [r0, #4]	@ zero_extendqisi2
	.loc 1 330 0
	ldrb	r8, [r0, #8]	@ zero_extendqisi2
	.loc 1 328 0
	add	r10, r3, r10
	.loc 1 331 0
	ldrb	r7, [r0, #12]	@ zero_extendqisi2
	.loc 1 329 0
	add	r9, r3, r9
	.loc 1 334 0
	ldrb	r6, [r0, #9]	@ zero_extendqisi2
	.loc 1 330 0
	add	r8, r3, r8
	.loc 1 333 0
	ldrb	r5, [r0, #13]	@ zero_extendqisi2
.LVL102:
	.loc 1 331 0
	add	r7, r3, r7
	.loc 1 336 0
	ldrb	r4, [r0, #1]	@ zero_extendqisi2
	.loc 1 334 0
	add	r6, r3, r6
	.loc 1 335 0
	ldrb	lr, [r0, #5]	@ zero_extendqisi2
	.loc 1 337 0
	add	r5, r3, r5
.LVL103:
	.loc 1 340 0
	ldrb	ip, [r0, #10]	@ zero_extendqisi2
	.loc 1 336 0
	add	r4, r3, r4
	.loc 1 339 0
	ldrb	r1, [r0, #2]	@ zero_extendqisi2
.LVL104:
	.loc 1 335 0
	add	lr, r3, lr
	.loc 1 343 0
	ldrb	r2, [r0, #14]	@ zero_extendqisi2
	.loc 1 340 0
	add	ip, r3, ip
	.loc 1 341 0
	add	r1, r3, r1
.LVL105:
	.loc 1 336 0
	ldrb	r4, [r4, #780]	@ zero_extendqisi2
	.loc 1 343 0
	add	r2, r3, r2
	.loc 1 340 0
	ldrb	ip, [ip, #780]	@ zero_extendqisi2
	.loc 1 341 0
	ldrb	r1, [r1, #780]	@ zero_extendqisi2
	.loc 1 343 0
	ldrb	r2, [r2, #780]	@ zero_extendqisi2
	.loc 1 328 0
	ldrb	r10, [r10, #780]	@ zero_extendqisi2
	.loc 1 329 0
	ldrb	r9, [r9, #780]	@ zero_extendqisi2
	.loc 1 330 0
	ldrb	r8, [r8, #780]	@ zero_extendqisi2
	.loc 1 331 0
	ldrb	r7, [r7, #780]	@ zero_extendqisi2
	.loc 1 334 0
	ldrb	r6, [r6, #780]	@ zero_extendqisi2
	.loc 1 337 0
	ldrb	r5, [r5, #780]	@ zero_extendqisi2
	.loc 1 335 0
	ldrb	lr, [lr, #780]	@ zero_extendqisi2
	.loc 1 336 0
	strb	r4, [r0, #5]
	.loc 1 340 0
	strb	ip, [r0, #2]
.LVL106:
	.loc 1 341 0
	strb	r1, [r0, #10]
	.loc 1 328 0
	strb	r10, [r0]
	.loc 1 329 0
	strb	r9, [r0, #4]
	.loc 1 330 0
	strb	r8, [r0, #8]
	.loc 1 331 0
	strb	r7, [r0, #12]
	.loc 1 334 0
	strb	r6, [r0, #13]
	.loc 1 337 0
	strb	r5, [r0, #1]
	.loc 1 335 0
	strb	lr, [r0, #9]
	.loc 1 342 0
	ldrb	lr, [r0, #6]	@ zero_extendqisi2
.LVL107:
	.loc 1 347 0
	ldrb	ip, [r0, #7]	@ zero_extendqisi2
	.loc 1 346 0
	ldrb	r1, [r0, #3]	@ zero_extendqisi2
.LVL108:
	.loc 1 344 0
	add	lr, r3, lr
	.loc 1 348 0
	ldrb	r4, [r0, #11]	@ zero_extendqisi2
	.loc 1 347 0
	add	ip, r3, ip
	.loc 1 343 0
	strb	r2, [r0, #6]
	.loc 1 350 0
	add	r1, r3, r1
.LVL109:
	.loc 1 349 0
	ldrb	r2, [r0, #15]	@ zero_extendqisi2
	.loc 1 344 0
	ldrb	lr, [lr, #780]	@ zero_extendqisi2
	.loc 1 349 0
	add	r2, r3, r2
	.loc 1 348 0
	add	r3, r3, r4
	.loc 1 347 0
	ldrb	ip, [ip, #780]	@ zero_extendqisi2
	.loc 1 350 0
	ldrb	r1, [r1, #780]	@ zero_extendqisi2
	.loc 1 349 0
	ldrb	r2, [r2, #780]	@ zero_extendqisi2
	.loc 1 348 0
	ldrb	r3, [r3, #780]	@ zero_extendqisi2
	.loc 1 344 0
	strb	lr, [r0, #14]
	.loc 1 347 0
	strb	ip, [r0, #3]
.LVL110:
	.loc 1 350 0
	strb	r1, [r0, #15]
	.loc 1 349 0
	strb	r2, [r0, #11]
	.loc 1 348 0
	strb	r3, [r0, #7]
	ldmfd	sp!, {r4, r5, r6, r7, r8, r9, r10, pc}
	.cfi_endproc
.LFE29:
	.size	aes_isubbytes_ishiftrows, .-aes_isubbytes_ishiftrows
	.align	2
	.global	aes_isubbyte_ishiftrows_imixcols
	.type	aes_isubbyte_ishiftrows_imixcols, %function
aes_isubbyte_ishiftrows_imixcols:
.LFB30:
	.loc 1 354 0
	.cfi_startproc
	@ args = 0, pretend = 0, frame = 32
	@ frame_needed = 0, uses_anonymous_args = 0
.LVL111:
	stmfd	sp!, {r4, r5, r6, r7, r8, r9, r10, fp, lr}
	.cfi_def_cfa_offset 36
	.cfi_offset 4, -36
	.cfi_offset 5, -32
	.cfi_offset 6, -28
	.cfi_offset 7, -24
	.cfi_offset 8, -20
	.cfi_offset 9, -16
	.cfi_offset 10, -12
	.cfi_offset 11, -8
	.cfi_offset 14, -4
	.loc 1 359 0
	movw	r3, #:lower16:.LANCHOR0
	ldrb	r6, [r0]	@ zero_extendqisi2
	movt	r3, #:upper16:.LANCHOR0
	ldrb	r7, [r0, #1]	@ zero_extendqisi2
	.loc 1 354 0
	sub	sp, sp, #36
	.cfi_def_cfa_offset 72
	.loc 1 359 0
	add	r6, r3, r6
	ldrb	r5, [r0, #2]	@ zero_extendqisi2
	add	r7, r3, r7
	ldrb	ip, [r0, #3]	@ zero_extendqisi2
	add	r5, r3, r5
	.loc 1 360 0
	ldrb	r1, [r6, #1804]	@ zero_extendqisi2
	ldrb	lr, [r7, #1292]	@ zero_extendqisi2
	.loc 1 359 0
	add	ip, r3, ip
	ldrb	r2, [r6, #1292]	@ zero_extendqisi2
	ldrb	r8, [r7, #1036]	@ zero_extendqisi2
	.loc 1 360 0
	eor	r1, r1, lr
	.loc 1 359 0
	ldrb	r9, [r5, #1548]	@ zero_extendqisi2
	.loc 1 360 0
	ldrb	lr, [r5, #1036]	@ zero_extendqisi2
	.loc 1 359 0
	eor	r8, r8, r2
	eor	r8, r8, r9
	ldrb	r9, [ip, #1804]	@ zero_extendqisi2
	.loc 1 360 0
	eor	r1, r1, lr
	ldrb	lr, [ip, #1548]	@ zero_extendqisi2
	.loc 1 361 0
	ldrb	r4, [r7, #1804]	@ zero_extendqisi2
	.loc 1 359 0
	eor	r8, r8, r9
	.loc 1 361 0
	ldrb	r2, [r6, #1548]	@ zero_extendqisi2
	.loc 1 360 0
	eor	r1, r1, lr
	add	r1, r3, r1
	.loc 1 359 0
	add	r8, r3, r8
	.loc 1 361 0
	eor	r2, r2, r4
	ldrb	r4, [r5, #1292]	@ zero_extendqisi2
	.loc 1 360 0
	ldrb	r9, [r1, #780]	@ zero_extendqisi2
	.loc 1 359 0
	ldrb	r8, [r8, #780]	@ zero_extendqisi2
	.loc 1 361 0
	eor	r2, r2, r4
	ldrb	r4, [ip, #1036]	@ zero_extendqisi2
.LBB134:
.LBB135:
	.loc 2 51 0
	ldrb	lr, [r0, #4]	@ zero_extendqisi2
.LVL112:
.LBE135:
.LBE134:
	.loc 1 359 0
	strb	r8, [r0]
.LVL113:
	.loc 1 361 0
	eor	r2, r2, r4
.LBB145:
.LBB136:
	.loc 2 51 0
	ldrb	r8, [r0, #9]	@ zero_extendqisi2
.LBE136:
.LBE145:
	.loc 1 361 0
	add	r2, r3, r2
.LBB146:
.LBB137:
	.loc 2 51 0
	ldrb	r4, [r0, #5]	@ zero_extendqisi2
.LVL114:
.LBE137:
.LBE146:
	.loc 1 364 0
	add	lr, r3, lr
.LVL115:
	.loc 1 360 0
	strb	r9, [r0, #5]
	.loc 1 369 0
	add	r8, r3, r8
.LBB147:
.LBB138:
	.loc 2 51 0
	ldrb	r9, [r0, #8]	@ zero_extendqisi2
.LBE138:
.LBE147:
	.loc 1 364 0
	add	r4, r3, r4
.LVL116:
.LBB148:
.LBB139:
	.loc 2 51 0
	ldrb	fp, [r0, #10]	@ zero_extendqisi2
.LBE139:
.LBE148:
	.loc 1 369 0
	add	r9, r3, r9
	str	r8, [sp, #16]
	str	r9, [sp, #20]
	add	fp, r3, fp
.LBB149:
.LBB140:
	.loc 2 51 0
	ldrb	r9, [r0, #11]	@ zero_extendqisi2
	ldrb	r8, [r0, #12]	@ zero_extendqisi2
.LBE140:
.LBE149:
	.loc 1 361 0
	ldrb	r10, [r2, #780]	@ zero_extendqisi2
	.loc 1 369 0
	add	r9, r3, r9
.LBB150:
.LBB141:
	.loc 2 51 0
	ldrb	r1, [r0, #6]	@ zero_extendqisi2
.LVL117:
.LBE141:
.LBE150:
	.loc 1 374 0
	add	r8, r3, r8
.LBB151:
.LBB142:
	.loc 2 51 0
	ldrb	r2, [r0, #7]	@ zero_extendqisi2
.LVL118:
.LBE142:
.LBE151:
	.loc 1 369 0
	str	fp, [sp, #24]
	.loc 1 364 0
	add	r1, r3, r1
.LVL119:
	.loc 1 369 0
	str	r9, [sp, #12]
	.loc 1 364 0
	add	r2, r3, r2
.LVL120:
.LBB152:
.LBB143:
	.loc 2 51 0
	ldrb	r9, [r0, #14]	@ zero_extendqisi2
.LBE143:
.LBE152:
	.loc 1 374 0
	str	r8, [sp, #4]
.LBB153:
.LBB144:
	.loc 2 51 0
	ldrb	r8, [r0, #15]	@ zero_extendqisi2
	ldrb	fp, [r0, #13]	@ zero_extendqisi2
.LVL121:
.LBE144:
.LBE153:
	.loc 1 361 0
	strb	r10, [r0, #10]
	.loc 1 374 0
	add	r10, r3, r9
	.loc 1 362 0
	ldrb	r7, [r7, #1548]	@ zero_extendqisi2
	.loc 1 374 0
	add	fp, r3, fp
.LVL122:
	str	r10, [sp, #8]
	add	r10, r3, r8
	.loc 1 362 0
	ldrb	r8, [r6, #1036]	@ zero_extendqisi2
.LVL123:
	.loc 1 374 0
	str	r10, [sp, #28]
	.loc 1 364 0
	ldrb	r6, [lr, #1292]	@ zero_extendqisi2
	.loc 1 362 0
	eor	r7, r7, r8
	.loc 1 364 0
	ldrb	r10, [r4, #1036]	@ zero_extendqisi2
	.loc 1 365 0
	ldrb	r8, [r4, #1292]	@ zero_extendqisi2
	.loc 1 362 0
	ldrb	r9, [r5, #1804]	@ zero_extendqisi2
.LVL124:
	.loc 1 364 0
	eor	r6, r6, r10
	.loc 1 374 0
	str	fp, [sp]
	.loc 1 365 0
	ldrb	r5, [lr, #1804]	@ zero_extendqisi2
	.loc 1 362 0
	eor	r7, r7, r9
	.loc 1 366 0
	ldrb	fp, [lr, #1548]	@ zero_extendqisi2
	ldrb	r10, [r4, #1804]	@ zero_extendqisi2
	.loc 1 365 0
	eor	r5, r5, r8
	.loc 1 367 0
	ldrb	lr, [lr, #1036]	@ zero_extendqisi2
	ldrb	r4, [r4, #1548]	@ zero_extendqisi2
	.loc 1 366 0
	eor	r10, r10, fp
	.loc 1 362 0
	ldrb	r9, [ip, #1292]	@ zero_extendqisi2
	.loc 1 365 0
	ldrb	r8, [r1, #1036]	@ zero_extendqisi2
	.loc 1 367 0
	eor	r4, r4, lr
	.loc 1 364 0
	ldrb	ip, [r1, #1548]	@ zero_extendqisi2
	.loc 1 362 0
	eor	r7, r7, r9
	.loc 1 366 0
	ldrb	fp, [r1, #1292]	@ zero_extendqisi2
	.loc 1 365 0
	eor	r5, r5, r8
	.loc 1 367 0
	ldrb	lr, [r1, #1804]	@ zero_extendqisi2
	.loc 1 364 0
	eor	r6, r6, ip
	.loc 1 365 0
	ldrb	r8, [r2, #1548]	@ zero_extendqisi2
	.loc 1 366 0
	eor	r10, r10, fp
	.loc 1 364 0
	ldrb	ip, [r2, #1804]	@ zero_extendqisi2
	.loc 1 367 0
	eor	r4, r4, lr
	.loc 1 366 0
	ldrb	fp, [r2, #1036]	@ zero_extendqisi2
	.loc 1 365 0
	eor	r5, r5, r8
	.loc 1 367 0
	ldrb	lr, [r2, #1292]	@ zero_extendqisi2
	.loc 1 364 0
	eor	r6, r6, ip
	.loc 1 366 0
	eor	r10, r10, fp
	.loc 1 362 0
	add	r7, r3, r7
	.loc 1 367 0
	eor	r4, r4, lr
	.loc 1 364 0
	add	r6, r3, r6
	.loc 1 365 0
	add	r5, r3, r5
	.loc 1 366 0
	add	r10, r3, r10
	.loc 1 367 0
	add	r4, r3, r4
	.loc 1 362 0
	ldrb	r2, [r7, #780]	@ zero_extendqisi2
	.loc 1 364 0
	ldrb	r1, [r6, #780]	@ zero_extendqisi2
	.loc 1 365 0
	ldrb	ip, [r5, #780]	@ zero_extendqisi2
	.loc 1 366 0
	ldrb	lr, [r10, #780]	@ zero_extendqisi2
	.loc 1 367 0
	ldrb	r4, [r4, #780]	@ zero_extendqisi2
	.loc 1 369 0
	ldr	r8, [sp, #16]
	ldr	r9, [sp, #20]
	ldr	fp, [sp, #24]
	.loc 1 362 0
	strb	r2, [r0, #15]
.LVL125:
	.loc 1 366 0
	strb	lr, [r0, #14]
.LVL126:
	.loc 1 369 0
	ldrb	r2, [r9, #1292]	@ zero_extendqisi2
	ldrb	lr, [r8, #1036]	@ zero_extendqisi2
	.loc 1 365 0
	strb	ip, [r0, #9]
	.loc 1 369 0
	ldrb	ip, [fp, #1548]	@ zero_extendqisi2
	eor	r2, r2, lr
	.loc 1 364 0
	strb	r1, [r0, #4]
.LVL127:
	.loc 1 370 0
	ldrb	r7, [r8, #1292]	@ zero_extendqisi2
	.loc 1 369 0
	eor	r2, r2, ip
	ldr	r1, [sp, #12]
	.loc 1 370 0
	ldrb	ip, [r9, #1804]	@ zero_extendqisi2
	.loc 1 372 0
	ldrb	r5, [r8, #1548]	@ zero_extendqisi2
	.loc 1 370 0
	eor	r7, r7, ip
	.loc 1 372 0
	ldrb	ip, [r9, #1036]	@ zero_extendqisi2
	.loc 1 369 0
	ldrb	r1, [r1, #1804]	@ zero_extendqisi2
	.loc 1 374 0
	ldr	r10, [sp]
	.loc 1 372 0
	eor	r5, r5, ip
	.loc 1 374 0
	ldr	lr, [sp, #4]
	.loc 1 369 0
	eor	r2, r2, r1
	.loc 1 371 0
	ldrb	r6, [r9, #1548]	@ zero_extendqisi2
	.loc 1 369 0
	add	r2, r3, r2
	.loc 1 372 0
	ldrb	r9, [fp, #1804]	@ zero_extendqisi2
	.loc 1 370 0
	ldrb	ip, [fp, #1036]	@ zero_extendqisi2
	.loc 1 371 0
	ldrb	r1, [r8, #1804]	@ zero_extendqisi2
	.loc 1 372 0
	eor	r5, r5, r9
	.loc 1 370 0
	eor	ip, ip, r7
	ldr	r9, [sp, #12]
	.loc 1 374 0
	ldr	r7, [sp, #8]
	.loc 1 371 0
	eor	r6, r6, r1
	.loc 1 375 0
	ldrb	r8, [r10, #1292]	@ zero_extendqisi2
	.loc 1 374 0
	ldrb	r1, [lr, #1292]	@ zero_extendqisi2
	.loc 1 367 0
	strb	r4, [r0, #3]
.LVL128:
	.loc 1 375 0
	ldrb	lr, [lr, #1804]	@ zero_extendqisi2
	.loc 1 374 0
	ldrb	r4, [r10, #1036]	@ zero_extendqisi2
	.loc 1 375 0
	eor	lr, lr, r8
	.loc 1 374 0
	ldrb	r10, [r7, #1548]	@ zero_extendqisi2
	.loc 1 375 0
	ldrb	r8, [r7, #1036]	@ zero_extendqisi2
	.loc 1 374 0
	eor	r4, r4, r1
	.loc 1 371 0
	ldrb	r1, [fp, #1292]	@ zero_extendqisi2
	.loc 1 374 0
	eor	r4, r4, r10
	.loc 1 370 0
	ldrb	r7, [r9, #1548]	@ zero_extendqisi2
	.loc 1 375 0
	eor	lr, lr, r8
	.loc 1 371 0
	eor	r1, r1, r6
	ldrb	r6, [r9, #1036]	@ zero_extendqisi2
	.loc 1 370 0
	eor	ip, ip, r7
	.loc 1 374 0
	ldr	r7, [sp, #28]
	.loc 1 370 0
	add	ip, r3, ip
	.loc 1 369 0
	ldrb	fp, [r2, #780]	@ zero_extendqisi2
	.loc 1 371 0
	eor	r1, r1, r6
	.loc 1 376 0
	ldr	r6, [sp, #8]
	.loc 1 375 0
	ldrb	r8, [r7, #1548]	@ zero_extendqisi2
	.loc 1 371 0
	add	r1, r3, r1
	.loc 1 374 0
	ldrb	r10, [r7, #1804]	@ zero_extendqisi2
	.loc 1 375 0
	eor	r8, r8, lr
	.loc 1 370 0
	ldrb	ip, [ip, #780]	@ zero_extendqisi2
	.loc 1 375 0
	add	r8, r3, r8
	.loc 1 374 0
	eor	r4, r4, r10
	add	r4, r3, r4
	.loc 1 371 0
	ldrb	lr, [r1, #780]	@ zero_extendqisi2
	.loc 1 375 0
	ldrb	r2, [r8, #780]	@ zero_extendqisi2
	.loc 1 370 0
	strb	ip, [r0, #13]
.LVL129:
	.loc 1 376 0
	ldr	ip, [sp, #4]
	.loc 1 375 0
	strb	r2, [r0, #1]
.LVL130:
	.loc 1 376 0
	ldr	r2, [sp]
	.loc 1 374 0
	ldrb	r1, [r4, #780]	@ zero_extendqisi2
	.loc 1 371 0
	strb	lr, [r0, #2]
.LVL131:
	.loc 1 376 0
	ldrb	r4, [r2, #1804]	@ zero_extendqisi2
	.loc 1 377 0
	ldrb	lr, [r2, #1548]	@ zero_extendqisi2
	.loc 1 376 0
	ldrb	r2, [ip, #1548]	@ zero_extendqisi2
	.loc 1 374 0
	strb	r1, [r0, #12]
	.loc 1 377 0
	ldrb	r1, [ip, #1036]	@ zero_extendqisi2
	.loc 1 376 0
	eor	r2, r2, r4
	ldrb	ip, [r6, #1292]	@ zero_extendqisi2
	.loc 1 377 0
	ldrb	r4, [r6, #1804]	@ zero_extendqisi2
	eor	lr, lr, r1
	.loc 1 372 0
	ldrb	r9, [r9, #1292]	@ zero_extendqisi2
	.loc 1 376 0
	eor	r2, r2, ip
	ldrb	r1, [r7, #1036]	@ zero_extendqisi2
	.loc 1 377 0
	eor	lr, lr, r4
	ldrb	ip, [r7, #1292]	@ zero_extendqisi2
	.loc 1 372 0
	eor	r5, r5, r9
	.loc 1 376 0
	eor	r2, r2, r1
	.loc 1 372 0
	add	r5, r3, r5
	.loc 1 377 0
	eor	r1, lr, ip
	.loc 1 376 0
	add	r2, r3, r2
	.loc 1 377 0
	add	r3, r3, r1
	.loc 1 372 0
	ldrb	r5, [r5, #780]	@ zero_extendqisi2
	.loc 1 376 0
	ldrb	r2, [r2, #780]	@ zero_extendqisi2
	.loc 1 377 0
	ldrb	r3, [r3, #780]	@ zero_extendqisi2
	.loc 1 369 0
	strb	fp, [r0, #8]
	.loc 1 372 0
	strb	r5, [r0, #7]
.LVL132:
	.loc 1 376 0
	strb	r2, [r0, #6]
.LVL133:
	.loc 1 377 0
	strb	r3, [r0, #11]
	.loc 1 378 0
	add	sp, sp, #36
	.cfi_def_cfa_offset 36
	@ sp needed
	ldmfd	sp!, {r4, r5, r6, r7, r8, r9, r10, fp, pc}
	.cfi_endproc
.LFE30:
	.size	aes_isubbyte_ishiftrows_imixcols, .-aes_isubbyte_ishiftrows_imixcols
	.align	2
	.global	aesc_decrypt
	.type	aesc_decrypt, %function
aesc_decrypt:
.LFB31:
	.loc 1 381 0
	.cfi_startproc
	@ args = 0, pretend = 0, frame = 48
	@ frame_needed = 0, uses_anonymous_args = 0
.LVL134:
	stmfd	sp!, {r4, r5, r6, r7, r8, r9, r10, fp, lr}
	.cfi_def_cfa_offset 36
	.cfi_offset 4, -36
	.cfi_offset 5, -32
	.cfi_offset 6, -28
	.cfi_offset 7, -24
	.cfi_offset 8, -20
	.cfi_offset 9, -16
	.cfi_offset 10, -12
	.cfi_offset 11, -8
	.cfi_offset 14, -4
	sub	sp, sp, #52
	.cfi_def_cfa_offset 88
.LBB166:
.LBB167:
	.loc 1 229 0
	ldr	r4, [r2, #160]
.LBE167:
.LBE166:
	.loc 1 381 0
	mov	r5, r2
.LBB176:
.LBB168:
	.loc 1 229 0
	ldr	lr, [r0]
.LBE168:
.LBE176:
.LBB177:
.LBB178:
	.loc 1 328 0
	movw	r3, #:lower16:.LANCHOR0
.LBE178:
.LBE177:
.LBB192:
.LBB169:
	.loc 1 229 0
	ldr	ip, [r2, #164]
.LBE169:
.LBE192:
.LBB193:
.LBB179:
	.loc 1 328 0
	movt	r3, #:upper16:.LANCHOR0
.LBE179:
.LBE193:
	.loc 1 381 0
	str	r2, [sp, #12]
.LBB194:
.LBB170:
	.loc 1 229 0
	eor	lr, lr, r4
	ldr	r2, [r0, #4]
.LVL135:
	mov	r4, r5
	ldr	r4, [r4, #172]
.LBE170:
.LBE194:
.LBB195:
.LBB180:
	.loc 1 339 0
	ubfx	r10, lr, #16, #8
.LBE180:
.LBE195:
.LBB196:
.LBB171:
	.loc 1 229 0
	eor	ip, ip, r2
	ldr	r2, [r0, #12]
.LBE171:
.LBE196:
.LBB197:
.LBB181:
	.loc 1 335 0
	ubfx	r9, ip, #8, #8
	.loc 1 341 0
	add	r10, r3, r10
.LBE181:
.LBE197:
.LBB198:
.LBB172:
	.loc 1 229 0
	eor	r2, r2, r4
.LBE172:
.LBE198:
.LBB199:
.LBB182:
	.loc 1 335 0
	add	r9, r3, r9
	.loc 1 333 0
	ubfx	r8, r2, #8, #8
.LBE182:
.LBE199:
.LBB200:
.LBB173:
	.loc 1 229 0
	ldr	r6, [r5, #168]
.LBE173:
.LBE200:
.LBB201:
.LBB183:
	.loc 1 341 0
	ldrb	r10, [r10, #780]	@ zero_extendqisi2
	.loc 1 337 0
	add	r8, r3, r8
.LBE183:
.LBE201:
.LBB202:
.LBB174:
	.loc 1 229 0
	ldr	r5, [r0, #8]
.LVL136:
.LBE174:
.LBE202:
.LBB203:
.LBB184:
	.loc 1 336 0
	ubfx	fp, lr, #8, #8
	.loc 1 335 0
	ldrb	r9, [r9, #780]	@ zero_extendqisi2
.LBE184:
.LBE203:
	.loc 1 381 0
	movw	r4, #:lower16:__stack_chk_guard
.LBB204:
.LBB175:
	.loc 1 229 0
	eor	r0, r6, r5
.LVL137:
.LBE175:
.LBE204:
.LBB205:
.LBB185:
	.loc 1 337 0
	ldrb	r8, [r8, #780]	@ zero_extendqisi2
	.loc 1 334 0
	ubfx	r7, r0, #8, #8
	.loc 1 341 0
	strb	r10, [sp, #38]
	.loc 1 335 0
	str	r9, [sp]
	.loc 1 334 0
	add	r7, r3, r7
	.loc 1 335 0
	ldrb	r10, [sp]	@ zero_extendqisi2
.LBE185:
.LBE205:
	.loc 1 381 0
	movt	r4, #:upper16:__stack_chk_guard
.LBB206:
.LBB186:
	.loc 1 336 0
	add	fp, r3, fp
.LBE186:
.LBE206:
	.loc 1 381 0
	str	r4, [sp, #8]
.LBB207:
.LBB187:
	.loc 1 342 0
	ubfx	r4, ip, #16, #8
	.loc 1 337 0
	str	r8, [sp, #4]
	.loc 1 344 0
	add	r4, r3, r4
	.loc 1 328 0
	uxtab	r8, r3, lr
	.loc 1 340 0
	ubfx	r6, r0, #16, #8
	.loc 1 343 0
	ubfx	r5, r2, #16, #8
	.loc 1 336 0
	ldrb	fp, [fp, #780]	@ zero_extendqisi2
	.loc 1 350 0
	add	lr, r3, lr, lsr #24
.LBE187:
.LBE207:
	.loc 1 381 0
	str	r1, [sp, #16]
.LBB208:
.LBB188:
	.loc 1 331 0
	uxtab	r9, r3, r2
	.loc 1 334 0
	ldrb	r1, [r7, #780]	@ zero_extendqisi2
.LVL138:
	.loc 1 340 0
	add	r6, r3, r6
	.loc 1 335 0
	strb	r10, [sp, #37]
	.loc 1 329 0
	uxtab	r7, r3, ip
	.loc 1 337 0
	ldrb	r10, [sp, #4]	@ zero_extendqisi2
	.loc 1 343 0
	add	r5, r3, r5
	.loc 1 350 0
	str	lr, [sp, #20]
	.loc 1 349 0
	add	r2, r3, r2, lsr #24
	.loc 1 344 0
	ldrb	lr, [r4, #780]	@ zero_extendqisi2
	.loc 1 347 0
	add	ip, r3, ip, lsr #24
	.loc 1 328 0
	ldrb	r4, [r8, #780]	@ zero_extendqisi2
	.loc 1 330 0
	uxtab	r8, r3, r0
	.loc 1 343 0
	ldrb	r5, [r5, #780]	@ zero_extendqisi2
	.loc 1 348 0
	add	r0, r3, r0, lsr #24
	.loc 1 340 0
	ldrb	r6, [r6, #780]	@ zero_extendqisi2
	.loc 1 329 0
	ldrb	r7, [r7, #780]	@ zero_extendqisi2
	.loc 1 330 0
	ldrb	r8, [r8, #780]	@ zero_extendqisi2
	.loc 1 331 0
	ldrb	r9, [r9, #780]	@ zero_extendqisi2
	.loc 1 336 0
	strb	fp, [sp, #33]
	.loc 1 337 0
	strb	r10, [sp, #29]
	.loc 1 334 0
	strb	r1, [sp, #41]
.LBE188:
.LBE208:
	.loc 1 381 0
	ldr	r1, [sp, #8]
.LBB209:
.LBB189:
	.loc 1 344 0
	strb	lr, [sp, #42]
	.loc 1 350 0
	ldr	lr, [sp, #20]
.LBE189:
.LBE209:
	.loc 1 381 0
	ldr	r1, [r1]
.LBB210:
.LBB190:
	.loc 1 348 0
	ldrb	r0, [r0, #780]	@ zero_extendqisi2
	.loc 1 328 0
	strb	r4, [sp, #28]
	ldr	r4, [sp, #12]
.LBE190:
.LBE210:
	.loc 1 381 0
	str	r1, [sp, #44]
.LVL139:
.LBB211:
.LBB191:
	.loc 1 347 0
	ldrb	ip, [ip, #780]	@ zero_extendqisi2
	.loc 1 349 0
	ldrb	r1, [r2, #780]	@ zero_extendqisi2
	.loc 1 350 0
	ldrb	r2, [lr, #780]	@ zero_extendqisi2
	.loc 1 348 0
	strb	r0, [sp, #35]
	.loc 1 350 0
	mov	r0, r4
	.loc 1 343 0
	strb	r5, [sp, #34]
	sub	r5, r4, #144
	.loc 1 340 0
	strb	r6, [sp, #30]
	str	r5, [sp, #4]
	.loc 1 329 0
	strb	r7, [sp, #32]
	.loc 1 330 0
	strb	r8, [sp, #36]
	.loc 1 331 0
	strb	r9, [sp, #40]
	.loc 1 347 0
	strb	ip, [sp, #31]
	.loc 1 349 0
	strb	r1, [sp, #39]
	.loc 1 350 0
	strb	r2, [sp, #43]
.LVL140:
.L26:
.LBE191:
.LBE211:
.LBB212:
.LBB213:
	.loc 1 238 0 discriminator 3
	ldr	r1, [sp, #28]
	sub	r0, r0, #16
	ldr	r2, [r0, #160]
	ldr	r5, [sp, #32]
	eor	r2, r2, r1
	ldr	r1, [r0, #164]
.LBE213:
.LBE212:
.LBB220:
.LBB221:
	.loc 1 359 0 discriminator 3
	ubfx	lr, r2, #8, #8
	ubfx	ip, r2, #16, #8
	uxtab	r4, r3, r2
	add	lr, r3, lr
	add	ip, r3, ip
	add	r2, r3, r2, lsr #24
	ldrb	r10, [lr, #1036]	@ zero_extendqisi2
.LBE221:
.LBE220:
.LBB242:
.LBB214:
	.loc 1 238 0 discriminator 3
	eor	r1, r1, r5
.LVL141:
.LBE214:
.LBE242:
.LBB243:
.LBB234:
	.loc 1 359 0 discriminator 3
	ldrb	r6, [r4, #1292]	@ zero_extendqisi2
.LBB222:
.LBB223:
	.loc 2 51 0 discriminator 3
	ubfx	r5, r1, #8, #8
.LVL142:
.LBE223:
.LBE222:
	.loc 1 360 0 discriminator 3
	ldrb	r9, [r4, #1804]	@ zero_extendqisi2
	.loc 1 364 0 discriminator 3
	add	r5, r3, r5
.LVL143:
	.loc 1 359 0 discriminator 3
	eor	r6, r6, r10
	ldrb	r10, [ip, #1548]	@ zero_extendqisi2
	ldrb	r7, [r2, #1804]	@ zero_extendqisi2
	.loc 1 360 0 discriminator 3
	ldrb	r8, [lr, #1292]	@ zero_extendqisi2
	.loc 1 359 0 discriminator 3
	eor	r10, r10, r6
	.loc 1 361 0 discriminator 3
	ldrb	r6, [lr, #1804]	@ zero_extendqisi2
	.loc 1 360 0 discriminator 3
	eor	r8, r8, r9
	.loc 1 362 0 discriminator 3
	ldrb	r9, [lr, #1548]	@ zero_extendqisi2
	.loc 1 359 0 discriminator 3
	eor	lr, r10, r7
	.loc 1 361 0 discriminator 3
	ldrb	r10, [r4, #1548]	@ zero_extendqisi2
	.loc 1 359 0 discriminator 3
	add	lr, r3, lr
	.loc 1 362 0 discriminator 3
	ldrb	r7, [r4, #1036]	@ zero_extendqisi2
	.loc 1 361 0 discriminator 3
	eor	r6, r6, r10
	ldrb	r10, [ip, #1292]	@ zero_extendqisi2
	.loc 1 359 0 discriminator 3
	ldrb	r4, [lr, #780]	@ zero_extendqisi2
	.loc 1 362 0 discriminator 3
	eor	r7, r7, r9
	.loc 1 360 0 discriminator 3
	ldrb	lr, [ip, #1036]	@ zero_extendqisi2
	.loc 1 361 0 discriminator 3
	eor	r6, r6, r10
	.loc 1 362 0 discriminator 3
	ldrb	r9, [ip, #1804]	@ zero_extendqisi2
	.loc 1 360 0 discriminator 3
	eor	lr, lr, r8
	.loc 1 361 0 discriminator 3
	ldrb	ip, [r2, #1036]	@ zero_extendqisi2
	.loc 1 360 0 discriminator 3
	ldrb	r8, [r2, #1548]	@ zero_extendqisi2
	.loc 1 362 0 discriminator 3
	eor	r7, r7, r9
	ldrb	r2, [r2, #1292]	@ zero_extendqisi2
	.loc 1 361 0 discriminator 3
	eor	ip, ip, r6
	.loc 1 360 0 discriminator 3
	eor	lr, lr, r8
.LBE234:
.LBE243:
.LBB244:
.LBB215:
	.loc 1 238 0 discriminator 3
	ldr	r6, [sp, #36]
.LBE215:
.LBE244:
.LBB245:
.LBB235:
	.loc 1 362 0 discriminator 3
	eor	r2, r2, r7
.LBE235:
.LBE245:
.LBB246:
.LBB216:
	.loc 1 238 0 discriminator 3
	ldr	r8, [r0, #168]
.LBE216:
.LBE246:
.LBB247:
.LBB236:
	.loc 1 360 0 discriminator 3
	add	lr, r3, lr
	.loc 1 361 0 discriminator 3
	add	ip, r3, ip
	.loc 1 362 0 discriminator 3
	add	r2, r3, r2
.LBE236:
.LBE247:
.LBB248:
.LBB217:
	.loc 1 238 0 discriminator 3
	eor	r8, r8, r6
.LBE217:
.LBE248:
.LBB249:
.LBB237:
	.loc 1 361 0 discriminator 3
	ldrb	r9, [ip, #780]	@ zero_extendqisi2
	.loc 1 364 0 discriminator 3
	uxtab	r7, r3, r1
	.loc 1 360 0 discriminator 3
	ldrb	r6, [lr, #780]	@ zero_extendqisi2
.LBB229:
.LBB224:
	.loc 2 51 0 discriminator 3
	ubfx	lr, r8, #8, #8
.LBE224:
.LBE229:
	.loc 1 362 0 discriminator 3
	ldrb	ip, [r2, #780]	@ zero_extendqisi2
	.loc 1 369 0 discriminator 3
	add	lr, r3, lr
	.loc 1 359 0 discriminator 3
	strb	r4, [sp, #28]
.LVL144:
.LBB230:
.LBB225:
	.loc 2 51 0 discriminator 3
	ubfx	r4, r1, #16, #8
.LVL145:
.LBE225:
.LBE230:
	.loc 1 364 0 discriminator 3
	add	r4, r3, r4
.LVL146:
.LBE237:
.LBE249:
.LBB250:
.LBB218:
	.loc 1 238 0 discriminator 3
	ldr	r10, [r0, #172]
	ldr	r2, [sp, #40]
.LBE218:
.LBE250:
.LBB251:
.LBB238:
	.loc 1 364 0 discriminator 3
	add	r1, r3, r1, lsr #24
.LVL147:
	.loc 1 360 0 discriminator 3
	strb	r6, [sp, #33]
.LVL148:
	.loc 1 369 0 discriminator 3
	uxtab	r6, r3, r8
	.loc 1 361 0 discriminator 3
	strb	r9, [sp, #38]
.LBE238:
.LBE251:
.LBB252:
.LBB219:
	.loc 1 238 0 discriminator 3
	eor	r2, r2, r10
.LBE219:
.LBE252:
.LBB253:
.LBB239:
	.loc 1 364 0 discriminator 3
	ldrb	r9, [r5, #1036]	@ zero_extendqisi2
	.loc 1 362 0 discriminator 3
	strb	ip, [sp, #43]
.LBB231:
.LBB226:
	.loc 2 51 0 discriminator 3
	ubfx	ip, r8, #16, #8
.LVL149:
.LBE226:
.LBE231:
	.loc 1 369 0 discriminator 3
	add	r8, r3, r8, lsr #24
.LVL150:
	str	r8, [sp]
.LVL151:
	.loc 1 364 0 discriminator 3
	ldrb	r8, [r7, #1292]	@ zero_extendqisi2
	.loc 1 369 0 discriminator 3
	add	ip, r3, ip
.LVL152:
.LBE239:
.LBE253:
	.loc 1 389 0 discriminator 3
	ldr	r10, [sp, #4]
.LBB254:
.LBB240:
	.loc 1 364 0 discriminator 3
	eor	r8, r8, r9
	ldrb	r9, [r4, #1548]	@ zero_extendqisi2
	ldrb	fp, [r1, #1804]	@ zero_extendqisi2
.LBE240:
.LBE254:
	.loc 1 389 0 discriminator 3
	cmp	r0, r10
.LBB255:
.LBB241:
	.loc 1 364 0 discriminator 3
	eor	r8, r8, r9
	.loc 1 365 0 discriminator 3
	ldrb	r10, [r5, #1292]	@ zero_extendqisi2
	ldrb	r9, [r7, #1804]	@ zero_extendqisi2
	.loc 1 364 0 discriminator 3
	eor	r8, r8, fp
	.loc 1 367 0 discriminator 3
	ldrb	fp, [r5, #1548]	@ zero_extendqisi2
	.loc 1 365 0 discriminator 3
	eor	r9, r9, r10
	.loc 1 366 0 discriminator 3
	ldrb	r10, [r5, #1804]	@ zero_extendqisi2
	.loc 1 364 0 discriminator 3
	add	r5, r3, r8
	.loc 1 366 0 discriminator 3
	ldrb	r8, [r7, #1548]	@ zero_extendqisi2
	.loc 1 367 0 discriminator 3
	ldrb	r7, [r7, #1036]	@ zero_extendqisi2
	.loc 1 366 0 discriminator 3
	eor	r8, r8, r10
	.loc 1 364 0 discriminator 3
	ldrb	r10, [r5, #780]	@ zero_extendqisi2
	.loc 1 367 0 discriminator 3
	eor	fp, fp, r7
	.loc 1 369 0 discriminator 3
	ldrb	r5, [r6, #1292]	@ zero_extendqisi2
	ldrb	r7, [lr, #1036]	@ zero_extendqisi2
	.loc 1 364 0 discriminator 3
	strb	r10, [sp, #32]
	.loc 1 369 0 discriminator 3
	eor	r5, r5, r7
	.loc 1 365 0 discriminator 3
	ldrb	r10, [r4, #1036]	@ zero_extendqisi2
	.loc 1 367 0 discriminator 3
	ldrb	r7, [r4, #1804]	@ zero_extendqisi2
	.loc 1 365 0 discriminator 3
	eor	r9, r9, r10
	ldrb	r10, [r1, #1548]	@ zero_extendqisi2
	.loc 1 367 0 discriminator 3
	eor	fp, fp, r7
	ldrb	r7, [r1, #1292]	@ zero_extendqisi2
	.loc 1 365 0 discriminator 3
	eor	r9, r9, r10
	.loc 1 366 0 discriminator 3
	ldrb	r10, [r4, #1292]	@ zero_extendqisi2
	.loc 1 367 0 discriminator 3
	eor	fp, fp, r7
	.loc 1 369 0 discriminator 3
	ldr	r7, [sp]
	ldrb	r4, [ip, #1548]	@ zero_extendqisi2
	.loc 1 366 0 discriminator 3
	eor	r8, r8, r10
	ldrb	r10, [r1, #1036]	@ zero_extendqisi2
	.loc 1 365 0 discriminator 3
	add	r9, r3, r9
	.loc 1 369 0 discriminator 3
	eor	r5, r5, r4
	ldrb	r4, [r7, #1804]	@ zero_extendqisi2
	.loc 1 370 0 discriminator 3
	ldrb	r1, [r6, #1804]	@ zero_extendqisi2
	.loc 1 366 0 discriminator 3
	eor	r10, r10, r8
	.loc 1 370 0 discriminator 3
	ldrb	r8, [lr, #1292]	@ zero_extendqisi2
	.loc 1 369 0 discriminator 3
	eor	r5, r5, r4
	.loc 1 370 0 discriminator 3
	ldrb	r4, [ip, #1036]	@ zero_extendqisi2
	.loc 1 366 0 discriminator 3
	add	r10, r3, r10
	.loc 1 365 0 discriminator 3
	ldrb	r9, [r9, #780]	@ zero_extendqisi2
	.loc 1 370 0 discriminator 3
	eor	r8, r8, r1
	.loc 1 367 0 discriminator 3
	add	fp, r3, fp
	.loc 1 369 0 discriminator 3
	add	r5, r3, r5
	.loc 1 370 0 discriminator 3
	eor	r8, r8, r4
	ldrb	r4, [r7, #1548]	@ zero_extendqisi2
	.loc 1 367 0 discriminator 3
	ldrb	r1, [fp, #780]	@ zero_extendqisi2
	.loc 1 365 0 discriminator 3
	strb	r9, [sp, #37]
	.loc 1 370 0 discriminator 3
	eor	r8, r8, r4
	.loc 1 366 0 discriminator 3
	ldrb	r9, [r10, #780]	@ zero_extendqisi2
	.loc 1 370 0 discriminator 3
	mov	r10, r7
	.loc 1 369 0 discriminator 3
	ldrb	r7, [r5, #780]	@ zero_extendqisi2
	.loc 1 370 0 discriminator 3
	add	r8, r3, r8
	.loc 1 374 0 discriminator 3
	uxtab	r5, r3, r2
.LBB232:
.LBB227:
	.loc 2 51 0 discriminator 3
	ubfx	r4, r2, #8, #8
.LVL153:
.LBE227:
.LBE232:
	.loc 1 366 0 discriminator 3
	strb	r9, [sp, #42]
	.loc 1 374 0 discriminator 3
	add	r4, r3, r4
.LVL154:
	.loc 1 367 0 discriminator 3
	strb	r1, [sp, #31]
.LVL155:
.LBB233:
.LBB228:
	.loc 2 51 0 discriminator 3
	ubfx	r1, r2, #16, #8
.LVL156:
.LBE228:
.LBE233:
	.loc 1 370 0 discriminator 3
	ldrb	r9, [r8, #780]	@ zero_extendqisi2
	.loc 1 374 0 discriminator 3
	add	r1, r3, r1
.LVL157:
	.loc 1 371 0 discriminator 3
	ldrb	r8, [lr, #1804]	@ zero_extendqisi2
	.loc 1 369 0 discriminator 3
	strb	r7, [sp, #36]
	.loc 1 374 0 discriminator 3
	add	r7, r3, r2, lsr #24
	.loc 1 371 0 discriminator 3
	ldrb	r2, [r6, #1548]	@ zero_extendqisi2
.LVL158:
	.loc 1 372 0 discriminator 3
	ldrb	lr, [lr, #1548]	@ zero_extendqisi2
	ldrb	r6, [r6, #1036]	@ zero_extendqisi2
	.loc 1 371 0 discriminator 3
	eor	r2, r2, r8
	ldrb	r8, [ip, #1292]	@ zero_extendqisi2
	.loc 1 372 0 discriminator 3
	ldrb	ip, [ip, #1804]	@ zero_extendqisi2
	eor	r6, r6, lr
	.loc 1 371 0 discriminator 3
	eor	r2, r2, r8
	.loc 1 370 0 discriminator 3
	strb	r9, [sp, #41]
	.loc 1 371 0 discriminator 3
	ldrb	r8, [r10, #1036]	@ zero_extendqisi2
	.loc 1 372 0 discriminator 3
	eor	ip, ip, r6
	.loc 1 374 0 discriminator 3
	ldrb	r9, [r5, #1292]	@ zero_extendqisi2
	ldrb	lr, [r4, #1036]	@ zero_extendqisi2
	.loc 1 371 0 discriminator 3
	eor	r8, r8, r2
	.loc 1 372 0 discriminator 3
	ldrb	r6, [r10, #1292]	@ zero_extendqisi2
	.loc 1 371 0 discriminator 3
	add	r8, r3, r8
	.loc 1 374 0 discriminator 3
	eor	lr, lr, r9
	.loc 1 375 0 discriminator 3
	ldrb	r2, [r5, #1804]	@ zero_extendqisi2
	ldrb	r9, [r4, #1292]	@ zero_extendqisi2
	.loc 1 372 0 discriminator 3
	eor	r6, r6, ip
	add	r6, r3, r6
	.loc 1 376 0 discriminator 3
	ldrb	ip, [r4, #1804]	@ zero_extendqisi2
	.loc 1 375 0 discriminator 3
	eor	r2, r2, r9
	.loc 1 376 0 discriminator 3
	ldrb	r9, [r5, #1548]	@ zero_extendqisi2
	.loc 1 371 0 discriminator 3
	ldrb	r10, [r8, #780]	@ zero_extendqisi2
	.loc 1 376 0 discriminator 3
	eor	ip, ip, r9
	.loc 1 372 0 discriminator 3
	ldrb	fp, [r6, #780]	@ zero_extendqisi2
	.loc 1 374 0 discriminator 3
	ldrb	r9, [r1, #1548]	@ zero_extendqisi2
	.loc 1 375 0 discriminator 3
	ldrb	r8, [r1, #1036]	@ zero_extendqisi2
	.loc 1 376 0 discriminator 3
	ldrb	r6, [r1, #1292]	@ zero_extendqisi2
	.loc 1 374 0 discriminator 3
	eor	r9, r9, lr
	.loc 1 375 0 discriminator 3
	eor	r8, r8, r2
	.loc 1 374 0 discriminator 3
	ldrb	lr, [r7, #1804]	@ zero_extendqisi2
	.loc 1 376 0 discriminator 3
	eor	r6, r6, ip
	.loc 1 375 0 discriminator 3
	ldrb	r2, [r7, #1548]	@ zero_extendqisi2
	.loc 1 376 0 discriminator 3
	ldrb	ip, [r7, #1036]	@ zero_extendqisi2
	.loc 1 374 0 discriminator 3
	eor	lr, lr, r9
	.loc 1 375 0 discriminator 3
	eor	r2, r2, r8
	.loc 1 374 0 discriminator 3
	add	lr, r3, lr
	.loc 1 376 0 discriminator 3
	eor	ip, ip, r6
	.loc 1 375 0 discriminator 3
	add	r2, r3, r2
	.loc 1 376 0 discriminator 3
	add	ip, r3, ip
	.loc 1 374 0 discriminator 3
	ldrb	r6, [lr, #780]	@ zero_extendqisi2
	.loc 1 375 0 discriminator 3
	ldrb	lr, [r2, #780]	@ zero_extendqisi2
	.loc 1 376 0 discriminator 3
	ldrb	r2, [ip, #780]	@ zero_extendqisi2
	.loc 1 371 0 discriminator 3
	strb	r10, [sp, #30]
.LVL159:
	.loc 1 375 0 discriminator 3
	strb	lr, [sp, #29]
.LVL160:
	.loc 1 372 0 discriminator 3
	strb	fp, [sp, #35]
	.loc 1 377 0 discriminator 3
	ldrb	lr, [r4, #1548]	@ zero_extendqisi2
	.loc 1 374 0 discriminator 3
	strb	r6, [sp, #40]
	.loc 1 376 0 discriminator 3
	strb	r2, [sp, #34]
	.loc 1 377 0 discriminator 3
	ldrb	r2, [r5, #1036]	@ zero_extendqisi2
	ldrb	ip, [r1, #1804]	@ zero_extendqisi2
	eor	r2, r2, lr
	ldrb	r1, [r7, #1292]	@ zero_extendqisi2
	eor	r2, r2, ip
	eor	r2, r2, r1
	add	r2, r3, r2
	ldrb	r2, [r2, #780]	@ zero_extendqisi2
	strb	r2, [sp, #39]
.LBE241:
.LBE255:
	.loc 1 389 0 discriminator 3
	bne	.L26
.LVL161:
.LBB256:
.LBB257:
	.loc 1 248 0
	ldr	lr, [sp, #12]
	ldr	r4, [sp, #16]
	ldr	r2, [sp, #28]
	ldr	r1, [lr]
	ldr	r3, [sp, #32]
	eor	r2, r2, r1
	str	r2, [r4]
.LVL162:
	ldr	r1, [lr, #4]
.LBE257:
.LBE256:
	.loc 1 395 0
	ldr	ip, [sp, #44]
.LBB262:
.LBB258:
	.loc 1 248 0
	eor	r3, r3, r1
	str	r3, [r4, #4]
.LVL163:
.LBE258:
.LBE262:
	.loc 1 395 0
	ldr	r3, [sp, #8]
.LBB263:
.LBB259:
	.loc 1 248 0
	ldr	r1, [lr, #8]
	ldr	r2, [sp, #36]
.LBE259:
.LBE263:
	.loc 1 395 0
	ldr	r0, [r3]
.LBB264:
.LBB260:
	.loc 1 248 0
	eor	r2, r2, r1
	ldr	r3, [sp, #40]
	str	r2, [r4, #8]
.LVL164:
.LBE260:
.LBE264:
	.loc 1 395 0
	cmp	ip, r0
.LBB265:
.LBB261:
	.loc 1 248 0
	ldr	r2, [lr, #12]
	eor	r3, r3, r2
	str	r3, [r4, #12]
.LVL165:
.LBE261:
.LBE265:
	.loc 1 395 0
	bne	.L30
	add	sp, sp, #52
	.cfi_remember_state
	.cfi_def_cfa_offset 36
	@ sp needed
	ldmfd	sp!, {r4, r5, r6, r7, r8, r9, r10, fp, pc}
.L30:
	.cfi_restore_state
	bl	__stack_chk_fail
.LVL166:
	.cfi_endproc
.LFE31:
	.size	aesc_decrypt, .-aesc_decrypt
	.section	.rodata
	.align	2
.LANCHOR0 = . + 0
	.type	__rcon, %object
	.size	__rcon, 11
__rcon:
	.byte	0
	.byte	1
	.byte	2
	.byte	4
	.byte	8
	.byte	16
	.byte	32
	.byte	64
	.byte	-128
	.byte	27
	.byte	54
	.space	1
	.type	__sbox, %object
	.size	__sbox, 256
__sbox:
	.byte	99
	.byte	124
	.byte	119
	.byte	123
	.byte	-14
	.byte	107
	.byte	111
	.byte	-59
	.byte	48
	.byte	1
	.byte	103
	.byte	43
	.byte	-2
	.byte	-41
	.byte	-85
	.byte	118
	.byte	-54
	.byte	-126
	.byte	-55
	.byte	125
	.byte	-6
	.byte	89
	.byte	71
	.byte	-16
	.byte	-83
	.byte	-44
	.byte	-94
	.byte	-81
	.byte	-100
	.byte	-92
	.byte	114
	.byte	-64
	.byte	-73
	.byte	-3
	.byte	-109
	.byte	38
	.byte	54
	.byte	63
	.byte	-9
	.byte	-52
	.byte	52
	.byte	-91
	.byte	-27
	.byte	-15
	.byte	113
	.byte	-40
	.byte	49
	.byte	21
	.byte	4
	.byte	-57
	.byte	35
	.byte	-61
	.byte	24
	.byte	-106
	.byte	5
	.byte	-102
	.byte	7
	.byte	18
	.byte	-128
	.byte	-30
	.byte	-21
	.byte	39
	.byte	-78
	.byte	117
	.byte	9
	.byte	-125
	.byte	44
	.byte	26
	.byte	27
	.byte	110
	.byte	90
	.byte	-96
	.byte	82
	.byte	59
	.byte	-42
	.byte	-77
	.byte	41
	.byte	-29
	.byte	47
	.byte	-124
	.byte	83
	.byte	-47
	.byte	0
	.byte	-19
	.byte	32
	.byte	-4
	.byte	-79
	.byte	91
	.byte	106
	.byte	-53
	.byte	-66
	.byte	57
	.byte	74
	.byte	76
	.byte	88
	.byte	-49
	.byte	-48
	.byte	-17
	.byte	-86
	.byte	-5
	.byte	67
	.byte	77
	.byte	51
	.byte	-123
	.byte	69
	.byte	-7
	.byte	2
	.byte	127
	.byte	80
	.byte	60
	.byte	-97
	.byte	-88
	.byte	81
	.byte	-93
	.byte	64
	.byte	-113
	.byte	-110
	.byte	-99
	.byte	56
	.byte	-11
	.byte	-68
	.byte	-74
	.byte	-38
	.byte	33
	.byte	16
	.byte	-1
	.byte	-13
	.byte	-46
	.byte	-51
	.byte	12
	.byte	19
	.byte	-20
	.byte	95
	.byte	-105
	.byte	68
	.byte	23
	.byte	-60
	.byte	-89
	.byte	126
	.byte	61
	.byte	100
	.byte	93
	.byte	25
	.byte	115
	.byte	96
	.byte	-127
	.byte	79
	.byte	-36
	.byte	34
	.byte	42
	.byte	-112
	.byte	-120
	.byte	70
	.byte	-18
	.byte	-72
	.byte	20
	.byte	-34
	.byte	94
	.byte	11
	.byte	-37
	.byte	-32
	.byte	50
	.byte	58
	.byte	10
	.byte	73
	.byte	6
	.byte	36
	.byte	92
	.byte	-62
	.byte	-45
	.byte	-84
	.byte	98
	.byte	-111
	.byte	-107
	.byte	-28
	.byte	121
	.byte	-25
	.byte	-56
	.byte	55
	.byte	109
	.byte	-115
	.byte	-43
	.byte	78
	.byte	-87
	.byte	108
	.byte	86
	.byte	-12
	.byte	-22
	.byte	101
	.byte	122
	.byte	-82
	.byte	8
	.byte	-70
	.byte	120
	.byte	37
	.byte	46
	.byte	28
	.byte	-90
	.byte	-76
	.byte	-58
	.byte	-24
	.byte	-35
	.byte	116
	.byte	31
	.byte	75
	.byte	-67
	.byte	-117
	.byte	-118
	.byte	112
	.byte	62
	.byte	-75
	.byte	102
	.byte	72
	.byte	3
	.byte	-10
	.byte	14
	.byte	97
	.byte	53
	.byte	87
	.byte	-71
	.byte	-122
	.byte	-63
	.byte	29
	.byte	-98
	.byte	-31
	.byte	-8
	.byte	-104
	.byte	17
	.byte	105
	.byte	-39
	.byte	-114
	.byte	-108
	.byte	-101
	.byte	30
	.byte	-121
	.byte	-23
	.byte	-50
	.byte	85
	.byte	40
	.byte	-33
	.byte	-116
	.byte	-95
	.byte	-119
	.byte	13
	.byte	-65
	.byte	-26
	.byte	66
	.byte	104
	.byte	65
	.byte	-103
	.byte	45
	.byte	15
	.byte	-80
	.byte	84
	.byte	-69
	.byte	22
	.type	__xtime3_sbox, %object
	.size	__xtime3_sbox, 256
__xtime3_sbox:
	.byte	-91
	.byte	-124
	.byte	-103
	.byte	-115
	.byte	13
	.byte	-67
	.byte	-79
	.byte	84
	.byte	80
	.byte	3
	.byte	-87
	.byte	125
	.byte	25
	.byte	98
	.byte	-26
	.byte	-102
	.byte	69
	.byte	-99
	.byte	64
	.byte	-121
	.byte	21
	.byte	-21
	.byte	-55
	.byte	11
	.byte	-20
	.byte	103
	.byte	-3
	.byte	-22
	.byte	-65
	.byte	-9
	.byte	-106
	.byte	91
	.byte	-62
	.byte	28
	.byte	-82
	.byte	106
	.byte	90
	.byte	65
	.byte	2
	.byte	79
	.byte	92
	.byte	-12
	.byte	52
	.byte	8
	.byte	-109
	.byte	115
	.byte	83
	.byte	63
	.byte	12
	.byte	82
	.byte	101
	.byte	94
	.byte	40
	.byte	-95
	.byte	15
	.byte	-75
	.byte	9
	.byte	54
	.byte	-101
	.byte	61
	.byte	38
	.byte	105
	.byte	-51
	.byte	-97
	.byte	27
	.byte	-98
	.byte	116
	.byte	46
	.byte	45
	.byte	-78
	.byte	-18
	.byte	-5
	.byte	-10
	.byte	77
	.byte	97
	.byte	-50
	.byte	123
	.byte	62
	.byte	113
	.byte	-105
	.byte	-11
	.byte	104
	.byte	0
	.byte	44
	.byte	96
	.byte	31
	.byte	-56
	.byte	-19
	.byte	-66
	.byte	70
	.byte	-39
	.byte	75
	.byte	-34
	.byte	-44
	.byte	-24
	.byte	74
	.byte	107
	.byte	42
	.byte	-27
	.byte	22
	.byte	-59
	.byte	-41
	.byte	85
	.byte	-108
	.byte	-49
	.byte	16
	.byte	6
	.byte	-127
	.byte	-16
	.byte	68
	.byte	-70
	.byte	-29
	.byte	-13
	.byte	-2
	.byte	-64
	.byte	-118
	.byte	-83
	.byte	-68
	.byte	72
	.byte	4
	.byte	-33
	.byte	-63
	.byte	117
	.byte	99
	.byte	48
	.byte	26
	.byte	14
	.byte	109
	.byte	76
	.byte	20
	.byte	53
	.byte	47
	.byte	-31
	.byte	-94
	.byte	-52
	.byte	57
	.byte	87
	.byte	-14
	.byte	-126
	.byte	71
	.byte	-84
	.byte	-25
	.byte	43
	.byte	-107
	.byte	-96
	.byte	-104
	.byte	-47
	.byte	127
	.byte	102
	.byte	126
	.byte	-85
	.byte	-125
	.byte	-54
	.byte	41
	.byte	-45
	.byte	60
	.byte	121
	.byte	-30
	.byte	29
	.byte	118
	.byte	59
	.byte	86
	.byte	78
	.byte	30
	.byte	-37
	.byte	10
	.byte	108
	.byte	-28
	.byte	93
	.byte	110
	.byte	-17
	.byte	-90
	.byte	-88
	.byte	-92
	.byte	55
	.byte	-117
	.byte	50
	.byte	67
	.byte	89
	.byte	-73
	.byte	-116
	.byte	100
	.byte	-46
	.byte	-32
	.byte	-76
	.byte	-6
	.byte	7
	.byte	37
	.byte	-81
	.byte	-114
	.byte	-23
	.byte	24
	.byte	-43
	.byte	-120
	.byte	111
	.byte	114
	.byte	36
	.byte	-15
	.byte	-57
	.byte	81
	.byte	35
	.byte	124
	.byte	-100
	.byte	33
	.byte	-35
	.byte	-36
	.byte	-122
	.byte	-123
	.byte	-112
	.byte	66
	.byte	-60
	.byte	-86
	.byte	-40
	.byte	5
	.byte	1
	.byte	18
	.byte	-93
	.byte	95
	.byte	-7
	.byte	-48
	.byte	-111
	.byte	88
	.byte	39
	.byte	-71
	.byte	56
	.byte	19
	.byte	-77
	.byte	51
	.byte	-69
	.byte	112
	.byte	-119
	.byte	-89
	.byte	-74
	.byte	34
	.byte	-110
	.byte	32
	.byte	73
	.byte	-1
	.byte	120
	.byte	122
	.byte	-113
	.byte	-8
	.byte	-128
	.byte	23
	.byte	-38
	.byte	49
	.byte	-58
	.byte	-72
	.byte	-61
	.byte	-80
	.byte	119
	.byte	17
	.byte	-53
	.byte	-4
	.byte	-42
	.byte	58
	.type	__xtime2_sbox, %object
	.size	__xtime2_sbox, 256
__xtime2_sbox:
	.byte	-58
	.byte	-8
	.byte	-18
	.byte	-10
	.byte	-1
	.byte	-42
	.byte	-34
	.byte	-111
	.byte	96
	.byte	2
	.byte	-50
	.byte	86
	.byte	-25
	.byte	-75
	.byte	77
	.byte	-20
	.byte	-113
	.byte	31
	.byte	-119
	.byte	-6
	.byte	-17
	.byte	-78
	.byte	-114
	.byte	-5
	.byte	65
	.byte	-77
	.byte	95
	.byte	69
	.byte	35
	.byte	83
	.byte	-28
	.byte	-101
	.byte	117
	.byte	-31
	.byte	61
	.byte	76
	.byte	108
	.byte	126
	.byte	-11
	.byte	-125
	.byte	104
	.byte	81
	.byte	-47
	.byte	-7
	.byte	-30
	.byte	-85
	.byte	98
	.byte	42
	.byte	8
	.byte	-107
	.byte	70
	.byte	-99
	.byte	48
	.byte	55
	.byte	10
	.byte	47
	.byte	14
	.byte	36
	.byte	27
	.byte	-33
	.byte	-51
	.byte	78
	.byte	127
	.byte	-22
	.byte	18
	.byte	29
	.byte	88
	.byte	52
	.byte	54
	.byte	-36
	.byte	-76
	.byte	91
	.byte	-92
	.byte	118
	.byte	-73
	.byte	125
	.byte	82
	.byte	-35
	.byte	94
	.byte	19
	.byte	-90
	.byte	-71
	.byte	0
	.byte	-63
	.byte	64
	.byte	-29
	.byte	121
	.byte	-74
	.byte	-44
	.byte	-115
	.byte	103
	.byte	114
	.byte	-108
	.byte	-104
	.byte	-80
	.byte	-123
	.byte	-69
	.byte	-59
	.byte	79
	.byte	-19
	.byte	-122
	.byte	-102
	.byte	102
	.byte	17
	.byte	-118
	.byte	-23
	.byte	4
	.byte	-2
	.byte	-96
	.byte	120
	.byte	37
	.byte	75
	.byte	-94
	.byte	93
	.byte	-128
	.byte	5
	.byte	63
	.byte	33
	.byte	112
	.byte	-15
	.byte	99
	.byte	119
	.byte	-81
	.byte	66
	.byte	32
	.byte	-27
	.byte	-3
	.byte	-65
	.byte	-127
	.byte	24
	.byte	38
	.byte	-61
	.byte	-66
	.byte	53
	.byte	-120
	.byte	46
	.byte	-109
	.byte	85
	.byte	-4
	.byte	122
	.byte	-56
	.byte	-70
	.byte	50
	.byte	-26
	.byte	-64
	.byte	25
	.byte	-98
	.byte	-93
	.byte	68
	.byte	84
	.byte	59
	.byte	11
	.byte	-116
	.byte	-57
	.byte	107
	.byte	40
	.byte	-89
	.byte	-68
	.byte	22
	.byte	-83
	.byte	-37
	.byte	100
	.byte	116
	.byte	20
	.byte	-110
	.byte	12
	.byte	72
	.byte	-72
	.byte	-97
	.byte	-67
	.byte	67
	.byte	-60
	.byte	57
	.byte	49
	.byte	-45
	.byte	-14
	.byte	-43
	.byte	-117
	.byte	110
	.byte	-38
	.byte	1
	.byte	-79
	.byte	-100
	.byte	73
	.byte	-40
	.byte	-84
	.byte	-13
	.byte	-49
	.byte	-54
	.byte	-12
	.byte	71
	.byte	16
	.byte	111
	.byte	-16
	.byte	74
	.byte	92
	.byte	56
	.byte	87
	.byte	115
	.byte	-105
	.byte	-53
	.byte	-95
	.byte	-24
	.byte	62
	.byte	-106
	.byte	97
	.byte	13
	.byte	15
	.byte	-32
	.byte	124
	.byte	113
	.byte	-52
	.byte	-112
	.byte	6
	.byte	-9
	.byte	28
	.byte	-62
	.byte	106
	.byte	-82
	.byte	105
	.byte	23
	.byte	-103
	.byte	58
	.byte	39
	.byte	-39
	.byte	-21
	.byte	43
	.byte	34
	.byte	-46
	.byte	-87
	.byte	7
	.byte	51
	.byte	45
	.byte	60
	.byte	21
	.byte	-55
	.byte	-121
	.byte	-86
	.byte	80
	.byte	-91
	.byte	3
	.byte	89
	.byte	9
	.byte	26
	.byte	101
	.byte	-41
	.byte	-124
	.byte	-48
	.byte	-126
	.byte	41
	.byte	90
	.byte	30
	.byte	123
	.byte	-88
	.byte	109
	.byte	44
	.type	__isbox, %object
	.size	__isbox, 256
__isbox:
	.byte	82
	.byte	9
	.byte	106
	.byte	-43
	.byte	48
	.byte	54
	.byte	-91
	.byte	56
	.byte	-65
	.byte	64
	.byte	-93
	.byte	-98
	.byte	-127
	.byte	-13
	.byte	-41
	.byte	-5
	.byte	124
	.byte	-29
	.byte	57
	.byte	-126
	.byte	-101
	.byte	47
	.byte	-1
	.byte	-121
	.byte	52
	.byte	-114
	.byte	67
	.byte	68
	.byte	-60
	.byte	-34
	.byte	-23
	.byte	-53
	.byte	84
	.byte	123
	.byte	-108
	.byte	50
	.byte	-90
	.byte	-62
	.byte	35
	.byte	61
	.byte	-18
	.byte	76
	.byte	-107
	.byte	11
	.byte	66
	.byte	-6
	.byte	-61
	.byte	78
	.byte	8
	.byte	46
	.byte	-95
	.byte	102
	.byte	40
	.byte	-39
	.byte	36
	.byte	-78
	.byte	118
	.byte	91
	.byte	-94
	.byte	73
	.byte	109
	.byte	-117
	.byte	-47
	.byte	37
	.byte	114
	.byte	-8
	.byte	-10
	.byte	100
	.byte	-122
	.byte	104
	.byte	-104
	.byte	22
	.byte	-44
	.byte	-92
	.byte	92
	.byte	-52
	.byte	93
	.byte	101
	.byte	-74
	.byte	-110
	.byte	108
	.byte	112
	.byte	72
	.byte	80
	.byte	-3
	.byte	-19
	.byte	-71
	.byte	-38
	.byte	94
	.byte	21
	.byte	70
	.byte	87
	.byte	-89
	.byte	-115
	.byte	-99
	.byte	-124
	.byte	-112
	.byte	-40
	.byte	-85
	.byte	0
	.byte	-116
	.byte	-68
	.byte	-45
	.byte	10
	.byte	-9
	.byte	-28
	.byte	88
	.byte	5
	.byte	-72
	.byte	-77
	.byte	69
	.byte	6
	.byte	-48
	.byte	44
	.byte	30
	.byte	-113
	.byte	-54
	.byte	63
	.byte	15
	.byte	2
	.byte	-63
	.byte	-81
	.byte	-67
	.byte	3
	.byte	1
	.byte	19
	.byte	-118
	.byte	107
	.byte	58
	.byte	-111
	.byte	17
	.byte	65
	.byte	79
	.byte	103
	.byte	-36
	.byte	-22
	.byte	-105
	.byte	-14
	.byte	-49
	.byte	-50
	.byte	-16
	.byte	-76
	.byte	-26
	.byte	115
	.byte	-106
	.byte	-84
	.byte	116
	.byte	34
	.byte	-25
	.byte	-83
	.byte	53
	.byte	-123
	.byte	-30
	.byte	-7
	.byte	55
	.byte	-24
	.byte	28
	.byte	117
	.byte	-33
	.byte	110
	.byte	71
	.byte	-15
	.byte	26
	.byte	113
	.byte	29
	.byte	41
	.byte	-59
	.byte	-119
	.byte	111
	.byte	-73
	.byte	98
	.byte	14
	.byte	-86
	.byte	24
	.byte	-66
	.byte	27
	.byte	-4
	.byte	86
	.byte	62
	.byte	75
	.byte	-58
	.byte	-46
	.byte	121
	.byte	32
	.byte	-102
	.byte	-37
	.byte	-64
	.byte	-2
	.byte	120
	.byte	-51
	.byte	90
	.byte	-12
	.byte	31
	.byte	-35
	.byte	-88
	.byte	51
	.byte	-120
	.byte	7
	.byte	-57
	.byte	49
	.byte	-79
	.byte	18
	.byte	16
	.byte	89
	.byte	39
	.byte	-128
	.byte	-20
	.byte	95
	.byte	96
	.byte	81
	.byte	127
	.byte	-87
	.byte	25
	.byte	-75
	.byte	74
	.byte	13
	.byte	45
	.byte	-27
	.byte	122
	.byte	-97
	.byte	-109
	.byte	-55
	.byte	-100
	.byte	-17
	.byte	-96
	.byte	-32
	.byte	59
	.byte	77
	.byte	-82
	.byte	42
	.byte	-11
	.byte	-80
	.byte	-56
	.byte	-21
	.byte	-69
	.byte	60
	.byte	-125
	.byte	83
	.byte	-103
	.byte	97
	.byte	23
	.byte	43
	.byte	4
	.byte	126
	.byte	-70
	.byte	119
	.byte	-42
	.byte	38
	.byte	-31
	.byte	105
	.byte	20
	.byte	99
	.byte	85
	.byte	33
	.byte	12
	.byte	125
	.type	__xtimeb, %object
	.size	__xtimeb, 256
__xtimeb:
	.byte	0
	.byte	11
	.byte	22
	.byte	29
	.byte	44
	.byte	39
	.byte	58
	.byte	49
	.byte	88
	.byte	83
	.byte	78
	.byte	69
	.byte	116
	.byte	127
	.byte	98
	.byte	105
	.byte	-80
	.byte	-69
	.byte	-90
	.byte	-83
	.byte	-100
	.byte	-105
	.byte	-118
	.byte	-127
	.byte	-24
	.byte	-29
	.byte	-2
	.byte	-11
	.byte	-60
	.byte	-49
	.byte	-46
	.byte	-39
	.byte	123
	.byte	112
	.byte	109
	.byte	102
	.byte	87
	.byte	92
	.byte	65
	.byte	74
	.byte	35
	.byte	40
	.byte	53
	.byte	62
	.byte	15
	.byte	4
	.byte	25
	.byte	18
	.byte	-53
	.byte	-64
	.byte	-35
	.byte	-42
	.byte	-25
	.byte	-20
	.byte	-15
	.byte	-6
	.byte	-109
	.byte	-104
	.byte	-123
	.byte	-114
	.byte	-65
	.byte	-76
	.byte	-87
	.byte	-94
	.byte	-10
	.byte	-3
	.byte	-32
	.byte	-21
	.byte	-38
	.byte	-47
	.byte	-52
	.byte	-57
	.byte	-82
	.byte	-91
	.byte	-72
	.byte	-77
	.byte	-126
	.byte	-119
	.byte	-108
	.byte	-97
	.byte	70
	.byte	77
	.byte	80
	.byte	91
	.byte	106
	.byte	97
	.byte	124
	.byte	119
	.byte	30
	.byte	21
	.byte	8
	.byte	3
	.byte	50
	.byte	57
	.byte	36
	.byte	47
	.byte	-115
	.byte	-122
	.byte	-101
	.byte	-112
	.byte	-95
	.byte	-86
	.byte	-73
	.byte	-68
	.byte	-43
	.byte	-34
	.byte	-61
	.byte	-56
	.byte	-7
	.byte	-14
	.byte	-17
	.byte	-28
	.byte	61
	.byte	54
	.byte	43
	.byte	32
	.byte	17
	.byte	26
	.byte	7
	.byte	12
	.byte	101
	.byte	110
	.byte	115
	.byte	120
	.byte	73
	.byte	66
	.byte	95
	.byte	84
	.byte	-9
	.byte	-4
	.byte	-31
	.byte	-22
	.byte	-37
	.byte	-48
	.byte	-51
	.byte	-58
	.byte	-81
	.byte	-92
	.byte	-71
	.byte	-78
	.byte	-125
	.byte	-120
	.byte	-107
	.byte	-98
	.byte	71
	.byte	76
	.byte	81
	.byte	90
	.byte	107
	.byte	96
	.byte	125
	.byte	118
	.byte	31
	.byte	20
	.byte	9
	.byte	2
	.byte	51
	.byte	56
	.byte	37
	.byte	46
	.byte	-116
	.byte	-121
	.byte	-102
	.byte	-111
	.byte	-96
	.byte	-85
	.byte	-74
	.byte	-67
	.byte	-44
	.byte	-33
	.byte	-62
	.byte	-55
	.byte	-8
	.byte	-13
	.byte	-18
	.byte	-27
	.byte	60
	.byte	55
	.byte	42
	.byte	33
	.byte	16
	.byte	27
	.byte	6
	.byte	13
	.byte	100
	.byte	111
	.byte	114
	.byte	121
	.byte	72
	.byte	67
	.byte	94
	.byte	85
	.byte	1
	.byte	10
	.byte	23
	.byte	28
	.byte	45
	.byte	38
	.byte	59
	.byte	48
	.byte	89
	.byte	82
	.byte	79
	.byte	68
	.byte	117
	.byte	126
	.byte	99
	.byte	104
	.byte	-79
	.byte	-70
	.byte	-89
	.byte	-84
	.byte	-99
	.byte	-106
	.byte	-117
	.byte	-128
	.byte	-23
	.byte	-30
	.byte	-1
	.byte	-12
	.byte	-59
	.byte	-50
	.byte	-45
	.byte	-40
	.byte	122
	.byte	113
	.byte	108
	.byte	103
	.byte	86
	.byte	93
	.byte	64
	.byte	75
	.byte	34
	.byte	41
	.byte	52
	.byte	63
	.byte	14
	.byte	5
	.byte	24
	.byte	19
	.byte	-54
	.byte	-63
	.byte	-36
	.byte	-41
	.byte	-26
	.byte	-19
	.byte	-16
	.byte	-5
	.byte	-110
	.byte	-103
	.byte	-124
	.byte	-113
	.byte	-66
	.byte	-75
	.byte	-88
	.byte	-93
	.type	__xtimee, %object
	.size	__xtimee, 256
__xtimee:
	.byte	0
	.byte	14
	.byte	28
	.byte	18
	.byte	56
	.byte	54
	.byte	36
	.byte	42
	.byte	112
	.byte	126
	.byte	108
	.byte	98
	.byte	72
	.byte	70
	.byte	84
	.byte	90
	.byte	-32
	.byte	-18
	.byte	-4
	.byte	-14
	.byte	-40
	.byte	-42
	.byte	-60
	.byte	-54
	.byte	-112
	.byte	-98
	.byte	-116
	.byte	-126
	.byte	-88
	.byte	-90
	.byte	-76
	.byte	-70
	.byte	-37
	.byte	-43
	.byte	-57
	.byte	-55
	.byte	-29
	.byte	-19
	.byte	-1
	.byte	-15
	.byte	-85
	.byte	-91
	.byte	-73
	.byte	-71
	.byte	-109
	.byte	-99
	.byte	-113
	.byte	-127
	.byte	59
	.byte	53
	.byte	39
	.byte	41
	.byte	3
	.byte	13
	.byte	31
	.byte	17
	.byte	75
	.byte	69
	.byte	87
	.byte	89
	.byte	115
	.byte	125
	.byte	111
	.byte	97
	.byte	-83
	.byte	-93
	.byte	-79
	.byte	-65
	.byte	-107
	.byte	-101
	.byte	-119
	.byte	-121
	.byte	-35
	.byte	-45
	.byte	-63
	.byte	-49
	.byte	-27
	.byte	-21
	.byte	-7
	.byte	-9
	.byte	77
	.byte	67
	.byte	81
	.byte	95
	.byte	117
	.byte	123
	.byte	105
	.byte	103
	.byte	61
	.byte	51
	.byte	33
	.byte	47
	.byte	5
	.byte	11
	.byte	25
	.byte	23
	.byte	118
	.byte	120
	.byte	106
	.byte	100
	.byte	78
	.byte	64
	.byte	82
	.byte	92
	.byte	6
	.byte	8
	.byte	26
	.byte	20
	.byte	62
	.byte	48
	.byte	34
	.byte	44
	.byte	-106
	.byte	-104
	.byte	-118
	.byte	-124
	.byte	-82
	.byte	-96
	.byte	-78
	.byte	-68
	.byte	-26
	.byte	-24
	.byte	-6
	.byte	-12
	.byte	-34
	.byte	-48
	.byte	-62
	.byte	-52
	.byte	65
	.byte	79
	.byte	93
	.byte	83
	.byte	121
	.byte	119
	.byte	101
	.byte	107
	.byte	49
	.byte	63
	.byte	45
	.byte	35
	.byte	9
	.byte	7
	.byte	21
	.byte	27
	.byte	-95
	.byte	-81
	.byte	-67
	.byte	-77
	.byte	-103
	.byte	-105
	.byte	-123
	.byte	-117
	.byte	-47
	.byte	-33
	.byte	-51
	.byte	-61
	.byte	-23
	.byte	-25
	.byte	-11
	.byte	-5
	.byte	-102
	.byte	-108
	.byte	-122
	.byte	-120
	.byte	-94
	.byte	-84
	.byte	-66
	.byte	-80
	.byte	-22
	.byte	-28
	.byte	-10
	.byte	-8
	.byte	-46
	.byte	-36
	.byte	-50
	.byte	-64
	.byte	122
	.byte	116
	.byte	102
	.byte	104
	.byte	66
	.byte	76
	.byte	94
	.byte	80
	.byte	10
	.byte	4
	.byte	22
	.byte	24
	.byte	50
	.byte	60
	.byte	46
	.byte	32
	.byte	-20
	.byte	-30
	.byte	-16
	.byte	-2
	.byte	-44
	.byte	-38
	.byte	-56
	.byte	-58
	.byte	-100
	.byte	-110
	.byte	-128
	.byte	-114
	.byte	-92
	.byte	-86
	.byte	-72
	.byte	-74
	.byte	12
	.byte	2
	.byte	16
	.byte	30
	.byte	52
	.byte	58
	.byte	40
	.byte	38
	.byte	124
	.byte	114
	.byte	96
	.byte	110
	.byte	68
	.byte	74
	.byte	88
	.byte	86
	.byte	55
	.byte	57
	.byte	43
	.byte	37
	.byte	15
	.byte	1
	.byte	19
	.byte	29
	.byte	71
	.byte	73
	.byte	91
	.byte	85
	.byte	127
	.byte	113
	.byte	99
	.byte	109
	.byte	-41
	.byte	-39
	.byte	-53
	.byte	-59
	.byte	-17
	.byte	-31
	.byte	-13
	.byte	-3
	.byte	-89
	.byte	-87
	.byte	-69
	.byte	-75
	.byte	-97
	.byte	-111
	.byte	-125
	.byte	-115
	.type	__xtimed, %object
	.size	__xtimed, 256
__xtimed:
	.byte	0
	.byte	13
	.byte	26
	.byte	23
	.byte	52
	.byte	57
	.byte	46
	.byte	35
	.byte	104
	.byte	101
	.byte	114
	.byte	127
	.byte	92
	.byte	81
	.byte	70
	.byte	75
	.byte	-48
	.byte	-35
	.byte	-54
	.byte	-57
	.byte	-28
	.byte	-23
	.byte	-2
	.byte	-13
	.byte	-72
	.byte	-75
	.byte	-94
	.byte	-81
	.byte	-116
	.byte	-127
	.byte	-106
	.byte	-101
	.byte	-69
	.byte	-74
	.byte	-95
	.byte	-84
	.byte	-113
	.byte	-126
	.byte	-107
	.byte	-104
	.byte	-45
	.byte	-34
	.byte	-55
	.byte	-60
	.byte	-25
	.byte	-22
	.byte	-3
	.byte	-16
	.byte	107
	.byte	102
	.byte	113
	.byte	124
	.byte	95
	.byte	82
	.byte	69
	.byte	72
	.byte	3
	.byte	14
	.byte	25
	.byte	20
	.byte	55
	.byte	58
	.byte	45
	.byte	32
	.byte	109
	.byte	96
	.byte	119
	.byte	122
	.byte	89
	.byte	84
	.byte	67
	.byte	78
	.byte	5
	.byte	8
	.byte	31
	.byte	18
	.byte	49
	.byte	60
	.byte	43
	.byte	38
	.byte	-67
	.byte	-80
	.byte	-89
	.byte	-86
	.byte	-119
	.byte	-124
	.byte	-109
	.byte	-98
	.byte	-43
	.byte	-40
	.byte	-49
	.byte	-62
	.byte	-31
	.byte	-20
	.byte	-5
	.byte	-10
	.byte	-42
	.byte	-37
	.byte	-52
	.byte	-63
	.byte	-30
	.byte	-17
	.byte	-8
	.byte	-11
	.byte	-66
	.byte	-77
	.byte	-92
	.byte	-87
	.byte	-118
	.byte	-121
	.byte	-112
	.byte	-99
	.byte	6
	.byte	11
	.byte	28
	.byte	17
	.byte	50
	.byte	63
	.byte	40
	.byte	37
	.byte	110
	.byte	99
	.byte	116
	.byte	121
	.byte	90
	.byte	87
	.byte	64
	.byte	77
	.byte	-38
	.byte	-41
	.byte	-64
	.byte	-51
	.byte	-18
	.byte	-29
	.byte	-12
	.byte	-7
	.byte	-78
	.byte	-65
	.byte	-88
	.byte	-91
	.byte	-122
	.byte	-117
	.byte	-100
	.byte	-111
	.byte	10
	.byte	7
	.byte	16
	.byte	29
	.byte	62
	.byte	51
	.byte	36
	.byte	41
	.byte	98
	.byte	111
	.byte	120
	.byte	117
	.byte	86
	.byte	91
	.byte	76
	.byte	65
	.byte	97
	.byte	108
	.byte	123
	.byte	118
	.byte	85
	.byte	88
	.byte	79
	.byte	66
	.byte	9
	.byte	4
	.byte	19
	.byte	30
	.byte	61
	.byte	48
	.byte	39
	.byte	42
	.byte	-79
	.byte	-68
	.byte	-85
	.byte	-90
	.byte	-123
	.byte	-120
	.byte	-97
	.byte	-110
	.byte	-39
	.byte	-44
	.byte	-61
	.byte	-50
	.byte	-19
	.byte	-32
	.byte	-9
	.byte	-6
	.byte	-73
	.byte	-70
	.byte	-83
	.byte	-96
	.byte	-125
	.byte	-114
	.byte	-103
	.byte	-108
	.byte	-33
	.byte	-46
	.byte	-59
	.byte	-56
	.byte	-21
	.byte	-26
	.byte	-15
	.byte	-4
	.byte	103
	.byte	106
	.byte	125
	.byte	112
	.byte	83
	.byte	94
	.byte	73
	.byte	68
	.byte	15
	.byte	2
	.byte	21
	.byte	24
	.byte	59
	.byte	54
	.byte	33
	.byte	44
	.byte	12
	.byte	1
	.byte	22
	.byte	27
	.byte	56
	.byte	53
	.byte	34
	.byte	47
	.byte	100
	.byte	105
	.byte	126
	.byte	115
	.byte	80
	.byte	93
	.byte	74
	.byte	71
	.byte	-36
	.byte	-47
	.byte	-58
	.byte	-53
	.byte	-24
	.byte	-27
	.byte	-14
	.byte	-1
	.byte	-76
	.byte	-71
	.byte	-82
	.byte	-93
	.byte	-128
	.byte	-115
	.byte	-102
	.byte	-105
	.type	__xtime9, %object
	.size	__xtime9, 256
__xtime9:
	.byte	0
	.byte	9
	.byte	18
	.byte	27
	.byte	36
	.byte	45
	.byte	54
	.byte	63
	.byte	72
	.byte	65
	.byte	90
	.byte	83
	.byte	108
	.byte	101
	.byte	126
	.byte	119
	.byte	-112
	.byte	-103
	.byte	-126
	.byte	-117
	.byte	-76
	.byte	-67
	.byte	-90
	.byte	-81
	.byte	-40
	.byte	-47
	.byte	-54
	.byte	-61
	.byte	-4
	.byte	-11
	.byte	-18
	.byte	-25
	.byte	59
	.byte	50
	.byte	41
	.byte	32
	.byte	31
	.byte	22
	.byte	13
	.byte	4
	.byte	115
	.byte	122
	.byte	97
	.byte	104
	.byte	87
	.byte	94
	.byte	69
	.byte	76
	.byte	-85
	.byte	-94
	.byte	-71
	.byte	-80
	.byte	-113
	.byte	-122
	.byte	-99
	.byte	-108
	.byte	-29
	.byte	-22
	.byte	-15
	.byte	-8
	.byte	-57
	.byte	-50
	.byte	-43
	.byte	-36
	.byte	118
	.byte	127
	.byte	100
	.byte	109
	.byte	82
	.byte	91
	.byte	64
	.byte	73
	.byte	62
	.byte	55
	.byte	44
	.byte	37
	.byte	26
	.byte	19
	.byte	8
	.byte	1
	.byte	-26
	.byte	-17
	.byte	-12
	.byte	-3
	.byte	-62
	.byte	-53
	.byte	-48
	.byte	-39
	.byte	-82
	.byte	-89
	.byte	-68
	.byte	-75
	.byte	-118
	.byte	-125
	.byte	-104
	.byte	-111
	.byte	77
	.byte	68
	.byte	95
	.byte	86
	.byte	105
	.byte	96
	.byte	123
	.byte	114
	.byte	5
	.byte	12
	.byte	23
	.byte	30
	.byte	33
	.byte	40
	.byte	51
	.byte	58
	.byte	-35
	.byte	-44
	.byte	-49
	.byte	-58
	.byte	-7
	.byte	-16
	.byte	-21
	.byte	-30
	.byte	-107
	.byte	-100
	.byte	-121
	.byte	-114
	.byte	-79
	.byte	-72
	.byte	-93
	.byte	-86
	.byte	-20
	.byte	-27
	.byte	-2
	.byte	-9
	.byte	-56
	.byte	-63
	.byte	-38
	.byte	-45
	.byte	-92
	.byte	-83
	.byte	-74
	.byte	-65
	.byte	-128
	.byte	-119
	.byte	-110
	.byte	-101
	.byte	124
	.byte	117
	.byte	110
	.byte	103
	.byte	88
	.byte	81
	.byte	74
	.byte	67
	.byte	52
	.byte	61
	.byte	38
	.byte	47
	.byte	16
	.byte	25
	.byte	2
	.byte	11
	.byte	-41
	.byte	-34
	.byte	-59
	.byte	-52
	.byte	-13
	.byte	-6
	.byte	-31
	.byte	-24
	.byte	-97
	.byte	-106
	.byte	-115
	.byte	-124
	.byte	-69
	.byte	-78
	.byte	-87
	.byte	-96
	.byte	71
	.byte	78
	.byte	85
	.byte	92
	.byte	99
	.byte	106
	.byte	113
	.byte	120
	.byte	15
	.byte	6
	.byte	29
	.byte	20
	.byte	43
	.byte	34
	.byte	57
	.byte	48
	.byte	-102
	.byte	-109
	.byte	-120
	.byte	-127
	.byte	-66
	.byte	-73
	.byte	-84
	.byte	-91
	.byte	-46
	.byte	-37
	.byte	-64
	.byte	-55
	.byte	-10
	.byte	-1
	.byte	-28
	.byte	-19
	.byte	10
	.byte	3
	.byte	24
	.byte	17
	.byte	46
	.byte	39
	.byte	60
	.byte	53
	.byte	66
	.byte	75
	.byte	80
	.byte	89
	.byte	102
	.byte	111
	.byte	116
	.byte	125
	.byte	-95
	.byte	-88
	.byte	-77
	.byte	-70
	.byte	-123
	.byte	-116
	.byte	-105
	.byte	-98
	.byte	-23
	.byte	-32
	.byte	-5
	.byte	-14
	.byte	-51
	.byte	-60
	.byte	-33
	.byte	-42
	.byte	49
	.byte	56
	.byte	35
	.byte	42
	.byte	21
	.byte	28
	.byte	7
	.byte	14
	.byte	121
	.byte	112
	.byte	107
	.byte	98
	.byte	93
	.byte	84
	.byte	79
	.byte	70
	.text
.Letext0:
	.file 3 "/usr/include/stdint.h"
	.file 4 "/usr/lib/gcc/arm-linux-gnueabihf/4.9/include/stddef.h"
	.section	.note.GNU-stack,"",%progbits
